PAGE 01  C11X10.TYM  06-APR-73  08:55:44.716

     1	      	000017	MACHNUM         E   17  MACHINE NUMBER
     2	      	000005	NLINES          E    5D NUMBER OF 201 LINES
     3	      	000013	HOST0NUM        E  11D HOST ZERO
     4	      	000001	HOST1NUM        E   1D HOST ONE
     5	      	000032	NUMGRP          E 32
     6	      	000002	NUMHOST         E 2  NUMBER OF HOSTS
     7	      	001027	NEIGH0          E 1027  NEIGHBOR FOR LINE 0
     8	      	000013	NEIGH1          E   13  NEIGHBOR FOR LINE 1
     9	      	000027	NEIGH2          E   27  NEIGHBOR FOR LINE 2
    10	      	000006	NEIGH3          E    6  NEIGHBOR FOR LINE 3
    11	      	000014	NEIGH4          E   14  NEIGHBOR FOR LINE 4
    12	      	000000	NEIGH5          E    0  NEIGHBOR FOR LINE 5
    13	      	000000	NEIGH6          E    0  NEIGHBOR FOR LINE 6
    14	      	000000	NEIGH7          E    0  NEIGHBOR FOR LINE 7
    15	      	000003	NGRPS0          E    3D NUMBER OF GROUPS ON LINE 0
    16	      	000003	NGRPS1          E    3D NUMBER OF GROUPS ON LINE 1
    17	      	000003	NGRPS2          E    3D NUMBER OF GROUPS ON LINE 2
    18	      	000003	NGRPS3          E    3D NUMBER OF GROUPS ON LINE 3
    19	      	000003	NGRPS4          E    3D NUMBER OF GROUPS ON LINE 4
    20	      	000000	NGRPS5          E    0D NUMBER OF GROUPS ON LINE 5
    21	      	000000	NGRPS6          E    0D NUMBER OF GROUPS ON LINE 6
    22	      	000000	NGRPS7          E    0D NUMBER OF GROUPS ON LINE 7
    23	      	      	*
    24	      	177777	CARD201         E -1  201 CARD INSTALLED     
    25	      	000000	EBCD2741        E  0  EBCD 2741S             
    26	      	000000	MARKXV          E  0  MARK XV                
    27	      	000000	ONLY16          E  0  TERMINATES 16 LINES    
    28	      	000000	PRINTER         E  0  PRINTER                
    29	      	177777	MACH12K         E -1  12K MACHINE            
    30	      	000000	COMS            E  0  COMNET                 
    31	      	000000	MGHS            E  0  MASGEN                 
    32	      	000000	OSUS            E  0  OHIO ST.               
    33	      	000000	DRIS            E  0  DRI                    
    34	      	000000	PDP10           E  0  PDP10                  
    35	      	000000	QUASISBOD       E  0  NEW START BAUD CODE    
    36	      	177777	DUALBASE        E -1  DUAL BASE              
    37	      	000000	NLMS            E  0  NLM                    
    38	      	000000	BAUD12          E  0  1200 BAUD LINE         
    39	      	000000	BAUD48          E  0  4800 BAUD  DEFAULT=2400
    40	      	000000	BAUD96          E  0  9600 BAUD              
PAGE 01  BSYM.VCD  06-APR-73  08:55:46.333

    41	      	000010	01000	MAXLINES	E	-(DUALBASE)*10-(#DUALBASE)*5
    42	      	002260	01010	TICKSPS		E	1200D	CLOCK TICKS/SEC
    43	      	000030	01020	ABZERO		E	30	A & B REGISTERS = ZERO
    44	      	000050	01030	AXZERO		E	50	A & X REGISTERS = ZERO
    45	      	000300	01040	SS12SET		E	300	SENSE SWITCHES 1 & 2 SET
    46	      	      	01050	*
    47	00000	001100	01060		JSS1	*
    48	00001	000000	
    49	00002	002000	01070		JMPM	CRASH
    50	00003	052156	
    51	00004	000000	01072		0
    52	00005	177777	01075	ZAPCIR	-1		PLEASE PLACE A ZAPPER IN THE THIS BUFFER (IF NON-NEG)
    53	00006	000000	01077		0; +MACHNO
    54	00007	000100	
    55	00010	      	01080		R	10	POWER FAILURE TRAP LOCATION AND ERROR COUNT FOR LINE 4
    56	00010	000000	01090		0; 0
    57	00011	000000	
    58	00012	100077	01100		EXC	77
    59	00013	040016	01110		INR	POWFAL
    60	00014	002000	01120		JMPM	CRASH
    61	00015	052156	
    62	00016	000000	01130	POWFAL	0		POWER FAILURE FLAG
    63	00017	      	01140		R	20
    64	00020	000021	01150	ZDET	21; 23; 25; 27; 31; 33; 35; 37
    65	00021	000023	
    66	00022	000025	
    67	00023	000027	
    68	00024	000031	
    69	00025	000033	
    70	00026	000035	
    71	00027	000037	
    72	00030	      	01160		I	*+6
    73	00036	      	01170		R	36
    74	00036	002000	01180		JMPM	RNG
    75	00037	001545	
    76	00040	002000	01190		JMPM	OUT0
    77	00041	001345	
    78	00042	002000	01200		JMPM	IN0
    79	00043	001425	
    80	00044	002000	01210		JMPM	OUT1
    81	00045	001353	
    82	00046	002000	01220		JMPM	IN1
    83	00047	001437	
    84	00050	002000	01230		JMPM	OUT2
    85	00051	001361	
    86	00052	002000	01240		JMPM	IN2
    87	00053	001451	
    88	00054	002000	01250		JMPM	OUT3
    89	00055	001367	
    90	00056	002000	01260		JMPM	IN3
    91	00057	001463	
    92	00060	002000	01280		JMPM	OUT4
    93	00061	001375	
    94	00062	002000	01290		JMPM	IN4
PAGE 01  BSYM.VCD  06-APR-73  08:55:46.833

    95	00063	001475	
    96	00064	002000	01300		JMPM	OUT5
    97	00065	001403	
    98	00066	002000	01310		JMPM	IN5
    99	00067	001507	
   100	00070	002000	01320		JMPM	OUT6
   101	00071	001411	
   102	00072	002000	01330		JMPM	IN6
   103	00073	001521	
   104	00074	002000	01340		JMPM	OUT7
   105	00075	001417	
   106	00076	002000	01350		JMPM	IN7
   107	00077	001533	
   108	00100	      	01440		R	100
   109	00100	000017	01450	MACHNO	+MACHNUM	MACHINE NUMBER
   110	00101	000501	01460		501		VERSION NUMBER
   111	00102	000000	01470	DLOCK	0		DEBUGGER LOCK
   112	00103	000000	01480	DSWICH	0		DOWNSTREAM SWITCH
   113	00104	000000	01490	CRSHCT	0		CRASH COUNT
   114	00105	000205	01500	N940L	(NUMHOST_6)+NLINES	NUMBER OF HOSTS AND 201 LINES
   115	00106	000013	01510	HOST0	+HOST0NUM	HOST ZERO NUMBER
   116	00107	177777	01520	UPDOWN	-1
   117	00110	000001	01540	HOST1	+HOST1NUM	HOST ONE NUMBER
   118	00111	177777	01550	UPDN1	-1
   119	      	000010	01570	SWTCHO	RPT1	MAXLINES
   120	00112	000000	01580		0
   121	00113	000000	
   122	00114	000000	
   123	00115	000000	
   124	00116	000000	
   125	00117	000000	
   126	00120	000000	
   127	00121	000000	
   128	00122	001027	01590	MACH	+NEIGH0; +NEIGH1; +NEIGH2; +NEIGH3; +NEIGH4
   129	00123	000013	
   130	00124	000027	
   131	00125	000006	
   132	00126	000014	
   133	00127	000000	01610		+NEIGH5; +NEIGH6; +NEIGH7
   134	00130	000000	
   135	00131	000000	
   136	00132	014436	01630	IOTA	+IOTAB0; +IOTAB1; +IOTAB2; +IOTAB3; +IOTAB4
   137	00133	014516	
   138	00134	014576	
   139	00135	014656	
   140	00136	014736	
   141	00137	015016	01650		+IOTAB5; +IOTAB6; +IOTAB7
   142	00140	015016	
   143	00141	015016	
   144	00142	015016	01670		+IOTABI
   145	00143	177772	01680	IOTABS	-2*NGRPS0; -2*NGRPS1; -2*NGRPS2; -2*NGRPS3; -2*NGRPS4
   146	00144	177772	
   147	00145	177772	
   148	00146	177772	
PAGE 01  BSYM.VCD  06-APR-73  08:55:54.800

   149	00147	177772	
   150	00150	000000	01700		-2*NGRPS5; -2*NGRPS6; -2*NGRPS7
   151	00151	000000	
   152	00152	000000	
   153	00153	177776	01720		-2
   154	00154	000003	01730	GROUPN	+NGRPS0; +NGRPS1; +NGRPS2; +NGRPS3; +NGRPS4
   155	00155	000003	
   156	00156	000003	
   157	00157	000003	
   158	00160	000003	
   159	00161	000000	01750		+NGRPS5; +NGRPS6; +NGRPS7
   160	00162	000000	
   161	00163	000000	
   162	00164	000000	01770	GROUPI	0
   163	00165	000003	01780		0+NGRPS0
   164	00166	000006	01790		0+NGRPS0+NGRPS1
   165	00167	000011	01800		0+NGRPS0+NGRPS1+NGRPS2
   166	00170	000014	01810		0+NGRPS0+NGRPS1+NGRPS2+NGRPS3
   167	00171	000017	01830		0+NGRPS0+NGRPS1+NGRPS2+NGRPS3+NGRPS4
   168	00172	000017	01840		0+NGRPS0+NGRPS1+NGRPS2+NGRPS3+NGRPS4+NGRPS5
   169	00173	000017	01850		0+NGRPS0+NGRPS1+NGRPS2+NGRPS3+NGRPS4+NGRPS5+NGRPS6
   170	00174	000031	01870		+NUMGRP-1
   171	00175	010000	01880	BORO	10000
   172	      	000010	01890	BORI	RPT1	MAXLINES
   173	00176	010000	01900		10000
   174	00177	010000	
   175	00200	010000	
   176	00201	010000	
   177	00202	010000	
   178	00203	010000	
   179	00204	010000	
   180	00205	010000	
   181	      	000011	01910	STOPIN	RPT1	MAXLINES+1
   182	00206	177777	01920		-1
   183	00207	177777	
   184	00210	177777	
   185	00211	177777	
   186	00212	177777	
   187	00213	177777	
   188	00214	177777	
   189	00215	177777	
   190	00216	177777	
   191	00217	      	01930	CRSAVE	R	*+10	ARRAY TO SAVE CRASH INFORMATION
   192	      	000010	02010	LINER	RPT1	MAXLINES+(#DUALBASE)
   193	00227	000000	02020		0
   194	00230	000000	
   195	00231	000000	
   196	00232	000000	
   197	00233	000000	
   198	00234	000000	
   199	00235	000000	
   200	00236	000000	
   201	00237	000001	02030	MASK	1; 2; 4; 10; 20; 40; 100; 200; 400; 1000; 2000; 4000
   202	00240	000002	
PAGE 01  BSYM.VCD  06-APR-73  08:56:01.016

   203	00241	000004	
   204	00242	000010	
   205	00243	000020	
   206	00244	000040	
   207	00245	000100	
   208	00246	000200	
   209	00247	000400	
   210	00250	001000	
   211	00251	002000	
   212	00252	004000	
   213	00253	010000	02040		10000; 20000; 40000; 100000
   214	00254	020000	
   215	00255	040000	
   216	00256	100000	
   217	00257	177776	02050	CMSK	177776; 177775; 177773; 177767; 177757; 177737; 177677; 177577; 177377
   218	00260	177775	
   219	00261	177773	
   220	00262	177767	
   221	00263	177757	
   222	00264	177737	
   223	00265	177677	
   224	00266	177577	
   225	00267	177377	
   226	00270	176777	02060		176777; 175777; 173777; 167777; 157777; 137777; 77777
   227	00271	175777	
   228	00272	173777	
   229	00273	167777	
   230	00274	157777	
   231	00275	137777	
   232	00276	077777	
   233	00277	000021	02070	RSF	21; 42; 104; 210; 231; 63; 146; 314; 335; 273; 167; 356
   234	00300	000042	
   235	00301	000104	
   236	00302	000210	
   237	00303	000231	
   238	00304	000063	
   239	00305	000146	
   240	00306	000314	
   241	00307	000335	
   242	00310	000273	
   243	00311	000167	
   244	00312	000356	
   245	      	000313	02080	FLAG	E	*
   246	      	      	02090	* GENBUF MUST BE FIRST   UNASSIGNED BUFFERS USE BIT 0 OF GENBUF
   247	      	      	02100	* IIN1 MUST BE SECOND FOR RT8B STOPIN SETTING
   248	00313	      	02110	GENBUF	R	*+1
   249	00314	      	02120	IIN	R	*+MAXLINES-(#DUALBASE)
   250	      	      	02130	* WARNING! RT6 REQUIRES CFOB TO BE THE LAST GROUP OF FLAGS
   251	00324	      	02140	CFOB	R	*+NUMGRP	CANDIDATES FOR OUTPUT BUFFER
   252	00356	      	02150	PCFOB	R	*+NUMGRP	PROCESS CAND. FOR OBUF.
   253	00410	      	02160	RSBF	R	*+NUMGRP	RESTRICTED BUFFER FLAGS
   254	00442	      	02170	LRESET	R	*+MAXLINES	LINE RESET
   255	00452	      	02180	TIME1	R	*+MAXLINES	TIME SINCE LAST RECORD MADE
   256	00462	      	02190	OSF	R	*+MAXLINES	OUTPUT SECTOR FLAGS
PAGE 01  BSYM.VCD  06-APR-73  08:56:02.316

   257	00472	      	02200	ISF	R	*+MAXLINES	INPUT SECTOR FLAGS
   258	00502	      	02210	CAOS	R	*+MAXLINES	CURRENT ASSEMBLING OUTPUT SECTOR
   259	00512	      	02220	COS	R	*+MAXLINES	CURRENT OUTPUT SECTOR
   260	00522	      	02230	CDIS	R	*+MAXLINES	CURRENT DISASSEMBLING INPUT SECTOR
   261	00532	      	02240	CIS	R	*+MAXLINES	CURRENT INPUT SECTOR
   262	00542	      	02250	LRR	R	*+MAXLINES	LAST RECORD RECIEVED
   263	00552	      	02260	ASDW	R	*+MAXLINES	ASSEMBLED WORD
   264	00562	      	02270	NDASW	R	*+MAXLINES	NEXT DISASSEMBLING WORD
   265	00572	      	02280	TSLR	R	*+MAXLINES	TIME SINCE LAST RESET
   266	00602	      	02290	QOVERT	R	*+MAXLINES	OUTPUT VERT CKSM.
   267	00612	      	02300	QODIAG	R	*+MAXLINES	OUTPUT DIAG. CKSM.
   268	00622	      	02310	QIFRST	R	*+MAXLINES	FIRST WORD OF RECORD
   269	00632	      	02320	QIVERT	R	*+MAXLINES	INPUT VERT. CKSM.
   270	00642	      	02330	QIDIAG	R	*+MAXLINES	INPUT DIAG. CKSM.
   271	00652	      	02340	IRC	R	*+MAXLINES	INPUT RECORD COUNT
   272	00662	      	02350	ORC	R	*+MAXLINES	OUTPUT RECORD COUNT
   273	00672	      	02360	SWTCHI	R	*+MAXLINES	SWITCH FOR INPUT CLEANUP
   274	00702	      	02370	LINSAT	R	*+MAXLINES	LINE SATURATION COUNTER
   275	00712	      	02380	INDATA	R	*+MAXLINES	INCOMMING DATA FLG FOR DIAGNOSTICS
   276	00722	      	02390	ORA	R	*+MAXLINES	OUTPUT RECORD ADDRESS
   277	00732	      	02400	IRA	R	*+MAXLINES	INPUT RECORD ADDRESS
   278	00742	      	02410	STOPO	R	*+MAXLINES-(#DUALBASE)
   279	00752	000001	02420	ACTPRT	1		ACTIVE PORTS
   280	      	000007	02430		RPT1	MAXLINES+(DUALBASE)
   281	00753	000000	02440		0
   282	00754	000000	
   283	00755	000000	
   284	00756	000000	
   285	00757	000000	
   286	00760	000000	
   287	00761	000000	
   288	00762	000000	02450	W1	0		WORKING STORAGE
   289	00763	000000	02460	W2	0
   290	00764	000000	02470	W3	0
   291	00765	000000	02480	W4	0
   292	00766	000000	02490	W5	0
   293	00767	000000	02500	W6	0
   294	00770	000000	02510	W7	0
   295	00771	000000	02520	W8	0
   296	00772	000000	02530	W9	0
   297	00773	000000	02540	W10	0
   298	00774	000000	02550	W11	0
   299	00775	000000	02560	W12	0
   300	00776	000000	02570	W13	0
   301	      	      	02580	*
   302	      	      	02590	*
   303	      	      	02600	* OSEC = ADDRESS OF OUTPUT SECTORS
   304	      	      	02610	* ISEC = ADDRESS OF INPUT SECTORS
   305	      	      	02620	* CHECK BR BEFORE CHANGING OSEC
   306	      	      	02630	*
   307	      	015732	02640	OSECADD	E	-(DUALBASE)*15732-(#DUALBASE)*12400
   308	      	020000	02650	ISECADD	E	-(DUALBASE)*20000-(#DUALBASE)*(OSECADD+200*MAXLINES)
   309	      	044000	02660	BUFADD	E	2*(ISECADD+200*MAXLINES)
   310	      	060000	02670	BUFEND	E	2*(-(DUALBASE)*30000-(#DUALBASE)*17733)
PAGE 01  BSYM.VCD  06-APR-73  08:56:02.966

   311	      	015732	02680	ENDCODE	E	OSECADD
   312	      	      	02690	*
   313	00777	015732	02700	OSEC	0+OSECADD; 200+OSECADD; 400+OSECADD; 600+OSECADD
   314	01000	016132	
   315	01001	016332	
   316	01002	016532	
   317	01003	016732	02720		1000+OSECADD; 1200+OSECADD; 1400+OSECADD; 1600+OSECADD
   318	01004	017132	
   319	01005	017332	
   320	01006	017532	
   321	01007	020000	02740	ISEC	0+ISECADD; 200+ISECADD; 400+ISECADD; 600+ISECADD
   322	01010	020200	
   323	01011	020400	
   324	01012	020600	
   325	01013	021000	02760		1000+ISECADD; 1200+ISECADD; 1400+ISECADD; 1600+ISECADD
   326	01014	021200	
   327	01015	021400	
   328	01016	021600	
   329	      	      	02780	* JUMP ADDRESS FOR ZERO DETECT, NORMAL JUMP
   330	      	      	02790	* ADDRESS, AND ADDRESS OF JUMP INSTRUCTION.
   331	      	      	02800	*
   332	01017	001433	02810	INZD	+IN0+6; +IN1+6; +IN2+6; +IN3+6
   333	01020	001445	
   334	01021	001457	
   335	01022	001471	
   336	01023	001503	02830		+IN4+6; +IN5+6; +IN6+6; +IN7+6
   337	01024	001515	
   338	01025	001527	
   339	01026	001541	
   340	01027	101425	02850	INNORM	+IN0+.; +IN1+.; +IN2+.; +IN3+.
   341	01030	101437	
   342	01031	101451	
   343	01032	101463	
   344	01033	101475	02870		+IN4+.; +IN5+.; +IN6+.; +IN7+.
   345	01034	101507	
   346	01035	101521	
   347	01036	101533	
   348	01037	001432	02890	INAD	+IN0+5; +IN1+5; +IN2+5; +IN3+5
   349	01040	001444	
   350	01041	001456	
   351	01042	001470	
   352	01043	001502	02910		+IN4+5; +IN5+5; +IN6+5; +IN7+5
   353	01044	001514	
   354	01045	001526	
   355	01046	001540	
   356	01047	001345	02930	OUTT	+OUT0; +OUT1; +OUT2; +OUT3
   357	01050	001353	
   358	01051	001361	
   359	01052	001367	
   360	01053	001375	02950		+OUT4; +OUT5; +OUT6; +OUT7
   361	01054	001403	
   362	01055	001411	
   363	01056	001417	
   364	01057	001425	02970	INTT	+IN0; +IN1; +IN2; +IN3
PAGE 01  BSYM.VCD  06-APR-73  08:56:04.000

   365	01060	001437	
   366	01061	001451	
   367	01062	001463	
   368	01063	001475	02990		+IN4; +IN5; +IN6; +IN7
   369	01064	001507	
   370	01065	001521	
   371	01066	001533	
   372	      	      	03010	*
   373	      	      	03020	*
   374	01067	      	03030		L	*+200
   375	01267	      	03040	CLNLOK	R	*+1
   376	01270	      	03050	UPDWN	R	*+1	UP-DOWN FLG.
   377	01271	      	03060	INA	R	*+1	SAVE LOCATIONS FOR INTERRUPTS
   378	01272	      	03070	CNA	R	*+1	SAVE LOCATIONS FOR CLEANUP
   379	01273	      	03080	CNB	R	*+1
   380	01274	      	03090	CNX	R	*+1
   381	01275	      	03100	FULL	R	*+1
   382	01276	000000	03110	NRW	0
   383	01277	000000	03120	NRW1	0
   384	01300	000000	03130	NRM	0
   385	01301	000000	03140	NRA	0
   386	01302	000000	03150	NRSW	0
   387	01303	000000	03160	SUCUNT	0
   388	01304	000000	03170	SCOUNT	0
   389	01305	000000	03180	SPORT	0
   390	01306	000000	03190	TCH	0
   391	01307	000000	03200	TIMSEC	0		TIME SINCE LAST ONE HALF SECOND
   392	01310	000000	03210	TIMMIN	0		TIME SINCE LAST MINUTE
   393	01311	000000	03220	TIMEH	0		HIGH ORDER REAL TIME
   394	01312	000000	03230	TIMEL	0		LOW ORDER REAL TIME
   395	01313	      	03240	UNHAP	R	*+1	UNHAPPY FLG.
   396	01314	      	03250	SACTIV	R	*+1	SUPERVISOR ACTIVE
   397	01315	      	03260	USWICH	R	*+1	UPSTREAM SWITCH
   398	01316	000000	03270	ICOUNT	0
   399	01317	000000	03280	IRING	0		INPUT RING ADDRESS
   400	01320	000000	03290	ORING	0		OUTPUT RING ADDRESS
   401	01321	000000	03310	ICNT1	0
   402	01322	000000	03320	IRING1	0
   403	01323	000000	03330	ORING1	0
   404	01324	      	03340	UNHAP1	R	*+1
   405	01325	      	03350	MICRJ2	R	*+1
   406	01326	      	03360	MICER2	R	*+1
   407	01327	      	03370	FULL1	R	*+1
   408	01330	      	03380	UPDWN1	R	*+1
   409	01331	      	03410	SPSTAT	R	*+1
   410	01332	      	03420	SIRING	R	*+1	SUPERVISOR INPUT RING
   411	01333	      	03430	SORING	R	*+1	SUPERVISOR OUTPUT RING
   412	01334	      	03440	PAGE0	R	*+1	SUPERVISOR PAGE 0
   413	01335	      	03450	SFULL	R	*+1
   414	01336	      	03460	STIME	R	*+1	SUPERVISOR TIME
   415	01337	000000	03480	MICRJC	0		MIC REJECT COUNT
   416	01340	000000	03490	MICERR	0		MIC ERROR COUNT
   417	01341	001400	03510	RD940	1400		HIGH ORDER BITS TO READ MIC
   418	01342	106262	03520	K1	106262
PAGE 01  BSYM.VCD  06-APR-73  08:56:04.733

   419	01343	157646	03530	K2	157646
   420	01344	101234	03540	K3	101234
   421	      	      	03560	*
   422	      	      	03570	*
   423	      	      	03580	*  201 CARD INTERRRUPT ROUTINES.
   424	      	      	03590	*
   425	01345	000000	03600	OUT0	0
   426	01346	103076	03610		OME	76,NDASW
   427	01347	000562	
   428	01350	100377	03620		EXC	377
   429	01351	001000	03630		JMP	OUT0+.
   430	01352	101345	
   431	01353	000000	03640	OUT1	0
   432	01354	103076	03650		OME	76,NDASW+1
   433	01355	000563	
   434	01356	100377	03660		EXC	377
   435	01357	001000	03670		JMP	OUT1+.
   436	01360	101353	
   437	01361	000000	03680	OUT2	0
   438	01362	103076	03690		OME	76,NDASW+239	01363	000564	
   440	01364	100377	03700		EXC	377
   441	01365	001000	03710		JMP	OUT2+.
   442	01366	101361	
   443	01367	000000	03720	OUT3	0
   444	01370	103076	03730		OME	76,NDASW+3
   445	01371	000565	
   446	01372	100377	03740		EXC	377
   447	01373	001000	03750		JMP	OUT3+.
   448	01374	101367	
   449	01375	000000	03770	OUT4	0
   450	01376	103076	03780		OME	76,NDASW+4
   451	01377	000566	
   452	01400	100377	03790		EXC	377
   453	01401	001000	03800		JMP	OUT4+.
   454	01402	101375	
   455	01403	000000	03810	OUT5	0
   456	01404	103076	03820		OME	76,NDASW+5
   457	01405	000567	
   458	01406	100377	03830		EXC	377
   459	01407	001000	03840		JMP	OUT5+.
   460	01410	101403	
   461	01411	000000	03850	OUT6	0
   462	01412	103076	03860		OME	76,NDASW+6
   463	01413	000570	
   464	01414	100377	03870		EXC	377
   465	01415	001000	03880		JMP	OUT6+.
   466	01416	101411	
   467	01417	000000	03890	OUT7	0
   468	01420	103076	03900		OME	76,NDASW+7
   469	01421	000571	
   470	01422	100377	03910		EXC	377
   471	01423	001000	03920		JMP	OUT7+.
   472	01424	101417	
PAGE 01  BSYM.VCD  06-APR-73  08:56:05.900

   473	01425	000000	03940	IN0	0
   474	01426	102076	03950		IME	76,ASDW
   475	01427	000552	
   476	01430	100377	03960		EXC	377
   477	01431	001000	03970		JMP	IN0+.
   478	01432	101425	
   479	01433	103077	03980		OME	77,ZDET
   480	01434	000020	
   481	01435	001000	03990		JMP	IN0+.
   482	01436	101425	
   483	01437	000000	04000	IN1	0
   484	01440	102076	04010		IME	76,ASDW+1
   485	01441	000553	
   486	01442	100377	04020		EXC	377
   487	01443	001000	04030		JMP	IN1+.
   488	01444	101437	
   489	01445	103077	04040		OME	77,ZDET+1
   490	01446	000021	
   491	01447	001000	04050		JMP	IN1+.
   492	01450	101437	
   493	01451	000000	04060	IN2	0
   494	01452	102076	04070		IME	76,ASDW+2
   495	01453	000554	
   496	01454	100377	04080		EXC	377
   497	01455	001000	04090		JMP	IN2+.
   498	01456	101451	
   499	01457	103077	04100		OME	77,ZDET+2
   500	01460	000022	
   501	01461	001000	04110		JMP	IN2+.
   502	01462	101451	
   503	01463	000000	04120	IN3	0
   504	01464	102076	04130		IME	76,ASDW+3
   505	01465	000555	
   506	01466	100377	04140		EXC	377
   507	01467	001000	04150		JMP	IN3+.
   508	01470	101463	
   509	01471	103077	04160		OME	77,ZDET+3
   510	01472	000023	
   511	01473	001000	04170		JMP	IN3+.
   512	01474	101463	
   513	01475	000000	04190	IN4	0
   514	01476	102076	04200		IME	76,ASDW+4
   515	01477	000556	
   516	01500	100377	04210		EXC	377
   517	01501	001000	04220		JMP	IN4+.
   518	01502	101475	
   519	01503	103077	04230		OME	77,ZDET+4
   520	01504	000024	
   521	01505	001000	04240		JMP	IN4+.
   522	01506	101475	
   523	01507	000000	04250	IN5	0
   524	01510	102076	04260		IME	76,ASDW+5
   525	01511	000557	
   526	01512	100377	04270		EXC	377
PAGE 01  BSYM.VCD  06-APR-73  08:56:06.450

   527	01513	001000	04280		JMP	IN5+.
   528	01514	101507	
   529	01515	103077	04290		OME	77,ZDET+5
   530	01516	000025	
   531	01517	001000	04300		JMP	IN5+.
   532	01520	101507	
   533	01521	000000	04310	IN6	0
   534	01522	102076	04320		IME	76,ASDW+6
   535	01523	000560	
   536	01524	100377	04330		EXC	377
   537	01525	001000	04340		JMP	IN6+.
   538	01526	101521	
   539	01527	103077	04350		OME	77,ZDET+6
   540	01530	000026	
   541	01531	001000	04360		JMP	IN6+.
   542	01532	101521	
   543	01533	000000	04370	IN7	0
   544	01534	102076	04380		IME	76,ASDW+7
   545	01535	000561	
   546	01536	100377	04390		EXC	377
   547	01537	001000	04400		JMP	IN7+.
   548	01540	101533	
   549	01541	103077	04410		OME	77,ZDET+7
   550	01542	000027	
   551	01543	001000	04420		JMP	IN7+.
   552	01544	101533	
   553	      	      	04440	*
   554	      	      	04450	*
   555	      	      	04460	*  RING DRIVER:  RUNS THE CLOCK AND THE QUASI-INTERRUPT CODE.
   556	      	      	04470	*
   557	01545	000000	04480	RNG	0
   558	01546	051271	04490		STA	INA
   559	01547	041312	04500		INR	TIMEL
   560	01550	011312	04510		LDA	TIMEL
   561	01551	003010	04520		XAZ	BUMPTH	BUMP TIME HIGH
   562	01552	002035	
   563	01553	011267	04530		LDA	CLNLOK
   564	01554	001010	04540		JAZ	RNG1
   565	01555	001562	
   566	01556	011271	04550		LDA	INA
   567	01557	100377	04560		EXC	377
   568	01560	001000	04570		JMP	RNG+.
   569	01561	101545	
   570	01562	005201	04580	RNG1	COM	,A
   571	01563	051267	04590		STA	CLNLOK
   572	01564	011545	04600		LDA	RNG
   573	01565	050001	04610		STA	CLENRT+1
   574	01566	100377	04620		EXC	377
   575	01567	011271	04630		LDA	INA
   576	      	      	04640	* CLEANUP FOR 201 INTERRUPTS
   577	01570	051272	04650		STA	CNA
   578	01571	061273	04660		STB	CNB
   579	01572	071274	04670		STX	CNX
   580	01573	005004	04680	CLNOUT	TZX
PAGE 01  BSYM.VCD  06-APR-73  09:08:11.833

   581	01574	011345	04690		LDA	OUT0
   582	01575	001002	04700		JAP	QIO
   583	01576	001641	
   584	01577	011353	04710		LDA	OUT1
   585	01600	151361	04720		ANA	OUT2
   586	01601	151367	04730		ANA	OUT3
   587	01602	151375	04750		ANA	OUT4
   588	01603	151403	04760		ANA	OUT5
   589	01604	151411	04770		ANA	OUT6
   590	01605	151417	04780		ANA	OUT7
   591	01606	001004	04800		JAN	CLENIN
   592	01607	002036	
   593	01610	005104	04810		INC	,X
   594	01611	011353	04820		LDA	OUT1
   595	01612	001002	04830		JAP	QIO
   596	01613	001641	
   597	01614	005144	04840		IXR
   598	01615	011361	04850		LDA	OUT2
   599	01616	001002	04860		JAP	QIO
   600	01617	001641	
   601	01620	005144	04870		IXR
   602	01621	011367	04890		LDA	OUT3
   603	01622	001002	04900		JAP	QIO
   604	01623	001641	
   605	01624	005144	04910		IXR
   606	01625	011375	04920		LDA	OUT4
   607	01626	001002	04930		JAP	QIO
   608	01627	001641	
   609	01630	005144	04940		IXR
   610	01631	011403	04950		LDA	OUT5
   611	01632	001002	04960		JAP	QIO
   612	01633	001641	
   613	01634	005144	04970		IXR
   614	01635	011411	04980		LDA	OUT6
   615	01636	001002	04990		JAP	QIO
   616	01637	001641	
   617	01640	005144	05000		IXR
   618	      	      	05020	* OUTPUT INTERRUPT CLEANUP ROUTINE  LINE NUMBER IN X
   619	01641	005041	05030	QIO	TXA
   620	01642	121067	05040		ADD	=OUTT
   621	01643	005012	05050		TAB
   622	01644	005201	05060		COM	,A
   623	01645	026000	05070		LDB	0,6
   624	01646	056000	05080		STA	0,6
   625	01647	015112	05090		LDA	SWTCHO,5
   626	01650	001004	05100		JAN	QOH
   627	01651	001765	
   628	01652	004241	05110		LRLA	1
   629	01653	001004	05120		JAN	QOE
   630	01654	001717	
   631	01655	004241	05130		LRLA	1
   632	01656	001004	05140		JAN	QOC
   633	01657	001703	
   634	      	      	05150	* OUTPUT ONES, AFTER WHICH CHECK BIT 3 OF SWITCH
PAGE 01  BSYM.VCD  06-APR-73  09:08:16.933

   635	      	      	05160	* TO SEE WHETHER TO OUTPUT RESET PATTERN OR RETRANSMIT
   636	01660	025662	05170		LDB	ORC,5
   637	01661	001020	05180		JBZ	QOB
   638	01662	001671	
   639	01663	005322	05190		DBR
   640	01664	065662	05200		STB	ORC,5
   641	01665	005201	05210	QOA	COM	,A
   642	01666	055562	05220		STA	NDASW,5
   643	01667	001000	05230		JMP	CLNOUT
   644	01670	001573	
   645	01671	004241	05240	QOB	LRLA	1
   646	01672	001004	05250		JAN	QOK
   647	01673	002022	
   648	01674	004343	05260		LSRA	3
   649	01675	111070	05270		ORA	=20000
   650	01676	055112	05280		STA	SWTCHO,5
   651	01677	011071	05290		LDA	=5253
   652	01700	055562	05300		STA	NDASW,5
   653	01701	001000	05310		JMP	CLNOUT
   654	01702	001573	
   655	      	      	05320	* TRANSMIT SECOND HALF OF RESET PATTERN, THEN CHECK BIT 4 OF SWITCH
   656	      	      	05330	* TO SEE WHETHER TO OUTPUT ONES OR LOOK FOR NEW RECORD
   657	01703	010100	05340	QOC	LDA	MACHNO
   658	01704	055562	05350		STA	NDASW,5
   659	01705	015112	05360		LDA	SWTCHO,5
   660	01706	004244	05370		LRLA	4
   661	01707	001004	05380		JAN	QOJ+2
   662	01710	002016	
   663	01711	005001	05390		TZA
   664	01712	055112	05400		STA	SWTCHO,5
   665	01713	011072	05410		LDA	=41
   666	01714	055662	05420		STA	ORC,5
   667	01715	001000	05430		JMP	CLNOUT
   668	01716	001573	
   669	      	      	05440	* LOOK FOR NEW RECORD TO OUTPUT
   670	01717	015512	05450	QOE	LDA	COS,5
   671	01720	151073	05460		ANA	=3
   672	01721	005012	05470		TAB
   673	01722	015462	05480		LDA	OSF,5
   674	01723	156277	05490		ANA	RSF,6
   675	01724	146237	05500		SUB	MASK,6
   676	01725	001010	05510		JAZ	QOF
   677	01726	001737	
   678	01727	001004	05520		JAN	QOA
   679	01730	001665	
   680	01731	011074	05530		LDA	=40
   681	01732	055662	05540		STA	ORC,5
   682	01733	011075	05550		LDA	=10000
   683	01734	055112	05560		STA	SWTCHO,5
   684	01735	001000	05570		JMP	QOA
   685	01736	001665	
   686	      	      	05580	* NEW RECORD FOUND   SEND IT OUT
   687	01737	045512	05590	QOF	INR	COS,5
   688	01740	015462	05600		LDA	OSF,5
PAGE 01  BSYM.VCD  06-APR-73  09:08:18.783

   689	01741	116243	05610		ORA	MASK+4,6
   690	01742	055462	05620		STA	OSF,5
   691	01743	005021	05630		TBA
   692	01744	004245	05640	QOG	LRLA	5
   693	01745	125777	05650		ADD	OSEC,5
   694	01746	005012	05660		TAB
   695	01747	005111	05670		IAR
   696	01750	055722	05680		STA	ORA,5
   697	01751	016000	05690		LDA	0,6
   698	01752	115542	05700		ORA	LRR,5
   699	01753	055562	05710		STA	NDASW,5
   700	01754	055602	05720		STA	QOVERT,5
   701	01755	055612	05730		STA	QODIAG,5
   702	01756	004346	05740		LSRA	6
   703	01757	151076	05750		ANA	=37
   704	01760	055662	05760		STA	ORC,5
   705	01761	011077	05770		LDA	=.
   706	01762	055112	05780		STA	SWTCHO,5
   707	01763	001000	05790		JMP	CLNOUT
   708	01764	001573	
   709	      	      	05800	* OUTPUT NEXT WORD OF RECORD
   710	01765	015662	05810	QOH	LDA	ORC,5
   711	01766	001010	05820		JAZ	QOJ
   712	01767	002014	
   713	01770	005311	05830		DAR
   714	01771	055662	05840		STA	ORC,5
   715	01772	001010	05850		JAZ	QOI
   716	01773	002010	
   717	01774	025722	05860		LDB	ORA,5
   718	01775	045722	05870		INR	ORA,5
   719	01776	016000	05880		LDA	0,6
   720	01777	055562	05890		STA	NDASW,5
   721	02000	135602	05900		ERA	QOVERT,5
   722	02001	055602	05910		STA	QOVERT,5
   723	02002	015612	05920		LDA	QODIAG,5
   724	02003	004241	05930		LRLA	1
   725	02004	135562	05940		ERA	NDASW,5
   726	02005	055612	05950		STA	QODIAG,5
   727	02006	001000	05960		JMP	CLNOUT
   728	02007	001573	
   729	      	      	05970	* SECOND TO LAST WORD OF RECORD
   730	02010	015602	05980	QOI	LDA	QOVERT,5
   731	02011	055562	05990		STA	NDASW,5
   732	02012	001000	06000		JMP	QOI-6
   733	02013	002002	
   734	      	      	06010	* LAST WORD OF RECORD
   735	02014	015612	06020	QOJ	LDA	QODIAG,5
   736	02015	055562	06030		STA	NDASW,5
   737	02016	011100	06040		LDA	=40000
   738	02017	055112	06050		STA	SWTCHO,5
   739	02020	001000	06060		JMP	CLNOUT
   740	02021	001573	
   741	      	      	06070	* CHECK FOR RETRANSMIT
   742	02022	011100	06080	QOK	LDA	=40000
PAGE 01  BSYM.VCD  06-APR-73  09:08:19.316

   743	02023	055112	06090		STA	SWTCHO,5
   744	02024	015462	06100		LDA	OSF,5
   745	02025	131101	06110		ERA	=377
   746	02026	005311	06120		DAR
   747	02027	001002	06130		JAP	QOE
   748	02030	001717	
   749	02031	015512	06140		LDA	COS,5
   750	02032	151073	06150		ANA	=3
   751	02033	001000	06160		JMP	QOG
   752	02034	001744	
   753	      	      	06170	*
   754	      	      	06180	*
   755	      	      	06190	*  BUMP TIME - HIGH WORD
   756	02035	041311	06200	BUMPTH	INR	TIMEH
   757	      	      	06210	*
   758	      	      	06220	*
   759	      	      	06230	* 201 INPUT INTERRUPT CLEANUP
   760	02036	005004	06240	CLENIN	TZX
   761	02037	011425	06250		LDA	IN0
   762	02040	001002	06260		JAP	QII
   763	02041	002104	
   764	02042	011437	06270		LDA	IN1
   765	02043	151451	06280		ANA	IN2
   766	02044	151463	06290		ANA	IN3
   767	02045	151475	06310		ANA	IN4
   768	02046	151507	06320		ANA	IN5
   769	02047	151521	06330		ANA	IN6
   770	02050	151533	06340		ANA	IN7
   771	02051	001004	06360		JAN	CLENDN
   772	02052	000000	
   773	02053	005144	06370		IXR
   774	02054	011437	06380		LDA	IN1
   775	02055	001002	06390		JAP	QII
   776	02056	002104	
   777	02057	005144	06400		IXR
   778	02060	011451	06410		LDA	IN2
   779	02061	001002	06420		JAP	QII
   780	02062	002104	
   781	02063	005144	06430		IXR
   782	02064	011463	06450		LDA	IN3
   783	02065	001002	06460		JAP	QII
   784	02066	002104	
   785	02067	005144	06470		IXR
   786	02070	011475	06480		LDA	IN4
   787	02071	001002	06490		JAP	QII
   788	02072	002104	
   789	02073	005144	06500		IXR
   790	02074	011507	06510		LDA	IN5
   791	02075	001002	06520		JAP	QII
   792	02076	002104	
   793	02077	005144	06530		IXR
   794	02100	011521	06540		LDA	IN6
   795	02101	001002	06550		JAP	QII
   796	02102	002104	
PAGE 01  BSYM.VCD  06-APR-73  09:08:57.433

   797	02103	005144	06560		IXR
   798	02104	005041	06580	QII	TXA
   799	02105	121102	06590		ADD	=INTT
   800	02106	005012	06600		TAB
   801	02107	005201	06610		COM	,A
   802	02110	026000	06620		LDB	0,6
   803	02111	056000	06630		STA	0,6
   804	02112	015672	06640		LDA	SWTCHI,5
   805	02113	001004	06650		JAN	QID
   806	02114	002254	
   807	02115	004241	06660		LRLA	1
   808	02116	001004	06670		JAN	QIC
   809	02117	002174	
   810	02120	004241	06680		LRLA	1
   811	02121	001004	06690		JAN	QIB
   812	02122	002144	
   813	      	      	06700	* SWITCH A IS SET BY INIT
   814	      	      	06710	* LOOK FOR FIRST HALF OF RESET PATTERN
   815	02123	015552	06720	QIA	LDA	ASDW,5
   816	02124	131071	06730		ERA	=5253
   817	02125	001010	06740		JAZ	*+4
   818	02126	002131	
   819	02127	001000	06750		JMP	QIRZ
   820	02130	031000	
   821	02131	011312	06760		LDA	TIMEL
   822	02132	145572	06770		SUB	TSLR,5
   823	02133	001004	06780		JAN	*+5
   824	02134	002140	
   825	02135	141103	06790		SUB	=2*TICKSPS
   826	02136	001004	06800		JAN	QIRZ
   827	02137	031000	
   828	      	      	06810	* SET B SWITCH
   829	02140	011070	06820		LDA	=20000
   830	02141	055672	06830		STA	SWTCHI,5
   831	02142	001000	06840		JMP	QIRZ
   832	02143	031000	
   833	      	      	06850	* LOOK FOR SECOND HALF OF RESET PATTERN
   834	      	      	06860	* SET C SWITCH
   835	02144	011100	06870	QIB	LDA	=40000
   836	02145	055672	06880		STA	SWTCHI,5
   837	02146	015552	06890		LDA	ASDW,5
   838	02147	135122	06900		ERA	MACH,5
   839	02150	001010	06910		JAZ	*+4
   840	02151	002154	
   841	02152	001000	06920		JMP	QIRZ
   842	02153	031000	
   843	02154	021104	06930		LDB	=7
   844	02155	065542	06940		STB	LRR,5
   845	02156	055472	06950		STA	ISF,5
   846	02157	055522	06960		STA	CDIS,5
   847	02160	045442	06970		INR	LRESET,5
   848	02161	055462	06980		STA	OSF,5
   849	02162	055512	06990		STA	COS,5
   850	02163	055502	07000		STA	CAOS,5
PAGE 01  BSYM.VCD  06-APR-73  09:08:58.866

   851	02164	011312	07010		LDA	TIMEL
   852	02165	055572	07020		STA	TSLR,5
   853	02166	011105	07030		LDA	=4000
   854	02167	055112	07040		STA	SWTCHO,5
   855	02170	011072	07050		LDA	=41
   856	02171	055662	07060		STA	ORC,5
   857	02172	001000	07070		JMP	QIRN
   858	02173	100000	
   859	      	      	07080	* LOOK FOR FIRST WORD OF RECORD
   860	02174	015552	07090	QIC	LDA	ASDW,5
   861	02175	050000	07100		STA	QW
   862	02176	151106	07110		ANA	=74000
   863	02177	135176	07120		ERA	BORI,5
   864	02200	005311	07130		DAR
   865	02201	001002	07140		JAP	QIA
   866	02202	002123	
   867	02203	010000	07150		LDA	QW
   868	02204	055622	07160		STA	QIFRST,5
   869	02205	055632	07170		STA	QIVERT,5
   870	02206	055642	07180		STA	QIDIAG,5
   871	02207	004343	07190		LSRA	3
   872	02210	005012	07200		TAB
   873	02211	004343	07210		LSRA	3
   874	02212	151076	07220		ANA	=37
   875	02213	055652	07230		STA	IRC,5
   876	02214	005321	07240		DEC	B,A
   877	02215	145542	07250		SUB	LRR,5
   878	02216	151107	07260		ANA	=4
   879	02217	001010	07270		JAZ	*+6
   880	02220	002225	
   881	      	      	07280	* SET D SWITCH
   882	02221	011077	07290	QICC	LDA	=100000
   883	02222	055672	07300		STA	SWTCHI,5
   884	02223	001000	07310		JMP	QIRN
   885	02224	100000	
   886	02225	005021	07320		TBA
   887	02226	151073	07330		ANA	=3
   888	02227	005012	07340		TAB
   889	02230	015472	07350		LDA	ISF,5
   890	02231	156237	07360		ANA	MASK,6
   891	02232	005311	07370		DAR
   892	02233	001002	07380		JAP	QICC
   893	02234	002221	
   894	      	      	07390	* SET E SWITCH
   895	02235	011110	07400		LDA	=140000
   896	02236	055672	07410		STA	SWTCHI,5
   897	02237	065532	07420		STB	CIS,5
   898	02240	005041	07430		TXA
   899	02241	121111	07440		ADD	=ISEC
   900	02242	005012	07450		TAB
   901	02243	015532	07460		LDA	CIS,5
   902	02244	004245	07470		LRLA	5
   903	02245	126000	07480		ADD	0,6
   904	02246	055732	07490		STA	IRA,5
PAGE 01  BSYM.VCD  06-APR-73  09:09:18.750

   905	02247	005012	07500		TAB
   906	02250	010000	07510		LDA	QW
   907	02251	056000	07520		STA	0,6
   908	02252	001000	07530		JMP	QIRN
   909	02253	100000	
   910	02254	004241	07540	QID	LRLA	1
   911	02255	001004	07550		JAN	QIE
   912	02256	002310	
   913	      	      	07560	* INPUT RECORD WITHOUT STORING IT IN SECTOR
   914	02257	015652	07570		LDA	IRC,5
   915	02260	001010	07580		JAZ	QIDD
   916	02261	002277	
   917	02262	005313	07590		DEC	A,AB
   918	02263	055652	07600		STA	IRC,5
   919	02264	015552	07610		LDA	ASDW,5
   920	02265	135632	07620		ERA	QIVERT,5
   921	02266	055632	07630		STA	QIVERT,5
   922	02267	015642	07640		LDA	QIDIAG,5
   923	02270	004241	07650		LRLA	1
   924	02271	135552	07660		ERA	ASDW,5
   925	02272	055642	07670		STA	QIDIAG,5
   926	02273	001020	07680		JBZ	QIRZ
   927	02274	031000	
   928	02275	001000	07690		JMP	QIRN
   929	02276	100000	
   930	      	      	07700	* LAST WORD OF RECORD   SET C SWITCH
   931	02277	011100	07710	QIDD	LDA	=40000
   932	02300	055672	07720		STA	SWTCHI,5
   933	02301	015552	07730		LDA	ASDW,5
   934	02302	135642	07740		ERA	QIDIAG,5
   935	02303	115632	07750		ORA	QIVERT,5
   936	02304	001010	07760		JAZ	QIF
   937	02305	100000	
   938	02306	001000	07770		JMP	QIRN
   939	02307	100000	
   940	      	      	07780	* INPUT RECORD AND STORE IN SECTOR
   941	02310	015652	07790	QIE	LDA	IRC,5
   942	02311	001010	07800		JAZ	QIEE
   943	02312	000000	
   944	02313	005311	07810		DAR
   945	02314	055652	07820		STA	IRC,5
   946	02315	045732	07830		INR	IRA,5
   947	02316	025732	07840		LDB	IRA,5
   948	02317	015552	07850		LDA	ASDW,5
   949	02320	056000	07860		STA	0,6
   950	02321	135632	07870		ERA	QIVERT,5
   951	02322	055632	07880		STA	QIVERT,5
   952	02323	015642	07890		LDA	QIDIAG,5
   953	02324	004241	07900		LRLA	1
   954	02325	136000	07910		ERA	0,6
   955	02326	055642	07920		STA	QIDIAG,5
   956	02327	015652	07930		LDA	IRC,5
   957	02330	001010	07940		JAZ	QIRZ
   958	02331	031000	
PAGE 01  BSYM.VCD  06-APR-73  09:09:23.400

   959	02332	001000	07950		JMP	QIRN
   960	02333	100000	
   961	      	      	07960	* LAST WORD OF RECORD   SET C SWITCH
   962	02334	011100	07970	QIEE	LDA	=40000
   963	02335	055672	07980		STA	SWTCHI,5
   964	02336	015552	07990		LDA	ASDW,5
   965	02337	135642	08000		ERA	QIDIAG,5
   966	02340	115632	08010		ORA	QIVERT,5
   967	02341	001010	08020		JAZ	*+5
   968	02342	002346	
   969	02343	045227	08030		INR	LINER,5
   970	02344	001000	08040		JMP	QIRN
   971	02345	100000	
   972	02346	025532	08050		LDB	CIS,5
   973	02347	015472	08060		LDA	ISF,5
   974	02350	116237	08070		ORA	MASK,6
   975	02351	055472	08080		STA	ISF,5
   976	      	      	08090	* PHYSICAL RECORD HAS GOOD CHECKSUMS
   977	      	      	08100	* CHECK ACKNOWLEDGEMENT AND SEE WHICH OUTPUT SECTORS CAN BE CLEARED
   978	02352	015502	08110	QIF	LDA	CAOS,5
   979	02353	005313	08120		DEC	A,AB
   980	02354	145622	08130		SUB	QIFRST,5
   981	02355	151104	08140		ANA	=7
   982	02356	001010	08150		JAZ	QIG
   983	02357	000000	
   984	02360	055632	08160		STA	QIVERT,5
   985	02361	141107	08170		SUB	=4
   986	02362	001002	08180		JAP	QIRN
   987	02363	100000	
   988	02364	005021	08190		TBA
   989	02365	004542	08200		LLSR	2
   990	02366	015632	08210		LDA	QIVERT,5
   991	02367	004442	08220		LLRL	2
   992	02370	005012	08230		TAB
   993	02371	015462	08240		LDA	OSF,5
   994	02372	156273	08250		ANA	RSF-4,6
   995	02373	055462	08260	QIG	STA	OSF,5
   996	02374	005041	08270	QIRN	TXA
   997	02375	121112	08280		ADD	=INZD
   998	02376	005012	08290		TAB
   999	02377	016010	08300		LDA	INNORM-INZD,6
  1000	02400	001000	08310		JMP	*+6
  1001	02401	002406	
  1002	02402	005041	08320	QIRZ	TXA
  1003	02403	121112	08330		ADD	=INZD
  1004	02404	005012	08340		TAB
  1005	02405	016000	08350		LDA	0,6
  1006	02406	026020	08360		LDB	INAD-INZD,6
  1007	02407	056000	08370		STA	0,6
  1008	02410	001000	08380		JMP	CLENIN
  1009	02411	002036	
  1010	02412	000000	08390	QW	0
  1011	02413	011272	08400	CLENDN	LDA	CNA
  1012	02414	021273	08410		LDB	CNB
PAGE 01  BSYM.VCD  06-APR-73  09:09:27.800

  1013	02415	031274	08420		LDX	CNX
  1014	02416	100077	08430		EXC	77
  1015	02417	041267	08440		INR	CLNLOK
  1016	02420	100377	08450		EXC	377
  1017	02421	001000	08460	CLENRT	JMP	*
  1018	02422	002421	
  1019	      	      	08470	*
  1020	      	      	08480	*
  1021	      	      	08490	*  BUFFER ARRAYS
  1022	      	      	08500	*	POINTERS
  1023	      	      	08510	*
  1024	      	000740	08520	NBUF	E	-(DUALBASE)*740-(#DUALBASE)*464
  1025	      	      	08530	*
  1026	02423	044000	08540		+BUFADD
  1027	      	000740	08550	BUFERS	RPT1	NBUF
  1028	02424	044000	08560		+BUFADD
  1029	02425	044000	
  1030	02426	044000	
  1031	02427	044000	
  1032	02430	044000	
  1033	02431	044000	
  1034	02432	044000	
  1035	02433	044000	
  1036	02434	044000	
  1037	02435	044000	
  1038	02436	044000	
  1039	02437	044000	
  1040	02440	044000	
  1041	02441	044000	
  1042	02442	044000	
  1043	02443	044000	
  1044	02444	044000	
  1045	02445	044000	
  1046	02446	044000	
  1047	02447	044000	
  1048	02450	044000	
  1049	02451	044000	
  1050	02452	044000	
  1051	02453	044000	
  1052	02454	044000	
  1053	02455	044000	
  1054	02456	044000	
  1055	02457	044000	
  1056	02460	044000	
  1057	02461	044000	
  1058	02462	044000	
  1059	02463	044000	
  1060	02464	044000	
  1061	02465	044000	
  1062	02466	044000	
  1063	02467	044000	
  1064	02470	044000	
  1065	02471	044000	
  1066	02472	044000	
PAGE 01  BSYM.VCD  06-APR-73  09:09:28.733

  1067	02473	044000	
  1068	02474	044000	
  1069	02475	044000	
  1070	02476	044000	
  1071	02477	044000	
  1072	02500	044000	
  1073	02501	044000	
  1074	02502	044000	
  1075	02503	044000	
  1076	02504	044000	
  1077	02505	044000	
  1078	02506	044000	
  1079	02507	044000	
  1080	02510	044000	
  1081	02511	044000	
  1082	02512	044000	
  1083	02513	044000	
  1084	02514	044000	
  1085	02515	044000	
  1086	02516	044000	
  1087	02517	044000	
  1088	02520	044000	
  1089	02521	044000	
  1090	02522	044000	
  1091	02523	044000	
  1092	02524	044000	
  1093	02525	044000	
  1094	02526	044000	
  1095	02527	044000	
  1096	02530	044000	
  1097	02531	044000	
  1098	02532	044000	
  1099	02533	044000	
  1100	02534	044000	
  1101	02535	044000	
  1102	02536	044000	
  1103	02537	044000	
  1104	02540	044000	
  1105	02541	044000	
  1106	02542	044000	
  1107	02543	044000	
  1108	02544	044000	
  1109	02545	044000	
  1110	02546	044000	
  1111	02547	044000	
  1112	02550	044000	
  1113	02551	044000	
  1114	02552	044000	
  1115	02553	044000	
  1116	02554	044000	
  1117	02555	044000	
  1118	02556	044000	
  1119	02557	044000	
  1120	02560	044000	
PAGE 01  BSYM.VCD  06-APR-73  09:09:29.283

  1121	02561	044000	
  1122	02562	044000	
  1123	02563	044000	
  1124	02564	044000	
  1125	02565	044000	
  1126	02566	044000	
  1127	02567	044000	
  1128	02570	044000	
  1129	02571	044000	
  1130	02572	044000	
  1131	02573	044000	
  1132	02574	044000	
  1133	02575	044000	
  1134	02576	044000	
  1135	02577	044000	
  1136	02600	044000	
  1137	02601	044000	
  1138	02602	044000	
  1139	02603	044000	
  1140	02604	044000	
  1141	02605	044000	
  1142	02606	044000	
  1143	02607	044000	
  1144	02610	044000	
  1145	02611	044000	
  1146	02612	044000	
  1147	02613	044000	
  1148	02614	044000	
  1149	02615	044000	
  1150	02616	044000	
  1151	02617	044000	
  1152	02620	044000	
  1153	02621	044000	
  1154	02622	044000	
  1155	02623	044000	
  1156	02624	044000	
  1157	02625	044000	
  1158	02626	044000	
  1159	02627	044000	
  1160	02630	044000	
  1161	02631	044000	
  1162	02632	044000	
  1163	02633	044000	
  1164	02634	044000	
  1165	02635	044000	
  1166	02636	044000	
  1167	02637	044000	
  1168	02640	044000	
  1169	02641	044000	
  1170	02642	044000	
  1171	02643	044000	
  1172	02644	044000	
  1173	02645	044000	
  1174	02646	044000	
PAGE 01  BSYM.VCD  06-APR-73  09:09:30.300

  1175	02647	044000	
  1176	02650	044000	
  1177	02651	044000	
  1178	02652	044000	
  1179	02653	044000	
  1180	02654	044000	
  1181	02655	044000	
  1182	02656	044000	
  1183	02657	044000	
  1184	02660	044000	
  1185	02661	044000	
  1186	02662	044000	
  1187	02663	044000	
  1188	02664	044000	
  1189	02665	044000	
  1190	02666	044000	
  1191	02667	044000	
  1192	02670	044000	
  1193	02671	044000	
  1194	02672	044000	
  1195	02673	044000	
  1196	02674	044000	
  1197	02675	044000	
  1198	02676	044000	
  1199	02677	044000	
  1200	02700	044000	
  1201	02701	044000	
  1202	02702	044000	
  1203	02703	044000	
  1204	02704	044000	
  1205	02705	044000	
  1206	02706	044000	
  1207	02707	044000	
  1208	02710	044000	
  1209	02711	044000	
  1210	02712	044000	
  1211	02713	044000	
  1212	02714	044000	
  1213	02715	044000	
  1214	02716	044000	
  1215	02717	044000	
  1216	02720	044000	
  1217	02721	044000	
  1218	02722	044000	
  1219	02723	044000	
  1220	02724	044000	
  1221	02725	044000	
  1222	02726	044000	
  1223	02727	044000	
  1224	02730	044000	
  1225	02731	044000	
  1226	02732	044000	
  1227	02733	044000	
  1228	02734	044000	
PAGE 01  BSYM.VCD  06-APR-73  09:09:30.600

  1229	02735	044000	
  1230	02736	044000	
  1231	02737	044000	
  1232	02740	044000	
  1233	02741	044000	
  1234	02742	044000	
  1235	02743	044000	
  1236	02744	044000	
  1237	02745	044000	
  1238	02746	044000	
  1239	02747	044000	
  1240	02750	044000	
  1241	02751	044000	
  1242	02752	044000	
  1243	02753	044000	
  1244	02754	044000	
  1245	02755	044000	
  1246	02756	044000	
  1247	02757	044000	
  1248	02760	044000	
  1249	02761	044000	
  1250	02762	044000	
  1251	02763	044000	
  1252	02764	044000	
  1253	02765	044000	
  1254	02766	044000	
  1255	02767	044000	
  1256	02770	044000	
  1257	02771	044000	
  1258	02772	044000	
  1259	02773	044000	
  1260	02774	044000	
  1261	02775	044000	
  1262	02776	044000	
  1263	02777	044000	
  1264	03000	044000	
  1265	03001	044000	
  1266	03002	044000	
  1267	03003	044000	
  1268	03004	044000	
  1269	03005	044000	
  1270	03006	044000	
  1271	03007	044000	
  1272	03010	044000	
  1273	03011	044000	
  1274	03012	044000	
  1275	03013	044000	
  1276	03014	044000	
  1277	03015	044000	
  1278	03016	044000	
  1279	03017	044000	
  1280	03020	044000	
  1281	03021	044000	
  1282	03022	044000	
PAGE 01  BSYM.VCD  06-APR-73  09:09:31.000

  1283	03023	044000	
  1284	03024	044000	
  1285	03025	044000	
  1286	03026	044000	
  1287	03027	044000	
  1288	03030	044000	
  1289	03031	044000	
  1290	03032	044000	
  1291	03033	044000	
  1292	03034	044000	
  1293	03035	044000	
  1294	03036	044000	
  1295	03037	044000	
  1296	03040	044000	
  1297	03041	044000	
  1298	03042	044000	
  1299	03043	044000	
  1300	03044	044000	
  1301	03045	044000	
  1302	03046	044000	
  1303	03047	044000	
  1304	03050	044000	
  1305	03051	044000	
  1306	03052	044000	
  1307	03053	044000	
  1308	03054	044000	
  1309	03055	044000	
  1310	03056	044000	
  1311	03057	044000	
  1312	03060	044000	
  1313	03061	044000	
  1314	03062	044000	
  1315	03063	044000	
  1316	03064	044000	
  1317	03065	044000	
  1318	03066	044000	
  1319	03067	044000	
  1320	03070	044000	
  1321	03071	044000	
  1322	03072	044000	
  1323	03073	044000	
  1324	03074	044000	
  1325	03075	044000	
  1326	03076	044000	
  1327	03077	044000	
  1328	03100	044000	
  1329	03101	044000	
  1330	03102	044000	
  1331	03103	044000	
  1332	03104	044000	
  1333	03105	044000	
  1334	03106	044000	
  1335	03107	044000	
  1336	03110	044000	
PAGE 01  BSYM.VCD  06-APR-73  09:09:31.283

  1337	03111	044000	
  1338	03112	044000	
  1339	03113	044000	
  1340	03114	044000	
  1341	03115	044000	
  1342	03116	044000	
  1343	03117	044000	
  1344	03120	044000	
  1345	03121	044000	
  1346	03122	044000	
  1347	03123	044000	
  1348	03124	044000	
  1349	03125	044000	
  1350	03126	044000	
  1351	03127	044000	
  1352	03130	044000	
  1353	03131	044000	
  1354	03132	044000	
  1355	03133	044000	
  1356	03134	044000	
  1357	03135	044000	
  1358	03136	044000	
  1359	03137	044000	
  1360	03140	044000	
  1361	03141	044000	
  1362	03142	044000	
  1363	03143	044000	
  1364	03144	044000	
  1365	03145	044000	
  1366	03146	044000	
  1367	03147	044000	
  1368	03150	044000	
  1369	03151	044000	
  1370	03152	044000	
  1371	03153	044000	
  1372	03154	044000	
  1373	03155	044000	
  1374	03156	044000	
  1375	03157	044000	
  1376	03160	044000	
  1377	03161	044000	
  1378	03162	044000	
  1379	03163	044000	
  1380	03164	044000	
  1381	03165	044000	
  1382	03166	044000	
  1383	03167	044000	
  1384	03170	044000	
  1385	03171	044000	
  1386	03172	044000	
  1387	03173	044000	
  1388	03174	044000	
  1389	03175	044000	
  1390	03176	044000	
PAGE 01  BSYM.VCD  06-APR-73  09:09:32.583

  1391	03177	044000	
  1392	03200	044000	
  1393	03201	044000	
  1394	03202	044000	
  1395	03203	044000	
  1396	03204	044000	
  1397	03205	044000	
  1398	03206	044000	
  1399	03207	044000	
  1400	03210	044000	
  1401	03211	044000	
  1402	03212	044000	
  1403	03213	044000	
  1404	03214	044000	
  1405	03215	044000	
  1406	03216	044000	
  1407	03217	044000	
  1408	03220	044000	
  1409	03221	044000	
  1410	03222	044000	
  1411	03223	044000	
  1412	03224	044000	
  1413	03225	044000	
  1414	03226	044000	
  1415	03227	044000	
  1416	03230	044000	
  1417	03231	044000	
  1418	03232	044000	
  1419	03233	044000	
  1420	03234	044000	
  1421	03235	044000	
  1422	03236	044000	
  1423	03237	044000	
  1424	03240	044000	
  1425	03241	044000	
  1426	03242	044000	
  1427	03243	044000	
  1428	03244	044000	
  1429	03245	044000	
  1430	03246	044000	
  1431	03247	044000	
  1432	03250	044000	
  1433	03251	044000	
  1434	03252	044000	
  1435	03253	044000	
  1436	03254	044000	
  1437	03255	044000	
  1438	03256	044000	
  1439	03257	044000	
  1440	03260	044000	
  1441	03261	044000	
  1442	03262	044000	
  1443	03263	044000	
  1444	03264	044000	
PAGE 01  BSYM.VCD  06-APR-73  09:09:32.850

  1445	03265	044000	
  1446	03266	044000	
  1447	03267	044000	
  1448	03270	044000	
  1449	03271	044000	
  1450	03272	044000	
  1451	03273	044000	
  1452	03274	044000	
  1453	03275	044000	
  1454	03276	044000	
  1455	03277	044000	
  1456	03300	044000	
  1457	03301	044000	
  1458	03302	044000	
  1459	03303	044000	
  1460	03304	044000	
  1461	03305	044000	
  1462	03306	044000	
  1463	03307	044000	
  1464	03310	044000	
  1465	03311	044000	
  1466	03312	044000	
  1467	03313	044000	
  1468	03314	044000	
  1469	03315	044000	
  1470	03316	044000	
  1471	03317	044000	
  1472	03320	044000	
  1473	03321	044000	
  1474	03322	044000	
  1475	03323	044000	
  1476	03324	044000	
  1477	03325	044000	
  1478	03326	044000	
  1479	03327	044000	
  1480	03330	044000	
  1481	03331	044000	
  1482	03332	044000	
  1483	03333	044000	
  1484	03334	044000	
  1485	03335	044000	
  1486	03336	044000	
  1487	03337	044000	
  1488	03340	044000	
  1489	03341	044000	
  1490	03342	044000	
  1491	03343	044000	
  1492	03344	044000	
  1493	03345	044000	
  1494	03346	044000	
  1495	03347	044000	
  1496	03350	044000	
  1497	03351	044000	
  1498	03352	044000	
PAGE 01  BSYM.VCD  06-APR-73  09:09:33.166

  1499	03353	044000	
  1500	03354	044000	
  1501	03355	044000	
  1502	03356	044000	
  1503	03357	044000	
  1504	03360	044000	
  1505	03361	044000	
  1506	03362	044000	
  1507	03363	044000	
  1508	03364	060000	08570	ENDBUF	+BUFEND
  1509	      	      	08580	*
  1510	      	      	08590	*
  1511	      	      	08600	*	COUNT
  1512	      	      	08610	*
  1513	03365	      	08620		R	*+NBUF+1
  1514	      	      	08630	*
  1515	      	      	08640	*
  1516	      	      	08650	*	FLAGS
  1517	      	      	08660	*
  1518	      	      	08670	* 940 PORTS	SINGLE BASE: 0-277,  DUAL BASE: 0-377
  1519	04326	000020	08680		20; 0; 21; 0; 22; 0; 23; 0; 24; 0; 25; 0; 26; 0; 27; 0
  1520	04327	000000	
  1521	04330	000021	
  1522	04331	000000	
  1523	04332	000022	
  1524	04333	000000	
  1525	04334	000023	
  1526	04335	000000	
  1527	04336	000024	
  1528	04337	000000	
  1529	04340	000025	
  1530	04341	000000	
  1531	04342	000026	
  1532	04343	000000	
  1533	04344	000027	
  1534	04345	000000	
  1535	04346	000030	08690		30; 0; 31; 0; 32; 0; 33; 0; 34; 0; 35; 0; 36; 0; 37; 0
  1536	04347	000000	
  1537	04350	000031	
  1538	04351	000000	
  1539	04352	000032	
  1540	04353	000000	
  1541	04354	000033	
  1542	04355	000000	
  1543	04356	000034	
  1544	04357	000000	
  1545	04360	000035	
  1546	04361	000000	
  1547	04362	000036	
  1548	04363	000000	
  1549	04364	000037	
  1550	04365	000000	
  1551	04366	000040	08700		40; 0; 41; 0; 42; 0; 43; 0; 44; 0; 45; 0; 46; 0; 47; 0
  1552	04367	000000	
PAGE 01  BSYM.VCD  06-APR-73  09:09:33.516

  1553	04370	000041	
  1554	04371	000000	
  1555	04372	000042	
  1556	04373	000000	
  1557	04374	000043	
  1558	04375	000000	
  1559	04376	000044	
  1560	04377	000000	
  1561	04400	000045	
  1562	04401	000000	
  1563	04402	000046	
  1564	04403	000000	
  1565	04404	000047	
  1566	04405	000000	
  1567	04406	000050	08710		50; 0; 51; 0; 52; 0; 53; 0; 54; 0; 55; 0; 56; 0; 57; 0
  1568	04407	000000	
  1569	04410	000051	
  1570	04411	000000	
  1571	04412	000052	
  1572	04413	000000	
  1573	04414	000053	
  1574	04415	000000	
  1575	04416	000054	
  1576	04417	000000	
  1577	04420	000055	
  1578	04421	000000	
  1579	04422	000056	
  1580	04423	000000	
  1581	04424	000057	
  1582	04425	000000	
  1583	04426	000060	08720		60; 0; 61; 0; 62; 0; 63; 0; 64; 0; 65; 0; 66; 0; 67; 0
  1584	04427	000000	
  1585	04430	000061	
  1586	04431	000000	
  1587	04432	000062	
  1588	04433	000000	
  1589	04434	000063	
  1590	04435	000000	
  1591	04436	000064	
  1592	04437	000000	
  1593	04440	000065	
  1594	04441	000000	
  1595	04442	000066	
  1596	04443	000000	
  1597	04444	000067	
  1598	04445	000000	
  1599	04446	000070	08730		70; 0; 71; 0; 72; 0; 73; 0; 74; 0; 75; 0; 76; 0; 77; 0
  1600	04447	000000	
  1601	04450	000071	
  1602	04451	000000	
  1603	04452	000072	
  1604	04453	000000	
  1605	04454	000073	
  1606	04455	000000	
PAGE 01  BSYM.VCD  06-APR-73  09:09:33.800

  1607	04456	000074	
  1608	04457	000000	
  1609	04460	000075	
  1610	04461	000000	
  1611	04462	000076	
  1612	04463	000000	
  1613	04464	000077	
  1614	04465	000000	
  1615	04466	000100	08740		100; 0; 101; 0; 102; 0; 103; 0; 104; 0; 105; 0; 106; 0; 107; 0
  1616	04467	000000	
  1617	04470	000101	
  1618	04471	000000	
  1619	04472	000102	
  1620	04473	000000	
  1621	04474	000103	
  1622	04475	000000	
  1623	04476	000104	
  1624	04477	000000	
  1625	04500	000105	
  1626	04501	000000	
  1627	04502	000106	
  1628	04503	000000	
  1629	04504	000107	
  1630	04505	000000	
  1631	04506	000110	08750		110; 0; 111; 0; 112; 0; 113; 0; 114; 0; 115; 0; 116; 0; 117; 0
  1632	04507	000000	
  1633	04510	000111	
  1634	04511	000000	
  1635	04512	000112	
  1636	04513	000000	
  1637	04514	000113	
  1638	04515	000000	
  1639	04516	000114	
  1640	04517	000000	
  1641	04520	000115	
  1642	04521	000000	
  1643	04522	000116	
  1644	04523	000000	
  1645	04524	000117	
  1646	04525	000000	
  1647	04526	000120	08760		120; 0; 121; 0; 122; 0; 123; 0; 124; 0; 125; 0; 126; 0; 127; 0
  1648	04527	000000	
  1649	04530	000121	
  1650	04531	000000	
  1651	04532	000122	
  1652	04533	000000	
  1653	04534	000123	
  1654	04535	000000	
  1655	04536	000124	
  1656	04537	000000	
  1657	04540	000125	
  1658	04541	000000	
  1659	04542	000126	
  1660	04543	000000	
PAGE 01  BSYM.VCD  06-APR-73  09:09:34.116

  1661	04544	000127	
  1662	04545	000000	
  1663	04546	000130	08770		130; 0; 131; 0; 132; 0; 133; 0; 134; 0; 135; 0; 136; 0; 137; 0
  1664	04547	000000	
  1665	04550	000131	
  1666	04551	000000	
  1667	04552	000132	
  1668	04553	000000	
  1669	04554	000133	
  1670	04555	000000	
  1671	04556	000134	
  1672	04557	000000	
  1673	04560	000135	
  1674	04561	000000	
  1675	04562	000136	
  1676	04563	000000	
  1677	04564	000137	
  1678	04565	000000	
  1679	04566	000140	08780		140; 0; 141; 0; 142; 0; 143; 0; 144; 0; 145; 0; 146; 0; 147; 0
  1680	04567	000000	
  1681	04570	000141	
  1682	04571	000000	
  1683	04572	000142	
  1684	04573	000000	
  1685	04574	000143	
  1686	04575	000000	
  1687	04576	000144	
  1688	04577	000000	
  1689	04600	000145	
  1690	04601	000000	
  1691	04602	000146	
  1692	04603	000000	
  1693	04604	000147	
  1694	04605	000000	
  1695	04606	000150	08790		150; 0; 151; 0; 152; 0; 153; 0; 154; 0; 155; 0; 156; 0; 157; 0
  1696	04607	000000	
  1697	04610	000151	
  1698	04611	000000	
  1699	04612	000152	
  1700	04613	000000	
  1701	04614	000153	
  1702	04615	000000	
  1703	04616	000154	
  1704	04617	000000	
  1705	04620	000155	
  1706	04621	000000	
  1707	04622	000156	
  1708	04623	000000	
  1709	04624	000157	
  1710	04625	000000	
  1711	04626	000160	08810		160; 0; 161; 0; 162; 0; 163; 0; 164; 0; 165; 0; 166; 0; 167; 0
  1712	04627	000000	
  1713	04630	000161	
  1714	04631	000000	
PAGE 01  BSYM.VCD  06-APR-73  09:09:34.483

  1715	04632	000162	
  1716	04633	000000	
  1717	04634	000163	
  1718	04635	000000	
  1719	04636	000164	
  1720	04637	000000	
  1721	04640	000165	
  1722	04641	000000	
  1723	04642	000166	
  1724	04643	000000	
  1725	04644	000167	
  1726	04645	000000	
  1727	04646	000170	08820		170; 0; 171; 0; 172; 0; 173; 0; 174; 0; 175; 0; 176; 0; 177; 0
  1728	04647	000000	
  1729	04650	000171	
  1730	04651	000000	
  1731	04652	000172	
  1732	04653	000000	
  1733	04654	000173	
  1734	04655	000000	
  1735	04656	000174	
  1736	04657	000000	
  1737	04660	000175	
  1738	04661	000000	
  1739	04662	000176	
  1740	04663	000000	
  1741	04664	000177	
  1742	04665	000000	
  1743	04666	000200	08830		200; 0; 201; 0; 202; 0; 203; 0; 204; 0; 205; 0; 206; 0; 207; 0
  1744	04667	000000	
  1745	04670	000201	
  1746	04671	000000	
  1747	04672	000202	
  1748	04673	000000	
  1749	04674	000203	
  1750	04675	000000	
  1751	04676	000204	
  1752	04677	000000	
  1753	04700	000205	
  1754	04701	000000	
  1755	04702	000206	
  1756	04703	000000	
  1757	04704	000207	
  1758	04705	000000	
  1759	04706	000210	08840		210; 0; 211; 0; 212; 0; 213; 0; 214; 0; 215; 0; 216; 0; 217; 0
  1760	04707	000000	
  1761	04710	000211	
  1762	04711	000000	
  1763	04712	000212	
  1764	04713	000000	
  1765	04714	000213	
  1766	04715	000000	
  1767	04716	000214	
  1768	04717	000000	
PAGE 01  BSYM.VCD  06-APR-73  09:09:35.533

  1769	04720	000215	
  1770	04721	000000	
  1771	04722	000216	
  1772	04723	000000	
  1773	04724	000217	
  1774	04725	000000	
  1775	      	      	08860	*
  1776	      	      	08870	* SUPERVISORY CHANNELS	SINGLE BASE: 300-311,  DUAL BASE: 400-417
  1777	      	      	08880	* FLOW CONTROL CHANNELS	SINGLE BASE: 312-323,  DUAL BASE: 420-437
  1778	      	000400	08890	SUPBUFFERS	E	-(DUALBASE)*400-(#DUALBASE)*300
  1779	      	000220	08900	X	E	(SUPBUFFERS_-1)+20
  1780	04726	000220	08910		+X; 1
  1781	04727	000001	
  1782	04730	000300	08920		(NLINES>1)*(X+20*NGRPS0); (NLINES>1)*2
  1783	04731	000002	
  1784	04732	000360	08930		(NLINES>2)*(X+20*(NGRPS0+NGRPS1)); (NLINES>2)*3
  1785	04733	000003	
  1786	04734	000440	08940		(NLINES>3)*(X+20*(NGRPS0+NGRPS1+NGRPS2)); (NLINES>3)*4
  1787	04735	000004	
  1788	04736	000520	08950		(NLINES>4)*(X+20*(NGRPS0+NGRPS1+NGRPS2+NGRPS3)); (NLINES>4)*5
  1789	04737	000005	
  1790	04740	000000	08970		(NLINES>5)*(X+20*(NGRPS0+NGRPS1+NGRPS2+NGRPS3+NGRPS4)); (NLINES>5)*6
  1791	04741	000000	
  1792	04742	000000	08980		(NLINES>6)*(X+20*(NGRPS0+NGRPS1+NGRPS2+NGRPS3+NGRPS4+NGRPS5)); (NLINES>6)*7
  1793	04743	000000	
  1794	04744	000000	08990		(NLINES>7)*(X+20*(NGRPS0+NGRPS1+NGRPS2+NGRPS3+NGRPS4+NGRPS5+NGRPS6)); (NLINES>7)*10
  1795	04745	000000	
  1796	      	      	09010	*
  1797	      	000221	09020	X	E	X+1
  1798	      	000017	09030	Y	E	-(DUALBASE)*17-(#DUALBASE)*6
  1799	      	000000	09040	Z	E	-(DUALBASE)*0-(#DUALBASE)*1
  1800	04746	000221	09050		+X; +Y
  1801	04747	000017	
  1802	      	000017	09060	Y	E	Y+Z
  1803	04750	000301	09070		(NLINES>1)*(X+20*NGRPS0); (NLINES>1)*Y
  1804	04751	000017	
  1805	      	000017	09080	Y	E	Y+Z
  1806	04752	000361	09090		(NLINES>2)*(X+20*(NGRPS0+NGRPS1)); (NLINES>2)*Y
  1807	04753	000017	
  1808	      	000017	09100	Y	E	Y+Z
  1809	04754	000441	09110		(NLINES>3)*(X+20*(NGRPS0+NGRPS1+NGRPS2)); (NLINES>3)*Y
  1810	04755	000017	
  1811	      	000017	09120	Y	E	Y+Z
  1812	04756	000521	09130		(NLINES>4)*(X+20*(NGRPS0+NGRPS1+NGRPS2+NGRPS3)); (NLINES>4)*Y
  1813	04757	000017	
  1814	      	000017	09150	Y	E	Y+Z
  1815	04760	000000	09160		(NLINES>5)*(X+20*(NGRPS0+NGRPS1+NGRPS2+NGRPS3+NGRPS4)); (NLINES>5)*Y
  1816	04761	000000	
  1817	      	000017	09170	Y	E	Y+Z
  1818	04762	000000	09180		(NLINES>6)*(X+20*(NGRPS0+NGRPS1+NGRPS2+NGRPS3+NGRPS4+NGRPS5)); (NLINES>6)*Y
  1819	04763	000000	
  1820	      	000017	09190	Y	E	Y+Z
  1821	04764	000000	09200		(NLINES>7)*(X+20*(NGRPS0+NGRPS1+NGRPS2+NGRPS3+NGRPS4+NGRPS5+NGRPS6)); (NLINES>7)*Y
  1822	04765	000000	
PAGE 01  BSYM.VCD  06-APR-73  09:09:52.933

  1823	      	      	09220	*
  1824	      	      	09230	*  SPARES	SINGLE BASE: 324-463,  DUAL BASE: 440-737
  1825	      	000300	09240		RPT1	NBUF-(SUPBUFFERS+4*MAXLINES)
  1826	04766	000000	09250		0
  1827	04767	000000	
  1828	04770	000000	
  1829	04771	000000	
  1830	04772	000000	
  1831	04773	000000	
  1832	04774	000000	
  1833	04775	000000	
  1834	04776	000000	
  1835	04777	000000	
  1836	05000	000000	
  1837	05001	000000	
  1838	05002	000000	
  1839	05003	000000	
  1840	05004	000000	
  1841	05005	000000	
  1842	05006	000000	
  1843	05007	000000	
  1844	05010	000000	
  1845	05011	000000	
  1846	05012	000000	
  1847	05013	000000	
  1848	05014	000000	
  1849	05015	000000	
  1850	05016	000000	
  1851	05017	000000	
  1852	05020	000000	
  1853	05021	000000	
  1854	05022	000000	
  1855	05023	000000	
  1856	05024	000000	
  1857	05025	000000	
  1858	05026	000000	
  1859	05027	000000	
  1860	05030	000000	
  1861	05031	000000	
  1862	05032	000000	
  1863	05033	000000	
  1864	05034	000000	
  1865	05035	000000	
  1866	05036	000000	
  1867	05037	000000	
  1868	05040	000000	
  1869	05041	000000	
  1870	05042	000000	
  1871	05043	000000	
  1872	05044	000000	
  1873	05045	000000	
  1874	05046	000000	
  1875	05047	000000	
  1876	05050	000000	
PAGE 01  BSYM.VCD  06-APR-73  09:09:53.250

  1877	05051	000000	
  1878	05052	000000	
  1879	05053	000000	
  1880	05054	000000	
  1881	05055	000000	
  1882	05056	000000	
  1883	05057	000000	
  1884	05060	000000	
  1885	05061	000000	
  1886	05062	000000	
  1887	05063	000000	
  1888	05064	000000	
  1889	05065	000000	
  1890	05066	000000	
  1891	05067	000000	
  1892	05070	000000	
  1893	05071	000000	
  1894	05072	000000	
  1895	05073	000000	
  1896	05074	000000	
  1897	05075	000000	
  1898	05076	000000	
  1899	05077	000000	
  1900	05100	000000	
  1901	05101	000000	
  1902	05102	000000	
  1903	05103	000000	
  1904	05104	000000	
  1905	05105	000000	
  1906	05106	000000	
  1907	05107	000000	
  1908	05110	000000	
  1909	05111	000000	
  1910	05112	000000	
  1911	05113	000000	
  1912	05114	000000	
  1913	05115	000000	
  1914	05116	000000	
  1915	05117	000000	
  1916	05120	000000	
  1917	05121	000000	
  1918	05122	000000	
  1919	05123	000000	
  1920	05124	000000	
  1921	05125	000000	
  1922	05126	000000	
  1923	05127	000000	
  1924	05130	000000	
  1925	05131	000000	
  1926	05132	000000	
  1927	05133	000000	
  1928	05134	000000	
  1929	05135	000000	
  1930	05136	000000	
PAGE 01  BSYM.VCD  06-APR-73  09:09:53.483

  1931	05137	000000	
  1932	05140	000000	
  1933	05141	000000	
  1934	05142	000000	
  1935	05143	000000	
  1936	05144	000000	
  1937	05145	000000	
  1938	05146	000000	
  1939	05147	000000	
  1940	05150	000000	
  1941	05151	000000	
  1942	05152	000000	
  1943	05153	000000	
  1944	05154	000000	
  1945	05155	000000	
  1946	05156	000000	
  1947	05157	000000	
  1948	05160	000000	
  1949	05161	000000	
  1950	05162	000000	
  1951	05163	000000	
  1952	05164	000000	
  1953	05165	000000	
  1954	05166	000000	
  1955	05167	000000	
  1956	05170	000000	
  1957	05171	000000	
  1958	05172	000000	
  1959	05173	000000	
  1960	05174	000000	
  1961	05175	000000	
  1962	05176	000000	
  1963	05177	000000	
  1964	05200	000000	
  1965	05201	000000	
  1966	05202	000000	
  1967	05203	000000	
  1968	05204	000000	
  1969	05205	000000	
  1970	05206	000000	
  1971	05207	000000	
  1972	05210	000000	
  1973	05211	000000	
  1974	05212	000000	
  1975	05213	000000	
  1976	05214	000000	
  1977	05215	000000	
  1978	05216	000000	
  1979	05217	000000	
  1980	05220	000000	
  1981	05221	000000	
  1982	05222	000000	
  1983	05223	000000	
  1984	05224	000000	
PAGE 01  BSYM.VCD  06-APR-73  09:09:53.716

  1985	05225	000000	
  1986	05226	000000	
  1987	05227	000000	
  1988	05230	000000	
  1989	05231	000000	
  1990	05232	000000	
  1991	05233	000000	
  1992	05234	000000	
  1993	05235	000000	
  1994	05236	000000	
  1995	05237	000000	
  1996	05240	000000	
  1997	05241	000000	
  1998	05242	000000	
  1999	05243	000000	
  2000	05244	000000	
  2001	05245	000000	
  2002	05246	000000	
  2003	05247	000000	
  2004	05250	000000	
  2005	05251	000000	
  2006	05252	000000	
  2007	05253	000000	
  2008	05254	000000	
  2009	05255	000000	
  2010	05256	000000	
  2011	05257	000000	
  2012	05260	000000	
  2013	05261	000000	
  2014	05262	000000	
  2015	05263	000000	
  2016	05264	000000	
  2017	05265	000000	
  2018	      	      	09260	*
  2019	      	000000	09270	BP	E	0
  2020	      	000742	09280	BC	E	NBUF+2
  2021	      	001702	09290	BF	E	BC+NBUF
  2022	      	      	09300	*
  2023	      	      	09310	*
  2024	      	      	09320	* A FATAL ERROR HAS OCCURRED
  2025	      	      	09330	* SAVE ERROR NUMBER AND (SOMETIMES) MARK LOCATION
  2026	      	      	09340	* OF ROUTINE IN WHICH ERROR WAS DETECTED
  2027	05266	000000	09350	CRASH	0
  2028	05267	100077	09360		EXC	77
  2029	05270	010104	09370		LDA	CRSHCT
  2030	05271	040104	09380		INR	CRSHCT
  2031	05272	151073	09390		ANA	=3
  2032	05273	005014	09400		TAX
  2033	05274	027030	09410		LDB	CRASH
  2034	05275	065217	09420		STB	CRSAVE,5
  2035	05276	016000	09430		LDA	0,6
  2036	05277	055223	09440		STA	CRSAVE+4,5
  2037	05300	010111	09460		LDA	UPDN1
  2038	05301	001004	09470		JAN	*+4
PAGE 01  BSYM.VCD  06-APR-73  09:09:58.166

  2039	05302	005305	
  2040	05303	002000	09480		JMPM	CR941A
  2041	05304	014104	
  2042	05305	010107	09500		LDA	UPDOWN
  2043	05306	001004	09510		JAN	INIT
  2044	05307	033000	
  2045	05310	002000	09550		JMPM	CR940A
  2046	05311	000000	
  2047	05312	005005	09560		COP	,AX
  2048	05313	005311	09570		DAR
  2049	05314	001004	09580		JAN	*-1
  2050	05315	005313	
  2051	05316	021075	09590		LDB	=10000
  2052	05317	015000	09600	CRCOPY	LDA	0,5
  2053	05320	103236	09610		OBR	36
  2054	05321	103137	09620		OAR	37
  2055	05322	010250	09630		LDA	MASK+11
  2056	05323	103135	09640		OAR	35
  2057	05324	005145	09650		INC	X,AX
  2058	05325	005122	09660		IBR
  2059	05326	141070	09670		SUB	=20000
  2060	05327	001004	09680		JAN	CRCOPY
  2061	05330	053501	
  2062	05331	005002	10060	INIT	TZB
  2063	05332	031113	10070		LDX	=BUFERS+BC+NBUF
  2064	05333	011114	10080		LDA	=NBUF
  2065	05334	005311	10090		DAR
  2066	05335	005344	10100		DXR
  2067	05336	065000	10110		STB	0,5
  2068	05337	001002	10120		JAP	*-3
  2069	05340	005334	
  2070	05341	060016	10130		STB	POWFAL
  2071	05342	060112	10140		STB	SWTCHO
  2072	05343	060113	10150		STB	SWTCHO+1
  2073	05344	060114	10160		STB	SWTCHO+2
  2074	05345	060115	10170		STB	SWTCHO+3
  2075	05346	060116	10180		STB	SWTCHO+4
  2076	05347	060117	10200		STB	SWTCHO+5
  2077	05350	060120	10210		STB	SWTCHO+6
  2078	05351	060121	10220		STB	SWTCHO+7
  2079	05352	031115	10240		LDX	=MICERR+1
  2080	05353	011116	10250		LDA	=MICERR-CLNLOK
  2081	05354	005344	10260		DXR
  2082	05355	005311	10270		DAR
  2083	05356	065000	10280		STB	0,5
  2084	05357	001002	10290		JAP	*-3
  2085	05360	005354	
  2086	05361	031117	10300		LDX	=W13+1
  2087	05362	011120	10310		LDA	=W13-FLAG
  2088	05363	005344	10320		DXR
  2089	05364	005311	10330		DAR
  2090	05365	065000	10340		STB	0,5
  2091	05366	001002	10350		JAP	*-3
  2092	05367	005363	
PAGE 01  BSYM.VCD  06-APR-73  09:10:11.216

  2093	05370	040752	10360		INR	ACTPRT
  2094	05371	030132	10370		LDX	IOTA
  2095	05372	011101	10380		LDA	=BR-IOTAB0-1
  2096	05373	065400	10390		STB	BR-IOTAB0,5
  2097	05374	005144	10400		IXR
  2098	05375	005311	10410		DAR
  2099	05376	001002	10420		JAP	*-3
  2100	05377	005373	
  2101	05400	011121	10430		LDA	=17
  2102	05401	103177	10440		OAR	77
  2103	05402	005311	10450		DAR
  2104	05403	001002	10460		JAP	*-2
  2105	05404	005401	
  2106	05405	021122	10470		LDB	=NLINES
  2107	05406	001020	10480	EN	JBZ	SEN
  2108	05407	152240	
  2109	05410	005322	10490		DBR
  2110	05411	005021	10500		TBA
  2111	05412	004241	10510		LRLA	1
  2112	05413	110243	10520		ORA	MASK+4
  2113	05414	103177	10530		OAR	77
  2114	05415	001000	10540		JMP	EN
  2115	05416	053475	
  2116	      	      	10550	* EXC 76 RESETS OVERRUN FLIPFLOP, EXC 276 MAKES SURE THE CLOCK IS OK
  2117	05417	100076	10560	SEN	EXC	76
  2118	05420	100276	10570		EXC	276
  2119	05421	100377	10580		EXC	377
  2120	      	005422	10590	EXEC	E	*
  2121	05422	002000	10690		JMPM	DAVTEL
  2122	05423	012323	
  2123	05424	002000	10700		JMPM	RMAKE
  2124	05425	100000	
  2125	05426	002000	10710		JMPM	DVTEL
  2126	05427	013425	
  2127	05430	002000	10730		JMPM	RTD
  2128	05431	000000	
  2129	05432	002000	10740		JMPM	SEC
  2130	05433	000000	
  2131	05434	001000	10750		JMP	EXEC
  2132	05435	005422	
  2133	      	      	10760	* RECORD TEARDOWN  PROCESSES PHYSICAL RECORDS FROM 201 LINES
  2134	05436	000000	10770	RTD	0
  2135	05437	011122	10780		LDA	=NLINES
  2136	05440	057031	10790		STA	R1
  2137	      	      	10800	* CHECK EACH LINE FOR SOMETHING TO DO
  2138	05441	027031	10810	RT1	LDB	R1
  2139	05442	001020	10820		JBZ	RTD+.
  2140	05443	100000	
  2141	05444	005322	10830		DBR
  2142	05445	067031	10840		STB	R1
  2143	05446	016522	10850		LDA	CDIS,6
  2144	05447	151073	10860		ANA	=3
  2145	05450	005014	10870		TAX
  2146	05451	016472	10880		LDA	ISF,6
PAGE 01  BSYM.VCD  06-APR-73  09:10:26.500

  2147	05452	155237	10890		ANA	MASK,5
  2148	05453	001010	10900		JAZ	RT1
  2149	05454	000000	
  2150	      	      	10910	* RECORD FOUND   GET SECTOR ADDRESS
  2151	05455	005021	10920		TBA
  2152	05456	121111	10930		ADD	=ISEC
  2153	05457	005012	10940		TAB
  2154	05460	005041	10950		TXA
  2155	05461	004245	10960		LRLA	5
  2156	05462	126000	10970		ADD	0,6
  2157	05463	005014	10980		TAX
  2158	05464	027031	10990		LDB	R1
  2159	05465	005111	11000		IAR
  2160	05466	004241	11010		LRLA	1
  2161	05467	050000	11020		STA	R3
  2162	05470	015000	11030		LDA	0,5
  2163	05471	004345	11040		LSRA	5
  2164	05472	151123	11050		ANA	=76
  2165	05473	005211	11060		COM	A,A
  2166	05474	121107	11070		ADD	=4
  2167	05475	057032	11080		STA	R2
  2168	05476	015000	11090		LDA	0,5
  2169	05477	004343	11100		LSRA	3
  2170	05500	151104	11110		ANA	=7
  2171	05501	056542	11120		STA	LRR,6
  2172	      	      	11130	* PROCESS LOGICAL RECORD
  2173	05502	002000	11140	RT2	JMPM	RT7
  2174	05503	000000	
  2175	05504	002010	11150		JAZM	CRASH
  2176	05505	052156	
  2177	05506	005211	11160		COM	A,A
  2178	05507	050000	11170		STA	R4
  2179	05510	002000	11180		JMPM	RT7
  2180	05511	000000	
  2181	05512	005012	11190		TAB
  2182	05513	141124	11200		SUB	=2
  2183	05514	057033	11210		STA	R5
  2184	05515	005021	11220		TBA
  2185	05516	027031	11230		LDB	R1
  2186	05517	126132	11240		ADD	IOTA,6
  2187	05520	050000	11250		STA	R6
  2188	05521	005012	11260		TAB
  2189	05522	016000	11270		LDA	0,6
  2190	05523	121125	11280		ADD	=BUFERS
  2191	05524	150276	11290		ANA	CMSK+17
  2192	05525	005014	11300		TAX
  2193	      	      	11310	* COPY OUT CHARACTERS FROM LOGICAL RECORD TO BUFFER
  2194	05526	002000	11320	RT3	JMPM	RT7
  2195	05527	000000	
  2196	05530	005012	11330		TAB
  2197	05531	004142	11340		LSRB	2
  2198	05532	001020	11350		JBZ	RT4
  2199	05533	000000	
  2200	05534	002000	11360	RT3A	JMPM	WCI
PAGE 01  BSYM.VCD  06-APR-73  09:11:03.950

  2201	05535	056661	
  2202	05536	010000	11370		LDA	R4
  2203	05537	001004	11380		JAN	RT3
  2204	05540	000000	
  2205	      	      	11390	* DONE WITH LOGICAL RECORD
  2206	05541	017032	11400		LDA	R2
  2207	05542	001004	11410		JAN	RT2
  2208	05543	000000	
  2209	      	      	11420	* DONE WITH SECTOR
  2210	05544	027031	11430		LDB	R1
  2211	05545	016522	11440		LDA	CDIS,6
  2212	05546	046522	11450		INR	CDIS,6
  2213	05547	151073	11460		ANA	=3
  2214	05550	005014	11470		TAX
  2215	05551	015257	11480		LDA	CMSK,5
  2216	      	      	11490	* DISABLE INTERRUPTS TO PREVENT INTERFERENCE FROM QII
  2217	05552	100077	11500		EXC	77
  2218	05553	156472	11510		ANA	ISF,6
  2219	05554	100377	11520		EXC	377
  2220	05555	056472	11530		STA	ISF,6
  2221	05556	046712	11540		INR	INDATA,6
  2222	05557	001000	11550		JMP	RTD+.
  2223	05560	100000	
  2224	05561	005012	11560	RT4	TAB
  2225	05562	017033	11570		LDA	R5
  2226	05563	001004	11580		JAN	RT5
  2227	05564	000000	
  2228	05565	005021	11590		TBA
  2229	05566	141124	11600		SUB	=2
  2230	05567	001010	11610		JAZ	RT6
  2231	05570	000000	
  2232	05571	001002	11620		JAP	RT9
  2233	05572	031000	
  2234	      	      	11630	* CHARACTER PAIR   MUST NOT BE SPLIT UP
  2235	05573	005021	11640		TBA
  2236	05574	060762	11650		STB	W1
  2237	05575	002000	11660		JMPM	WCI
  2238	05576	056661	
  2239	05577	002000	11670		JMPM	RT7
  2240	05600	000000	
  2241	      	      	11680	* CHECK FOR CIRCUIT GOUGER
  2242	05601	050763	11690		STA	W2
  2243	05602	004342	11700		LSRA	2
  2244	05603	131126	11710		ERA	=12
  2245	05604	140762	11720		SUB	W1
  2246	05605	001002	11730		JAP	RT5-1
  2247	05606	177777	
  2248	05607	020000	11740		LDB	R6
  2249	05610	016000	11750		LDA	0,6
  2250	05611	110256	11760		ORA	MASK+17
  2251	05612	056000	11770		STA	0,6
  2252	05613	020763	11780		LDB	W2
  2253	05614	005021	11790	RT5	TBA
  2254	05615	001000	11800		JMP	RT3A
PAGE 01  BSYM.VCD  06-APR-73  09:11:36.216

  2255	05616	030606	
  2256	      	      	11810	* CHARACTER GOBBLER
  2257	05617	005041	11820	RT6	TXA
  2258	05620	141125	11830		SUB	=BUFERS
  2259	05621	001004	11840		JAN	RT3A
  2260	05622	030606	
  2261	05623	002000	11850		JMPM	RT8
  2262	05624	000000	
  2263	05625	011124	11860		LDA	=2
  2264	05626	001000	11870		JMP	RT3A
  2265	05627	030606	
  2266	      	      	11880	* RT7 BUMPS R2, R3, AND R4 AND RETURNS CHARACTER FROM SECTOR
  2267	      	      	11890	* IN A
  2268	05630	000000	11900	RT7	0
  2269	05631	047032	11910		INR	R2
  2270	05632	040000	11920		INR	R4
  2271	05633	010000	11930		LDA	R3
  2272	05634	040000	11940		INR	R3
  2273	05635	005012	11950		TAB
  2274	05636	004141	11960		LSRB	1
  2275	05637	151127	11970		ANA	=1
  2276	05640	001010	11980		JAZ	*+6
  2277	05641	005646	
  2278	05642	016000	11990		LDA	0,6
  2279	05643	151101	12000		ANA	=377
  2280	05644	001000	12010		JMP	RT7+.
  2281	05645	100000	
  2282	05646	016000	12020		LDA	0,6
  2283	05647	004350	12030		LSRA	10
  2284	05650	001000	12040		JMP	RT7+.
  2285	05651	100000	
  2286	      	      	12050	* EXPIDITE ZAPPERS AND GOBBLERS
  2287	05652	000000	12060	RT8	0
  2288	05653	005001	12070		TZA
  2289	05654	055742	12080		STA	BC,5
  2290	05655	070765	12090		STX	W4
  2291	05656	005041	12100		TXA
  2292	05657	121114	12110		ADD	=NBUF
  2293	05660	005014	12120		TAX
  2294	05661	015742	12130		LDA	BC,5
  2295	05662	141130	12140		SUB	=20*(CFOB-FLAG)
  2296	05663	001004	12150		JAN	RT8B
  2297	05664	000000	
  2298	05665	005012	12160		TAB
  2299	05666	141131	12170		SUB	=BR-IOTAB0
  2300	05667	001002	12180		JAP	RT8A
  2301	05670	132140	
  2302	05671	121132	12190		ADD	=BR
  2303	05672	005014	12200		TAX
  2304	05673	011074	12210		LDA	=40
  2305	05674	055400	12220		STA	BR-IOTAB0,5
  2306	05675	005021	12230		TBA
  2307	05676	002000	12240		JMPM	BITADD
  2308	05677	013116	
PAGE 01  BSYM.VCD  06-APR-73  09:12:06.783

  2309	05700	116410	12250		ORA	RSBF,6
  2310	05701	056410	12260		STA	RSBF,6
  2311	05702	030765	12270	RT8A	LDX	W4
  2312	05703	001000	12280		JMP	RT8+.
  2313	05704	100000	
  2314	05705	015742	12290	RT8B	LDA	BC,5
  2315	05706	002000	12300		JMPM	BITADD
  2316	05707	013116	
  2317	05710	001020	12310		JBZ	RT8A
  2318	05711	132140	
  2319	05712	116205	12320		ORA	STOPIN-1,6
  2320	05713	056205	12330		STA	STOPIN-1,6
  2321	05714	001000	12340		JMP	RT8A
  2322	05715	132140	
  2323	05716	000000	12350	EMPTY	0
  2324	05717	015742	12360		LDA	BC,5
  2325	05720	001010	12370		JAZ	EMPTY+.
  2326	05721	100000	
  2327	05722	002000	12380		JMPM	GCI
  2328	05723	000000	
  2329	05724	001000	12390		JMP	EMPTY+1
  2330	05725	000001	
  2331	      	      	12400	* CIRCUIT ZAPPER
  2332	05726	020000	12410	RT9	LDB	R6
  2333	05727	016000	12420		LDA	0,6
  2334	05730	005111	12430		IAR
  2335	05731	001010	12440		JAZ	RT3A
  2336	05732	030606	
  2337	05733	005311	12450		DAR
  2338	05734	130237	12460		ERA	MASK
  2339	05735	121125	12470		ADD	=BUFERS
  2340	05736	150276	12480		ANA	CMSK+17
  2341	05737	070762	12490		STX	W1
  2342	05740	005014	12500		TAX
  2343	05741	005201	12510		COM	,A
  2344	05742	056000	12520		STA	0,6
  2345	05743	002000	12530		JMPM	ZBF
  2346	05744	000000	
  2347	05745	030762	12540		LDX	W1
  2348	05746	002000	12550		JMPM	RT8
  2349	05747	000000	
  2350	05750	011073	12560		LDA	=3
  2351	05751	001000	12570		JMP	RT3A
  2352	05752	030606	
  2353	05753	000000	12580	R1	0		LINE NUMBER
  2354	05754	000000	12590	R2	0		APPROXIMATE NUMBER OF CHARACTERS IN PHYSICAL RECORD
  2355	05755	000000	12600	R3	0		CHARACTER ADDRESS IN SECTOR
  2356	05756	000000	12610	R4	0		COUNT DOWN FOR LOGICAL RECORD
  2357	05757	000000	12620	R5	0		VIRTUAL CHANNEL SWITCH (FIRST 2 CHANNELS DO NOT GET CHECKED)
  2358	05760	000000	12630	R6	0		IOTAB ADDRESS
  2359	      	      	12640	* RECORD MAKER   MAKES PHYSICAL RECORDS FOR 201 LINES
  2360	      	      	12650	* W1 LINE NUMBER
  2361	      	      	12660	* W2 NUMBER OF CHARACTERS IN PHYSICAL RECORD
  2362	      	      	12670	* W3 CHARACTER ADDRESS IN SECTOR
PAGE 01  BSYM.VCD  06-APR-73  09:12:45.166

  2363	      	      	12680	* W4 GROUP INDEX
  2364	      	      	12690	* W5 NUMBER OF GROUPS
  2365	      	      	12700	* W6 BUFFER NUMBER   ALSO ACCUMULATER FOR RM13
  2366	      	      	12710	* W7 LOGICAL RECORD SIZE
  2367	      	      	12720	* W8 ADDRESS OF BEGINNING OF LOGICAL RECORD
  2368	      	      	12730	* W9 COUNT DOWN FOR LOGICAL RECORD
  2369	      	      	12740	* W10 BIT POSITION NUMBER
  2370	      	      	12750	* W11 CHANNEL NUMBER
  2371	      	      	12760	* W12 ADDRESS OF IOTAB ENTRY
  2372	      	      	12770	* W13 FIRST HALF OF CHARACTER PAIR
  2373	05761	000000	12780	RMAKE	0
  2374	05762	011122	12790		LDA	=NLINES
  2375	05763	050762	12800		STA	W1
  2376	      	      	12810	* CHECK EACH LINE FOR SOMETHING TO DO
  2377	05764	020762	12820	RM1	LDB	W1
  2378	05765	001020	12830		JBZ	RMAKE+.
  2379	05766	000000	
  2380	05767	005322	12840		DBR
  2381	05770	060762	12850		STB	W1
  2382	      	      	12860	* HOW LONG SINCE LAST RECORD MADE ON THIS LINE
  2383	05771	011312	12870		LDA	TIMEL
  2384	05772	146452	12880		SUB	TIME1,6
  2385	      	      	12890	* FOR 9600 BPS LINE, SUBTRACT 20 INSTEAD OF 40
  2386	      	      	12900	* THIS CODING ASSUMES THAT ONLY ONE 9600 BPS LINE IS USED
  2387	05773	001004	12910		JAN	*+5
  2388	05774	006000	
  2389	05775	141133	12920		SUB	=(TICKSPS+22)/23
  2390	05776	001004	12930		JAN	RM1
  2391	05777	030602	
  2392	      	      	12940	* DO NOT LET CAOS GET TOO FAR AHEAD OF COS
  2393	06000	016502	12950		LDA	CAOS,6
  2394	06001	146512	12960		SUB	COS,6
  2395	06002	141124	12970		SUB	=2
  2396	06003	001002	12980		JAP	RM1
  2397	06004	030602	
  2398	      	      	12990	* IS THIS SECTOR OCCUPIED
  2399	06005	016502	13000		LDA	CAOS,6
  2400	06006	151073	13010		ANA	=3
  2401	06007	005014	13020		TAX
  2402	06010	016462	13030		LDA	OSF,6
  2403	06011	155237	13040		ANA	MASK,5
  2404	06012	001010	13050		JAZ	*+4
  2405	06013	006016	
  2406	06014	001000	13060		JMP	RM1
  2407	06015	030602	
  2408	06016	050763	13070		STA	W2
  2409	06017	005041	13080		TXA
  2410	06020	004245	13090		LRLA	5
  2411	06021	126777	13100		ADD	OSEC,6
  2412	06022	005111	13110		IAR
  2413	06023	004241	13120		LRLA	1
  2414	06024	050764	13130		STA	W3
  2415	      	      	13140	* ARE THERE ANY CHARACTERS READY
  2416	06025	002000	13150		JMPM	RM13
PAGE 01  BSYM.VCD  06-APR-73  09:12:48.450

  2417	06026	000000	
  2418	06027	001010	13160		JAZ	RM1
  2419	06030	030602	
  2420	      	      	13170	* PROCEED TO BUILD RECORD
  2421	06031	010766	13180	RM2	LDA	W5
  2422	06032	005311	13190		DAR
  2423	06033	001004	13200		JAN	RM12
  2424	06034	000000	
  2425	06035	050766	13210		STA	W5
  2426	06036	020765	13220		LDB	W4
  2427	06037	040765	13230		INR	W4
  2428	      	      	13240	* ANY LIVE ONES IN THIS GROUP??
  2429	06040	016324	13250	RM3	LDA	CFOB,6
  2430	06041	156356	13260		ANA	PCFOB,6
  2431	06042	156410	13270		ANA	RSBF,6
  2432	06043	001010	13280		JAZ	RM2
  2433	06044	051542	
  2434	      	      	13290	* WE MAY HAVE ONE
  2435	06045	002000	13300		JMPM	BID
  2436	06046	012311	
  2437	06047	070773	13310		STX	W10
  2438	06050	016356	13320		LDA	PCFOB,6
  2439	06051	155257	13330		ANA	CMSK,5
  2440	06052	056356	13340		STA	PCFOB,6
  2441	      	      	13350	* COMPUTE CHANNEL NUMBER
  2442	06053	005021	13360		TBA
  2443	06054	020762	13370		LDB	W1
  2444	06055	146164	13380		SUB	GROUPI,6
  2445	06056	004244	13390		LRLA	4
  2446	06057	005051	13400		COP	AX,A
  2447	06060	050774	13410		STA	W11
  2448	      	      	13420	* LOOK UP BUFFER NUMBER
  2449	06061	126132	13430		ADD	IOTA,6
  2450	06062	050775	13440		STA	W12
  2451	06063	005014	13450		TAX
  2452	06064	015000	13460		LDA	0,5
  2453	06065	130237	13470		ERA	MASK
  2454	06066	150276	13480		ANA	CMSK+17
  2455	06067	121125	13490		ADD	=BUFERS
  2456	06070	050767	13500		STA	W6
  2457	      	      	13510	* CHECK FOR NULL ENTRY
  2458	06071	015000	13520		LDA	0,5
  2459	06072	005111	13530		IAR
  2460	06073	001010	13540		JAZ	RM18
  2461	06074	000000	
  2462	      	      	13550	* IS BUFFER RESTRICTION COUNT AT LEAST 6
  2463	06075	015400	13560		LDA	BR-IOTAB0,5
  2464	06076	005012	13570		TAB
  2465	06077	141134	13580		SUB	=6
  2466	06100	001004	13590		JAN	RM7
  2467	06101	052144	
  2468	      	      	13600	* FIND SIZE OF LOGICAL RECORD
  2469	      	      	13610	* HOW MUCH ROOM LEFT IN SECTOR
  2470	06102	141135	13620		SUB	=52D
PAGE 01  BSYM.VCD  06-APR-73  09:12:57.700

  2471	06103	120763	13630		ADD	W2
  2472	06104	001004	13640		JAN	*+5
  2473	06105	006111	
  2474	06106	005211	13650		COM	A,A
  2475	06107	125400	13660		ADD	BR-IOTAB0,5
  2476	06110	005112	13670		INC	A,B
  2477	      	      	13680	* HOW MANY CHARACTERS IN BUFFER
  2478	06111	030767	13690		LDX	W6
  2479	06112	005021	13700		TBA
  2480	06113	145742	13710		SUB	BC,5
  2481	06114	001004	13720		JAN	*+3
  2482	06115	006117	
  2483	06116	025742	13730		LDB	BC,5
  2484	      	      	13740	* TEST FOR SUPERVISORY OR FLOW RESTRICTION CHANNEL
  2485	06117	030774	13750		LDX	W11
  2486	06120	001040	13760		JXZ	RM15
  2487	06121	056675	
  2488	06122	005341	13770		DEC	X,A
  2489	06123	001010	13780		JAZ	RM16
  2490	06124	152152	
  2491	06125	060770	13790	RM3A	STB	W7
  2492	06126	005222	13800		COM	B,B
  2493	06127	005122	13810		INC	B,B
  2494	06130	060772	13820		STB	W9
  2495	      	      	13830	* BUILD LOGICAL RECORD
  2496	06131	010764	13840		LDA	W3
  2497	06132	050771	13850		STA	W8
  2498	06133	005111	13860		IAR
  2499	06134	050764	13870		STA	W3
  2500	      	      	13880	* STORE CHANNEL NUMBER
  2501	06135	002000	13890		JMPM	RM14
  2502	06136	000000	
  2503	      	      	13900	* COPY CHARACTERS INTO SECTOR
  2504	06137	030767	13910	RM4	LDX	W6
  2505	06140	002000	13920		JMPM	GCI
  2506	06141	000000	
  2507	06142	005014	13930		TAX
  2508	      	      	13940	* TEST FOR SPECIAL CHARACTER PAIRS OR CIRCUIT ZAPPER
  2509	06143	004342	13950		LSRA	2
  2510	06144	001010	13960		JAZ	RM10
  2511	06145	034542	
  2512	06146	040764	13970	RM5	INR	W3
  2513	06147	010764	13980		LDA	W3
  2514	06150	002000	13990		JMPM	RM14
  2515	06151	000000	
  2516	06152	040772	14000		INR	W9
  2517	06153	010772	14010		LDA	W9
  2518	06154	001004	14020		JAN	RM4
  2519	06155	000000	
  2520	      	      	14030	* DONE COPYING. NOW PLACE SIZE AT BEGINNING OF RECORD
  2521	06156	040764	14040	RM6	INR	W3
  2522	06157	030770	14050		LDX	W7
  2523	06160	010771	14060		LDA	W8
  2524	06161	002000	14070		JMPM	RM14
PAGE 01  BSYM.VCD  06-APR-73  09:13:19.266

  2525	06162	000000	
  2526	      	      	14080	* ADJUST BUFFER RESTRICTION COUNT
  2527	06163	030775	14090		LDX	W12
  2528	06164	015400	14100		LDA	BR-IOTAB0,5
  2529	06165	140770	14110		SUB	W7
  2530	06166	055400	14120		STA	BR-IOTAB0,5
  2531	06167	141134	14130		SUB	=6
  2532	      	      	14140	* RM7 IS ENTERED FROM MIDDLE OF RM3 SECTION
  2533	      	      	14150	* ALSO ENTERED FROM RM19
  2534	06170	020765	14160	RM7	LDB	W4
  2535	06171	005322	14170		DBR
  2536	06172	001002	14180		JAP	RM8
  2537	06173	000000	
  2538	      	      	14190	* BUFFER RESTRICTION COUNT LESS THAN 6. TURN OFF RSBF
  2539	      	      	14200	* THE NUMBER 6 IS CHOSEN FOR EFFICIENCY AND TO PREVENT BUG IN RM15
  2540	06174	030773	14210		LDX	W10
  2541	06175	016410	14220		LDA	RSBF,6
  2542	06176	155257	14230		ANA	CMSK,5
  2543	06177	056410	14240		STA	RSBF,6
  2544	      	      	14250	* IS THERE ROOM IN THE SECTOR FOR ANOTHER RECORD
  2545	      	      	14260	* NOTE- SUBTLE INEFFICIENCY BUG CAUSED BY RM10
  2546	      	      	14270	* IF 54D IS CHANGED TO 55D
  2547	06200	011136	14280	RM8	LDA	=54D
  2548	06201	140763	14290		SUB	W2
  2549	06202	001002	14300		JAP	RM3
  2550	06203	033202	
  2551	      	      	14310	* FINISH PHYSICAL RECORD
  2552	      	      	14320	* FIND ADDRESS OF FIRST WORD OF SECTOR
  2553	06204	020762	14330	RM9	LDB	W1
  2554	06205	016502	14340		LDA	CAOS,6
  2555	06206	151073	14350		ANA	=3
  2556	06207	004245	14360		LRLA	5
  2557	06210	126777	14370		ADD	OSEC,6
  2558	06211	005014	14380		TAX
  2559	06212	016502	14390		LDA	CAOS,6
  2560	06213	004543	14400		LLSR	3
  2561	06214	010763	14410		LDA	W2
  2562	      	      	14420	* NOTE- RSBF MAY HAVE BEEN TURNED ON WHEN INAPPROPRIATE,
  2563	      	      	14430	* POSSIBLY RESULTING IN NO LOGICAL RECORDS BEING BUILT.
  2564	      	      	14440	* IF SO, WE ABORT THIS PHYSICAL RECORD
  2565	06215	001010	14450		JAZ	RMAKE+.
  2566	06216	000000	
  2567	06217	121073	14460		ADD	=3
  2568	06220	004341	14470		LSRA	1
  2569	06221	004446	14480		LLRL	6
  2570	06222	020762	14490		LDB	W1
  2571	06223	110175	14500		ORA	BORO
  2572	06224	055000	14510		STA	0,5
  2573	      	      	14520	* RMAKE IS NOW DONE WITH THIS PHYSICAL RECORD
  2574	06225	016502	14530		LDA	CAOS,6
  2575	06226	046502	14540		INR	CAOS,6
  2576	06227	151073	14550		ANA	=3
  2577	06230	005014	14560		TAX
  2578	06231	015237	14570		LDA	MASK,5
PAGE 01  BSYM.VCD  06-APR-73  09:13:30.833

  2579	      	      	14580	* DISABLE INTERRUPTS TO PREVENT INTERFERENCE FROM QII AND QIO
  2580	06232	100077	14590		EXC	77
  2581	06233	116462	14600		ORA	OSF,6
  2582	06234	100377	14610		EXC	377
  2583	06235	056462	14620		STA	OSF,6
  2584	06236	011312	14630		LDA	TIMEL
  2585	06237	056452	14640		STA	TIME1,6
  2586	06240	001000	14650		JMP	RMAKE+.
  2587	06241	000000	
  2588	      	      	14660	* SPECIAL CHARACTER PAIR, CHARACTER GOBBLER, OR CIRCUIT ZAPPER
  2589	      	      	14670	* THE FIRST CHARACTER MAY NOT GO IF THERE IS NOT ROOM
  2590	      	      	14680	* FOR THE SECOND TO GO WITH IT. THIS PAIR OF CHARACTERS
  2591	      	      	14690	* MUST NOT BE SPLIT UP
  2592	      	      	14700	* THE FIRST 2 CHANNELS DO NOT HAVE THESE CHARACTERS
  2593	06242	010774	14710	RM10	LDA	W11
  2594	06243	141124	14720		SUB	=2
  2595	06244	001004	14730		JAN	RM5
  2596	06245	000000	
  2597	06246	005041	14740		TXA
  2598	06247	141124	14750		SUB	=2
  2599	06250	001010	14760		JAZ	RM5
  2600	06251	000000	
  2601	06252	001002	14770		JAP	RM17
  2602	06253	000000	
  2603	06254	040772	14780		INR	W9
  2604	06255	010772	14790		LDA	W9
  2605	06256	001002	14800		JAP	RM11
  2606	06257	000000	
  2607	06260	040764	14810		INR	W3
  2608	06261	010764	14820		LDA	W3
  2609	06262	002000	14830		JMPM	RM14
  2610	06263	000000	
  2611	06264	030767	14840		LDX	W6
  2612	06265	002000	14850		JMPM	GCI
  2613	06266	000000	
  2614	06267	005014	14860		TAX
  2615	      	      	14870	* CHECK FOR CIRCUIT GOUGER
  2616	06270	004342	14880		LSRA	2
  2617	06271	131126	14890		ERA	=12
  2618	06272	001010	14900		JAZ	*+4
  2619	06273	006276	
  2620	06274	001000	14910		JMP	RM5
  2621	06275	000000	
  2622	06276	017775	14920		LDA	W12,7
  2623	06277	110256	14930		ORA	MASK+17
  2624	06300	057775	14940		STA	W12,7
  2625	06301	001000	14950		JMP	RM5
  2626	06302	000000	
  2627	      	      	14960	* NO ROOM FOR SECOND CHARACTER
  2628	      	      	14970	* PUT THE FIRST ONE BACK
  2629	06303	030767	14980	RM11	LDX	W6
  2630	06304	002000	14990		JMPM	WCD
  2631	06305	032202	
  2632	06306	010770	15000		LDA	W7
PAGE 01  BSYM.VCD  06-APR-73  09:13:56.816

  2633	06307	005311	15010		DAR
  2634	06310	050770	15020		STA	W7
  2635	06311	001000	15030		JMP	RM6
  2636	06312	147626	
  2637	      	      	15040	* GO AROUND AGAIN IF ANY BUSINESS LEFT
  2638	06313	020762	15050	RM12	LDB	W1
  2639	06314	002000	15060		JMPM	RM13
  2640	06315	000000	
  2641	06316	020765	15070		LDB	W4
  2642	06317	005205	15080		COM	,AX
  2643	06320	120766	15090		ADD	W5
  2644	06321	076356	15100		STX	PCFOB,6
  2645	06322	005122	15110		IBR
  2646	06323	005311	15120		DAR
  2647	06324	001002	15130		JAP	*-3
  2648	06325	006321	
  2649	06326	010767	15140		LDA	W6
  2650	06327	001010	15150		JAZ	RM9
  2651	06330	000000	
  2652	06331	001000	15160		JMP	RM2
  2653	06332	051542	
  2654	      	      	15170	* INITIALIZE W4 AND W5
  2655	      	      	15180	* ALSO SEE IF THERE ARE ANY POSSIBILITIES FOR BUILDING LOGICAL RECORDS
  2656	06333	000000	15190	RM13	0
  2657	06334	005001	15200		TZA
  2658	06335	050767	15210		STA	W6
  2659	06336	036154	15220		LDX	GROUPN,6
  2660	06337	070766	15230		STX	W5
  2661	06340	026164	15240		LDB	GROUPI,6
  2662	06341	060765	15250		STB	W4
  2663	06342	016324	15260		LDA	CFOB,6
  2664	06343	156410	15270		ANA	RSBF,6
  2665	06344	110767	15280		ORA	W6
  2666	06345	050767	15290		STA	W6
  2667	06346	005344	15300		DXR
  2668	06347	001040	15310		JXZ	RM13+.
  2669	06350	100000	
  2670	06351	005122	15320		IBR
  2671	06352	001000	15330		JMP	*-10
  2672	06353	006342	
  2673	      	      	15340	* STORE THE CHARACTER IN THE X BOX AT THE CHARACTER ADDRESS
  2674	      	      	15350	* IN THE A BOX   ALSO BUMP W2
  2675	06354	000000	15360	RM14	0
  2676	06355	040763	15370		INR	W2
  2677	06356	005012	15380		TAB
  2678	06357	004141	15390		LSRB	1
  2679	06360	151127	15400		ANA	=1
  2680	06361	001010	15410		JAZ	*+10
  2681	06362	006371	
  2682	06363	016000	15420		LDA	0,6
  2683	06364	151137	15430		ANA	=177400
  2684	06365	005051	15440		COP	AX,A
  2685	06366	056000	15450		STA	0,6
  2686	06367	001000	15460		JMP	RM14+.
PAGE 01  BSYM.VCD  06-APR-73  09:14:07.516

  2687	06370	100000	
  2688	06371	005041	15470		TXA
  2689	06372	004250	15480		LRLA	10
  2690	06373	005014	15490		TAX
  2691	06374	016000	15500		LDA	0,6
  2692	06375	151101	15510		ANA	=377
  2693	06376	005051	15520		COP	AX,A
  2694	06377	056000	15530		STA	0,6
  2695	06400	001000	15540		JMP	RM14+.
  2696	06401	100000	
  2697	      	      	15550	* SUPERVISORY CHANNEL MAY SEND ONLY MULTIPLE OF 6 CHARACTER RECORDS
  2698	06402	060770	15560	RM15	STB	W7
  2699	06403	005221	15570		COM	B,A
  2700	06404	121134	15580		ADD	=6
  2701	06405	001004	15590		JAN	*-1
  2702	06406	006404	
  2703	06407	141122	15600		SUB	=5
  2704	06410	120770	15610		ADD	W7
  2705	06411	001010	15620		JAZ	RM9
  2706	06412	000000	
  2707	06413	005012	15630		TAB
  2708	06414	001000	15640		JMP	RM3A
  2709	06415	000000	
  2710	      	      	15650	* FLOW RESTRICTION CHANNEL MAY SEND ONLY FIXED RECORD SIZE
  2711	06416	005021	15660	RM16	TBA
  2712	06417	030762	15670		LDX	W1
  2713	06420	125143	15680		ADD	IOTABS,5
  2714	06421	001010	15690		JAZ	*+4
  2715	06422	006425	
  2716	06423	001000	15700		JMP	RM9
  2717	06424	000000	
  2718	06425	005104	15710		INC	,X
  2719	06426	001000	15720		JMP	RM3A
  2720	06427	000000	
  2721	      	      	15730	* CIRCUIT ZAPPER
  2722	06430	030767	15740	RM17	LDX	W6
  2723	06431	002000	15750		JMPM	ZBF
  2724	06432	000000	
  2725	06433	010772	15760		LDA	W9
  2726	06434	005111	15770		IAR
  2727	06435	120770	15780		ADD	W7
  2728	06436	050770	15790		STA	W7
  2729	06437	017775	15800		LDA	W12,7
  2730	06440	121125	15810		ADD	=BUFERS
  2731	06441	150276	15820		ANA	CMSK+17
  2732	06442	005202	15830		COM	,B
  2733	06443	067775	15840		STB	W12,7
  2734	06444	005014	15850		TAX
  2735	06445	002000	15860		JMPM	EMPTY
  2736	06446	000000	
  2737	06447	040764	15870		INR	W3
  2738	06450	010764	15880		LDA	W3
  2739	06451	031073	15890		LDX	=3
  2740	06452	002000	15900		JMPM	RM14
PAGE 01  BSYM.VCD  06-APR-73  09:14:47.050

  2741	06453	000000	
  2742	06454	001000	15910		JMP	RM6
  2743	06455	147626	
  2744	      	      	15920	* A POINTER TO A NULL ENTRY HAS BEEN FOUND
  2745	      	      	15930	* DEASSIGN ALL BUFFERS WITH SUCH A POINTER
  2746	06456	010765	15940	RM18	LDA	W4
  2747	06457	121140	15950		ADD	=CFOB-FLAG-1
  2748	06460	004244	15960		LRLA	4
  2749	06461	110773	15970		ORA	W10
  2750	06462	050773	15980		STA	W10
  2751	06463	031114	15990		LDX	=BUFERS+NBUF
  2752	06464	015742	16000	RM19	LDA	BC,5
  2753	06465	140773	16010		SUB	W10
  2754	06466	001010	16020		JAZ	RM20
  2755	06467	000000	
  2756	06470	005145	16030		INC	X,AX
  2757	06471	141141	16040		SUB	=BUFERS+2*NBUF
  2758	06472	001004	16050		JAN	RM19
  2759	06473	000000	
  2760	06474	001000	16060		JMP	RM7
  2761	06475	052144	
  2762	06476	040000	16070	RM20	INR	RMERR
  2763	06477	005041	16080		TXA
  2764	06500	141114	16090		SUB	=NBUF
  2765	06501	005014	16100		TAX
  2766	06502	002000	16110		JMPM	ZBF
  2767	06503	000000	
  2768	06504	005024	16120		TBX
  2769	06505	001000	16130		JMP	RM19
  2770	06506	000000	
  2771	06507	000000	16140	RMERR	0
  2772	      	      	16150	* WRITE CHARACTER AND DECREMENT
  2773	      	      	16160	* THIS ROUTINE MAY BE CALLED AFTER A CALL TO GCI FOR THE
  2774	      	      	16170	* SAME BUFFER TO PUT THE CHARACTER BACK, PROVIDED THAT
  2775	      	      	16180	* THERE HAVE BEEN NO INTERVENING CALLS TO WCI
  2776	      	      	16190	* THE BUFFER NUMBER IS IN THE X BOX
  2777	      	      	16200	* IT IS NOT NECCESSARY TO GIVE THE CHARACTER
  2778	06510	000000	16210	WCD	0
  2779	06511	045742	16220		INR	BC,5
  2780	06512	015000	16230		LDA	BP,5
  2781	06513	005311	16240		DAR
  2782	06514	055000	16250		STA	BP,5
  2783	06515	005041	16260		TXA
  2784	06516	121114	16270		ADD	=NBUF
  2785	06517	005014	16280		TAX
  2786	06520	015742	16290		LDA	BC,5
  2787	06521	002000	16300		JMPM	BITADD
  2788	06522	013116	
  2789	06523	116313	16310		ORA	FLAG,6
  2790	06524	056313	16320		STA	FLAG,6
  2791	06525	001000	16330		JMP	WCD+.
  2792	06526	132202	
  2793	06527	000000	16340	ZBF	0
  2794	06530	002000	16350		JMPM	EMPTY
PAGE 01  BSYM.VCD  06-APR-73  09:15:19.116

  2795	06531	000000	
  2796	06532	005041	16360		TXA
  2797	06533	121114	16370		ADD	=NBUF
  2798	06534	005012	16380		TAB
  2799	06535	005001	16390		TZA
  2800	06536	056742	16400		STA	BC,6
  2801	06537	001000	16410		JMP	ZBF+.
  2802	06540	100000	
  2803	06541	002000	16420	HLTG	JMPM	CRASH	GCI HALT	BAD BUFER NUMBER OR EMPTY BUFER
  2804	06542	052156	
  2805	06543	000000	16430	GCI	0
  2806	06544	005041	16440		TXA
  2807	06545	141125	16450		SUB	=BUFERS
  2808	06546	001004	16460		JAN	HLTG
  2809	06547	056721	
  2810	06550	141114	16470		SUB	=NBUF
  2811	06551	001002	16480		JAP	HLTG
  2812	06552	056721	
  2813	06553	015742	16490		LDA	BC,5
  2814	06554	001010	16500		JAZ	HLTG
  2815	06555	056721	
  2816	06556	005311	16510		DAR
  2817	06557	055742	16520		STA	BC,5
  2818	06560	001010	16530		JAZ	GCI3
  2819	06561	000000	
  2820	06562	015000	16540	GCI1	LDA	BP,5
  2821	06563	045000	16550		INR	BP,5
  2822	06564	005012	16560		TAB
  2823	06565	004141	16570		LSRB	1
  2824	06566	151127	16580		ANA	=1
  2825	06567	001010	16590		JAZ	GCI2
  2826	06570	000000	
  2827	06571	016000	16600		LDA	0,6
  2828	06572	151101	16610		ANA	=377
  2829	06573	001000	16620		JMP	GCI+.
  2830	06574	100000	
  2831	06575	016000	16630	GCI2	LDA	0,6
  2832	06576	004350	16640		LSRA	10
  2833	06577	001000	16650		JMP	GCI+.
  2834	06600	100000	
  2835	06601	070000	16660	GCI3	STX	PW1
  2836	06602	005041	16670		TXA
  2837	06603	121114	16680		ADD	=NBUF
  2838	06604	005014	16690		TAX
  2839	06605	015742	16700		LDA	BC,5
  2840	06606	005012	16710		TAB
  2841	06607	004144	16720		LSRB	4
  2842	06610	151121	16730		ANA	=17
  2843	06611	005014	16740		TAX
  2844	06612	016313	16750		LDA	FLAG,6
  2845	06613	155257	16760		ANA	CMSK,5
  2846	06614	056313	16770		STA	FLAG,6
  2847	06615	030000	16780		LDX	PW1
  2848	06616	001000	16790		JMP	GCI1
PAGE 01  BSYM.VCD  06-APR-73  09:15:46.966

  2849	06617	056715	
  2850	06620	005111	16800	HLTWT	IAR
  2851	06621	001010	16810		JAZ	WCI+.
  2852	06622	156661	
  2853	06623	002000	16820	HLTW	JMPM	CRASH	WCI HALT	BAD BUFER NUMBER
  2854	06624	052156	
  2855	06625	000000	16830	WCI	0
  2856	06626	151101	16840		ANA	=377
  2857	06627	050000	16850		STA	PW1
  2858	06630	005041	16860		TXA
  2859	06631	141125	16870		SUB	=BUFERS
  2860	06632	001004	16880		JAN	HLTWT
  2861	06633	000000	
  2862	06634	141114	16890		SUB	=NBUF
  2863	06635	001002	16900		JAP	HLTW
  2864	06636	000000	
  2865	06637	015742	16910		LDA	BC,5
  2866	06640	005012	16920		TAB
  2867	06641	125000	16930		ADD	BP,5
  2868	06642	057034	16940		STA	PW2
  2869	06643	145001	16950		SUB	BP+1,5
  2870	06644	001010	16960		JAZ	WCI4
  2871	06645	145542	
  2872	06646	001020	16970	WCI1	JBZ	*+4
  2873	06647	006652	
  2874	06650	001000	16980		JMP	WCI2
  2875	06651	000000	
  2876	06652	077035	16990		STX	PW3
  2877	06653	005041	17000		TXA
  2878	06654	121114	17010		ADD	=NBUF
  2879	06655	005012	17020		TAB
  2880	06656	016742	17030		LDA	BC,6
  2881	06657	001010	17040		JAZ	WCI+.
  2882	06660	156661	
  2883	06661	005012	17050		TAB
  2884	06662	004144	17060		LSRB	4
  2885	06663	151121	17070		ANA	=17
  2886	06664	005014	17080		TAX
  2887	06665	016313	17090		LDA	FLAG,6
  2888	06666	115237	17100		ORA	MASK,5
  2889	06667	056313	17110		STA	FLAG,6
  2890	06670	037035	17120		LDX	PW3
  2891	06671	045742	17130	WCI2	INR	BC,5
  2892	06672	017034	17140		LDA	PW2
  2893	06673	005012	17150		TAB
  2894	06674	004141	17160		LSRB	1
  2895	06675	151127	17170		ANA	=1
  2896	06676	001010	17180		JAZ	WCI3
  2897	06677	000000	
  2898	06700	016000	17190		LDA	0,6
  2899	06701	151137	17200		ANA	=177400
  2900	06702	110000	17210		ORA	PW1
  2901	06703	056000	17220		STA	0,6
  2902	06704	001000	17230		JMP	WCI+.
PAGE 01  BSYM.VCD  06-APR-73  09:16:14.433

  2903	06705	156661	
  2904	06706	010000	17240	WCI3	LDA	PW1
  2905	06707	004250	17250		LRLA	10
  2906	06710	050000	17260		STA	PW1
  2907	06711	016000	17270		LDA	0,6
  2908	06712	151101	17280		ANA	=377
  2909	06713	110000	17290		ORA	PW1
  2910	06714	056000	17300		STA	0,6
  2911	06715	001000	17310		JMP	WCI+.
  2912	06716	156661	
  2913	06717	077035	17320	WCI4	STX	PW3
  2914	06720	005344	17330		DXR
  2915	06721	015001	17340		LDA	BP+1,5
  2916	06722	145000	17350		SUB	BP,5
  2917	06723	145742	17360		SUB	BC,5
  2918	06724	141104	17370		SUB	=7
  2919	06725	001002	17380		JAP	WCI5
  2920	06726	053465	
  2921	06727	005345	17390		DEC	X,AX
  2922	06730	141142	17400		SUB	=BUFERS-1
  2923	06731	001002	17410		JAP	WCI4+2
  2924	06732	145544	
  2925	06733	001000	17420		JMP	WCI8
  2926	06734	000000	
  2927	06735	005144	17430	WCI5	IXR
  2928	06736	151143	17440		ANA	=-2
  2929	06737	121107	17450		ADD	=4
  2930	06740	050000	17460		STA	PW4
  2931	06741	017034	17470		LDA	PW2
  2932	06742	005111	17480		IAR
  2933	06743	004341	17490		LSRA	1
  2934	06744	050000	17500		STA	PW5
  2935	06745	077036	17510		STX	PW6
  2936	06746	015000	17520		LDA	BP,5
  2937	06747	005012	17530		TAB
  2938	06750	140000	17540		SUB	PW4
  2939	06751	151143	17550		ANA	=-2
  2940	06752	004541	17560		LLSR	1
  2941	06753	005014	17570		TAX
  2942	06754	005021	17580		TBA
  2943	06755	140000	17590		SUB	PW5
  2944	06756	121133	17600		ADD	=100
  2945	06757	001004	17610		JAN	*+5
  2946	06760	006764	
  2947	06761	047037	17620		INR	PW7
  2948	06762	001000	17630		JMP	*+3
  2949	06763	006765	
  2950	06764	040000	17640		INR	PW8
  2951	06765	016000	17650	WCI6	LDA	0,6
  2952	06766	055000	17660		STA	0,5
  2953	06767	005144	17670		IXR
  2954	06770	005123	17680		INC	B,AB
  2955	06771	140000	17690		SUB	PW5
  2956	06772	001004	17700		JAN	WCI6
PAGE 01  BSYM.VCD  06-APR-73  09:16:57.966

  2957	06773	040400	
  2958	06774	037035	17710		LDX	PW3
  2959	06775	015000	17720	WCI7	LDA	BP,5
  2960	06776	140000	17730		SUB	PW4
  2961	06777	055000	17740		STA	BP,5
  2962	07000	005345	17750		DEC	X,AX
  2963	07001	147036	17760		SUB	PW6
  2964	07002	001002	17770		JAP	WCI7
  2965	07003	056645	
  2966	07004	017034	17780		LDA	PW2
  2967	07005	140000	17790		SUB	PW4
  2968	07006	057034	17800		STA	PW2
  2969	07007	001000	17810		JMP	WCI12
  2970	07010	053471	
  2971	07011	021144	17820	WCI8	LDB	=BUFERS+NBUF-1
  2972	07012	016001	17830		LDA	BP+1,6
  2973	07013	146000	17840		SUB	BP,6
  2974	07014	146742	17850		SUB	BC,6
  2975	07015	141104	17860		SUB	=7
  2976	07016	001002	17870		JAP	WCI9
  2977	07017	000000	
  2978	07020	005323	17880		DEC	B,AB
  2979	07021	147035	17890		SUB	PW3
  2980	07022	001002	17900		JAP	WCI8+1
  2981	07023	000001	
  2982	      	      	17910	* NO MORE BUFFER SPACE
  2983	07024	050002	17920		STA	PW11+2
  2984	07025	031125	17930		LDX	=BUFERS
  2985	07026	015742	17940		LDA	BC,5
  2986	07027	140002	17950		SUB	PW11+2
  2987	07030	001004	17960		JAN	*+5
  2988	07031	007035	
  2989	07032	015742	17970		LDA	BC,5
  2990	07033	050002	17980		STA	PW11+2
  2991	07034	077040	17990		STX	PW12
  2992	07035	005145	18000		INC	X,AX
  2993	07036	141114	18010		SUB	=BUFERS+NBUF
  2994	07037	001004	18020		JAN	*-11
  2995	07040	007026	
  2996	07041	037040	18030		LDX	PW12
  2997	07042	011140	18040		LDA	=10
  2998	07043	055742	18050		STA	BC,5
  2999	07044	010000	18060		LDA	PW1
  3000	07045	057040	18070		STA	PW12
  3001	07046	040000	18080		INR	PW11
  3002	07047	011073	18090		LDA	=PW11+3
  3003	07050	050012	18100		STA	PW11+12
  3004	07051	002000	18110		JMPM	GCI
  3005	07052	000000	
  3006	07053	020012	18120		LDB	PW11+12
  3007	07054	040012	18130		INR	PW11+12
  3008	07055	056000	18140		STA	0,6
  3009	07056	015742	18150		LDA	BC,5
  3010	07057	005311	18160		DAR
PAGE 01  BSYM.VCD  06-APR-73  09:18:02.150

  3011	07060	001002	18170		JAP	*-7
  3012	07061	007051	
  3013	07062	017040	18180		LDA	PW12
  3014	07063	050000	18190		STA	PW1
  3015	07064	077040	18200		STX	PW12
  3016	07065	037035	18210		LDX	PW3
  3017	07066	001000	18220		JMP	WCI4+1
  3018	07067	145543	
  3019	07070	151143	18230	WCI9	ANA	=-2
  3020	07071	121107	18240		ADD	=4
  3021	07072	050000	18250		STA	PW4
  3022	07073	017034	18260		LDA	PW2
  3023	07074	004341	18270		LSRA	1
  3024	07075	050000	18280		STA	PW5
  3025	07076	016000	18290		LDA	BP,6
  3026	07077	126742	18300		ADD	BC,6
  3027	07100	005122	18310		IBR
  3028	07101	067036	18320		STB	PW6
  3029	07102	005012	18330		TAB
  3030	07103	120000	18340		ADD	PW4
  3031	07104	151143	18350		ANA	=-2
  3032	07105	004541	18360		LLSR	1
  3033	07106	005014	18370		TAX
  3034	07107	005021	18380		TBA
  3035	07110	140000	18390		SUB	PW5
  3036	07111	141145	18400		SUB	=200
  3037	07112	001002	18410		JAP	*+5
  3038	07113	007117	
  3039	07114	047041	18420		INR	PW9
  3040	07115	001000	18430		JMP	*+3
  3041	07116	007120	
  3042	07117	047042	18440		INR	PW10
  3043	07120	016000	18450	WCI10	LDA	0,6
  3044	07121	055000	18460		STA	0,5
  3045	07122	005344	18470		DXR
  3046	07123	005323	18480		DEC	B,AB
  3047	07124	140000	18490		SUB	PW5
  3048	07125	001002	18500		JAP	WCI10
  3049	07126	000000	
  3050	07127	037035	18510		LDX	PW3
  3051	07130	005144	18520		IXR
  3052	07131	015000	18530	WCI11	LDA	BP,5
  3053	07132	120000	18540		ADD	PW4
  3054	07133	055000	18550		STA	BP,5
  3055	07134	005145	18560		INC	X,AX
  3056	07135	147036	18570		SUB	PW6
  3057	07136	001004	18580		JAN	WCI11
  3058	07137	056665	
  3059	07140	037035	18590	WCI12	LDX	PW3
  3060	07141	025742	18600		LDB	BC,5
  3061	07142	001000	18610		JMP	WCI1
  3062	07143	000000	
  3063	07144	000000	18620	PW1	0
  3064	07145	000000	18630	PW2	0
PAGE 01  BSYM.VCD  06-APR-73  09:18:33.616

  3065	07146	000000	18640	PW3	0
  3066	07147	000000	18650	PW4	0
  3067	07150	000000	18660	PW5	0
  3068	07151	000000	18670	PW6	0
  3069	07152	000000	18680	PW7	0
  3070	07153	000000	18690	PW8	0
  3071	07154	000000	18700	PW9	0
  3072	07155	000000	18710	PW10	0
  3073	07156	000000	18720	PW11	0
  3074	07157	000000	18730	PW12	0
  3075	07160	      	18740		R	*+11
  3076	07171	000000	18750	SEC	0
  3077	      	      	18760	* RESTRICTED BUFFER DESTINATION
  3078	      	      	18770	* FOR EACH ONE BIT, RESET RESTRICTED BUFFER COUNT
  3079	      	      	18780	* ALSO SET ALL RESTRICTED BUFFER FLAGS
  3080	07172	011122	18790	SECD	LDA	=NLINES
  3081	07173	050762	18800		STA	W1
  3082	07174	020762	18810	RBD1	LDB	W1
  3083	07175	001020	18820		JBZ	LEP
  3084	07176	000000	
  3085	07177	005322	18830		DBR
  3086	07200	060762	18840		STB	W1
  3087	07201	036132	18850		LDX	IOTA,6
  3088	07202	015001	18860		LDA	1,5
  3089	07203	150276	18870		ANA	CMSK+17
  3090	07204	121125	18880		ADD	=BUFERS
  3091	07205	005014	18890		TAX
  3092	07206	015742	18900		LDA	BC,5
  3093	07207	001010	18910		JAZ	RBD1
  3094	07210	056651	
  3095	07211	070763	18920		STX	W2
  3096	07212	016132	18930		LDA	IOTA,6
  3097	07213	050764	18940		STA	W3
  3098	07214	016143	18950		LDA	IOTABS,6
  3099	07215	050765	18960		STA	W4
  3100	07216	036164	18970		LDX	GROUPI,6
  3101	07217	016154	18980		LDA	GROUPN,6
  3102	07220	005311	18990		DAR
  3103	07221	005202	19000		COM	,B
  3104	07222	065410	19010		STB	RSBF,5
  3105	07223	005144	19020		IXR
  3106	07224	005311	19030		DAR
  3107	07225	001002	19040		JAP	*-3
  3108	07226	007222	
  3109	07227	030763	19050	RBD3	LDX	W2
  3110	07230	002000	19060		JMPM	GCI
  3111	07231	000000	
  3112	07232	004550	19070		LLSR	10
  3113	07233	010764	19080		LDA	W3
  3114	07234	005014	19090		TAX
  3115	07235	121140	19100		ADD	=10
  3116	07236	050766	19110		STA	W5
  3117	07237	005021	19120	RBD4	TBA
  3118	07240	001002	19130		JAP	RBD5
PAGE 01  BSYM.VCD  06-APR-73  09:18:56.566

  3119	07241	000000	
  3120	07242	015000	19140		LDA	0,5
  3121	07243	001002	19150		JAP	*+5
  3122	07244	007250	
  3123	07245	011145	19160		LDA	=200
  3124	07246	001000	19170		JMP	*+3
  3125	07247	007251	
  3126	07250	011074	19180		LDA	=40
  3127	07251	055400	19190		STA	BR-IOTAB0,5
  3128	07252	004041	19200	RBD5	LRLB	1
  3129	07253	005145	19210		INC	X,AX
  3130	07254	140766	19220		SUB	W5
  3131	07255	001004	19230		JAN	RBD4
  3132	07256	100000	
  3133	07257	070764	19240		STX	W3
  3134	07260	040765	19250		INR	W4
  3135	07261	010765	19260		LDA	W4
  3136	07262	001004	19270		JAN	RBD3
  3137	07263	000000	
  3138	07264	001000	19280		JMP	RBD1
  3139	07265	056651	
  3140	      	      	19290	* LEPRECHAUN INPUT PROCESSOR
  3141	      	      	19300	* CHECK STATUS OF SUPERVISOR
  3142	07266	011342	19310	LEP	LDA	BC+BUFERS+SUPBUFFERS
  3143	07267	121344	19320		ADD	BC+BUFERS+SUPBUFFERS+2
  3144	07270	121346	19330		ADD	BC+BUFERS+SUPBUFFERS+4
  3145	07271	121350	19340		ADD	BC+BUFERS+SUPBUFFERS+6
  3146	07272	121352	19350		ADD	BC+BUFERS+SUPBUFFERS+10
  3147	07273	121354	19370		ADD	BC+BUFERS+SUPBUFFERS+12
  3148	07274	121356	19380		ADD	BC+BUFERS+SUPBUFFERS+14
  3149	07275	121360	19390		ADD	BC+BUFERS+SUPBUFFERS+16
  3150	07276	141146	19410		SUB	=-2000*(DUALBASE)-1000*(#DUALBASE)
  3151	07277	005202	19420		COM	,B
  3152	07300	001004	19430		JAN	*+15
  3153	07301	007315	
  3154	07302	011315	19440		LDA	USWICH
  3155	07303	005311	19450		DAR
  3156	07304	060773	19460		STB	W10
  3157	07305	001010	19470		JAZ	LEPD
  3158	07306	033400	
  3159	07307	141101	19480		SUB	=BUFERS+SUPBUFFERS-1
  3160	07310	001004	19490		JAN	*+5
  3161	07311	007315	
  3162	07312	004341	19500		LSRA	1
  3163	07313	005014	19510		TAX
  3164	07314	025260	19520		LDB	CMSK+1,5
  3165	07315	060773	19530		STB	W10
  3166	07316	010107	19550		LDA	UPDOWN
  3167	07317	001004	19560		JAN	LEPD
  3168	07320	033400	
  3169	07321	011331	19570		LDA	SPSTAT
  3170	07322	121077	19580		ADD	=LEPSTB+.
  3171	07323	054001	19590		STA	*+2
  3172	07324	001000	19600		JMP	*
PAGE 01  BSYM.VCD  06-APR-73  09:19:47.766

  3173	07325	007324	
  3174	07326	000000	19610	LEPSTB	+LEPD1		INACTIVE
  3175	07327	000000	19620		+LEPA		ACTIVE
  3176	07330	040662	19630		+LEPB		INPUT RING FULL
  3177	07331	000000	19640		+LEPC		GOING TO SLEEP
  3178	07332	040662	19650		+LEPB		INPUT RING ALMOST FULL
  3179	07333	011333	19660	LEPA	LDA	SORING
  3180	07334	151147	19670		ANA	=77
  3181	07335	121150	19680		ADD	=1644
  3182	07336	121334	19690		ADD	PAGE0
  3183	07337	050766	19700		STA	W5
  3184	07340	002000	19710		JMPM	LOOK
  3185	07341	013146	
  3186	07342	131151	19720		ERA	=20
  3187	07343	001030	19730		JIF	ABZERO,LEPD
  3188	07344	033400	
  3189	07345	131151	19740		ERA	=20
  3190	07346	050762	19750		STA	W1
  3191	07347	060763	19760		STB	W2
  3192	07350	041333	19770		INR	SORING
  3193	07351	010766	19780		LDA	W5
  3194	07352	121133	19790		ADD	=100
  3195	07353	002000	19800		JMPM	LOOK
  3196	07354	013146	
  3197	07355	050764	19810		STA	W3
  3198	07356	060765	19820		STB	W4
  3199	07357	010766	19830		LDA	W5
  3200	07360	121145	19840		ADD	=200
  3201	07361	002000	19850		JMPM	LOOK
  3202	07362	013146	
  3203	07363	130762	19860		ERA	W1
  3204	07364	130764	19870		ERA	W3
  3205	07365	121152	19880		ADD	=177401
  3206	07366	005014	19890		TAX
  3207	07367	005021	19900		TBA
  3208	07370	130763	19910		ERA	W2
  3209	07371	130765	19920		ERA	W4
  3210	07372	005111	19930		IAR
  3211	07373	001050	19940		JIF	AXZERO,LEPA1
  3212	07374	145400	
  3213	07375	050000	19950		STA	MR
  3214	07376	070001	19960		STX	MR+1
  3215	07377	010762	19970		LDA	W1
  3216	07400	050002	19980		STA	MR+2
  3217	07401	010763	19990		LDA	W2
  3218	07402	050003	20000		STA	MR+3
  3219	07403	010764	20010		LDA	W3
  3220	07404	050004	20020		STA	MR+4
  3221	07405	010765	20030		LDA	W4
  3222	07406	050005	20040		STA	MR+5
  3223	07407	002000	20050		JMPM	CR940
  3224	07410	013104	
  3225	07411	001000	20060		JMP	SECP
  3226	07412	000000	
PAGE 01  BSYM.VCD  06-APR-73  09:20:25.916

  3227	07413	020762	20070	LEPA1	LDB	W1
  3228	07414	010763	20080		LDA	W2
  3229	07415	004450	20090		LLRL	10
  3230	07416	060763	20100		STB	W2
  3231	07417	110764	20110		ORA	W3
  3232	07420	050764	20120		STA	W3
  3233	07421	011151	20130		LDA	=20
  3234	07422	005002	20140		TZB
  3235	07423	030766	20150		LDX	W5
  3236	07424	002000	20160		JMPM	IN
  3237	07425	013305	
  3238	07426	002004	20170		JANM	CR940
  3239	07427	013104	
  3240	07430	001000	20180		JMP	LEPE
  3241	07431	052142	
  3242	07432	      	20190	MR	R	*+6
  3243	      	      	20200	*
  3244	07440	011311	20210	LEPB	LDA	TIMEH
  3245	07441	141336	20220		SUB	STIME
  3246	07442	004342	20230		LSRA	(TICKSPS/600D)
  3247	07443	001010	20240		JAZ	*+6
  3248	07444	007451	
  3249	07445	002000	20250		JMPM	CR940
  3250	07446	013104	
  3251	07447	001000	20260		JMP	SECP
  3252	07450	000000	
  3253	07451	011332	20270		LDA	SIRING
  3254	07452	121153	20280		ADD	=60
  3255	07453	151101	20290		ANA	=377
  3256	07454	121154	20300		ADD	=244
  3257	07455	121334	20310		ADD	PAGE0
  3258	07456	002000	20320		JMPM	LOOK
  3259	07457	013146	
  3260	07460	131151	20330		ERA	=20
  3261	07461	001030	20340		JIF	ABZERO,*+4
  3262	07462	007465	
  3263	07463	001000	20350		JMP	SECP
  3264	07464	000000	
  3265	07465	005101	20360		INC	,A
  3266	07466	051331	20370		STA	SPSTAT
  3267	07467	011155	20380		LDA	=-40
  3268	07470	051303	20390		STA	SUCUNT
  3269	07471	001000	20400		JMP	LEPA
  3270	07472	000000	
  3271	07473	011156	20410	LEPC	LDA	=211
  3272	07474	002000	20420		JMPM	LOOK
  3273	07475	013146	
  3274	07476	001030	20430		JIF	ABZERO,*+4
  3275	07477	007502	
  3276	07500	001000	20440		JMP	LEPD
  3277	07501	033400	
  3278	07502	051331	20450		STA	SPSTAT
  3279	07503	011315	20460		LDA	USWICH
  3280	07504	005311	20470		DAR
PAGE 01  BSYM.VCD  06-APR-73  09:20:42.816

  3281	07505	001010	20480		JAZ	*+4
  3282	07506	007511	
  3283	07507	001000	20490		JMP	LEPD
  3284	07510	033400	
  3285	07511	051315	20500		STA	USWICH
  3286	07512	010100	20510	LEPD1	LDA	MACHNO
  3287	07513	141122	20520		SUB	=5
  3288	07514	001002	20530		JAP	LEPD
  3289	07515	033400	
  3290	07516	011156	20540		LDA	=211
  3291	07517	002000	20550		JMPM	LOOK
  3292	07520	013146	
  3293	07521	001020	20560		JBZ	LEPD
  3294	07522	033400	
  3295	07523	005311	20570		DAR
  3296	07524	002002	20580		JAPM	CR940
  3297	07525	013104	
  3298	07526	005021	20590		TBA
  3299	07527	141140	20600		SUB	=10
  3300	07530	002004	20610		JANM	CR940
  3301	07531	013104	
  3302	07532	141157	20620		SUB	=30
  3303	07533	002002	20630		JAPM	CR940
  3304	07534	013104	
  3305	07535	004053	20640		LRLB	13
  3306	07536	061334	20650		STB	PAGE0
  3307	07537	005001	20660		TZA
  3308	07540	051333	20670		STA	SORING
  3309	07541	051332	20680		STA	SIRING
  3310	07542	011315	20690		LDA	USWICH
  3311	07543	141124	20700		SUB	=2
  3312	07544	001004	20710		JAN	LEPD2
  3313	07545	000000	
  3314	07546	010100	20720		LDA	MACHNO
  3315	07547	121160	20730		ADD	=55500
  3316	07550	050764	20740		STA	W3
  3317	07551	005001	20750		TZA
  3318	07552	002000	20760		JMPM	LEPSEN
  3319	07553	000000	
  3320	07554	005101	20770	LEPD2	INC	,A
  3321	07555	051331	20780		STA	SPSTAT
  3322	07556	051315	20790		STA	USWICH
  3323	07557	010105	20800		LDA	N940L
  3324	07560	050764	20810		STA	W3
  3325	07561	010101	20820		LDA	101
  3326	07562	050765	20830		STA	W4
  3327	07563	005001	20840		TZA
  3328	07564	002000	20850		JMPM	LEPSEN
  3329	07565	000000	
  3330	07566	010005	20861	LEPD	LDA	ZAPCIR	ANY CIRCUIT TO ZAP
  3331	07567	001004	20862		JAN	LEPD2A	NO
  3332	07570	000000	
  3333	07571	141114	20863		SUB	=NBUF	'ZAPCIR' CONTAINS A BUFFER NUMBER
  3334	07572	001002	20864		JAP	LEPD1A
PAGE 01  BSYM.VCD  06-APR-73  09:20:54.816

  3335	07573	034542	
  3336	07574	121114	20865		ADD	=BUFERS+NBUF	GET BUFFER ADDRESS
  3337	07575	005014	20866		TAX
  3338	07576	002000	20867		JMPM	EMPTY
  3339	07577	000000	
  3340	07600	011073	20868		LDA	=3
  3341	07601	002000	20869		JMPM	WCI
  3342	07602	056661	
  3343	07603	005201	20870	LEPD1A	COM	,A
  3344	07604	050005	20871		STA	ZAPCIR	RESET
  3345	07605	010313	20879	LEPD2A	LDA	GENBUF
  3346	07606	151161	20880		ANA	=-776*(DUALBASE)-76*(#DUALBASE)	MASK FOR SUPEVISORY BUFFERS
  3347	07607	150773	20890		ANA	W10
  3348	07610	001010	20900		JAZ	SECP
  3349	07611	000000	
  3350	07612	002000	20910		JMPM	BID
  3351	07613	012311	
  3352	07614	005041	20920		TXA
  3353	07615	004241	20930		LRLA	1
  3354	07616	121101	20940		ADD	=BUFERS+SUPBUFFERS-1
  3355	07617	050762	20950		STA	W1
  3356	07620	005014	20960		TAX
  3357	07621	011162	20970		LDA	=W2
  3358	07622	050773	20980		STA	W10
  3359	07623	002000	20990		JMPM	GCI
  3360	07624	000000	
  3361	07625	004250	21000		LRLA	10
  3362	07626	050766	21010		STA	W5
  3363	07627	002000	21020		JMPM	GCI
  3364	07630	000000	
  3365	07631	110766	21030		ORA	W5
  3366	07632	057773	21040		STA	W10,7
  3367	07633	010773	21050		LDA	W10
  3368	07634	040773	21060		INR	W10
  3369	07635	141163	21070		SUB	=W4
  3370	07636	001004	21080		JAN	*-13
  3371	07637	007623	
  3372	07640	010763	21090	LEPE	LDA	W2
  3373	07641	001002	21100		JAP	*+11
  3374	07642	007652	
  3375	      	      	21110	* UPSTREAM RECORD
  3376	07643	031315	21120		LDX	USWICH
  3377	07644	001040	21130		JXZ	LEP
  3378	07645	000000	
  3379	07646	002000	21140		JMPM	LEPSN
  3380	07647	056635	
  3381	07650	001000	21150		JMP	LEP
  3382	07651	000000	
  3383	      	      	21160	* DOWNSTREAM RECORD
  3384	07652	151164	21170		ANA	=7777
  3385	07653	130100	21180		ERA	MACHNO
  3386	07654	001010	21190		JAZ	LEPDIS
  3387	07655	000000	
  3388	07656	010103	21200		LDA	DSWICH
PAGE 01  BSYM.VCD  06-APR-73  09:21:26.783

  3389	07657	001010	21210		JAZ	LEPRET
  3390	07660	152154	
  3391	07661	141134	21220		SUB	=NLINES+1
  3392	07662	001002	21230		JAP	LEPRET
  3393	07663	152154	
  3394	07664	004201	21240		ASLA	1
  3395	07665	121165	21250		ADD	=BUFERS+2*NLINES+SUPBUFFERS
  3396	07666	005014	21260		TAX
  3397	07667	002000	21270		JMPM	LEPSN
  3398	07670	056635	
  3399	07671	001000	21280		JMP	LEP
  3400	07672	000000	
  3401	      	      	21290	* RETURN ILLEGAL DOWNSTREAM RECORD
  3402	07673	010763	21300	LEPRET	LDA	W2
  3403	07674	050765	21310		STA	W4
  3404	07675	011070	21320		LDA	=20000
  3405	07676	002000	21330		JMPM	LEPSEN
  3406	07677	000000	
  3407	07700	001000	21340		JMP	LEP
  3408	07701	000000	
  3409	      	      	21350	* LEPRECHAUN DISPATCHER TO PROCESS SUPERVISOR COMMANDS
  3410	07702	010763	21360	LEPDIS	LDA	W2
  3411	07703	004354	21370		LSRA	14
  3412	07704	121077	21380		ADD	=LEPTAB+.
  3413	07705	054001	21390		STA	*+2
  3414	07706	001000	21400		JMP	*
  3415	07707	007706	
  3416	07710	000000	21410	LEPTAB	+LEP0; +LEP1; +LEP2; +LEP3; +LEP4; +LEP5; +LEP6; +LEPRET
  3417	07711	000000	
  3418	07712	000000	
  3419	07713	000000	
  3420	07714	053545	
  3421	07715	053525	
  3422	07716	000000	
  3423	07717	152154	
  3424	      	      	21420	* TAKEOVER COMMAND
  3425	07720	005001	21430	LEP0	TZA
  3426	07721	002000	21440		JMPM	LEPSEN
  3427	07722	000000	
  3428	07723	030762	21450		LDX	W1
  3429	07724	005344	21460		DXR
  3430	07725	071315	21470		STX	USWICH
  3431	07726	005001	21480		TZA
  3432	07727	055742	21490		STA	BC,5
  3433	07730	010105	21500		LDA	N940L
  3434	07731	050764	21510		STA	W3
  3435	07732	010101	21520		LDA	101
  3436	07733	050765	21530		STA	W4
  3437	07734	005001	21540		TZA
  3438	07735	002000	21550		JMPM	LEPSEN
  3439	07736	000000	
  3440	07737	001000	21560		JMP	LEP
  3441	07740	000000	
  3442	      	      	21570	* PLACE 2 CHARACTERS INTO A BUFFER
PAGE 01  BSYM.VCD  06-APR-73  09:22:12.533

  3443	07741	010764	21580	LEP1	LDA	W3
  3444	07742	121125	21590		ADD	=BUFERS
  3445	07743	005014	21600		TAX
  3446	07744	010765	21610		LDA	W4
  3447	07745	004350	21620		LSRA	10
  3448	07746	002000	21630		JMPM	WCI
  3449	07747	056661	
  3450	07750	010765	21640		LDA	W4
  3451	07751	002000	21650		JMPM	WCI
  3452	07752	056661	
  3453	07753	001000	21660		JMP	LEP
  3454	07754	000000	
  3455	      	      	21670	* CHANGE TABLE ENTRY
  3456	      	      	21680	* CHECK FOR VALID POINTER
  3457	07755	010764	21690	LEP2	LDA	W3
  3458	07756	004352	21700		LSRA	12
  3459	07757	005012	21710		TAB
  3460	07760	141122	21720		SUB	=NLINES
  3461	07761	001002	21730		JAP	LEP2C
  3462	07762	000000	
  3463	07763	010764	21740		LDA	W3
  3464	07764	151166	21750		ANA	=1776
  3465	07765	001010	21760		JAZ	LEPRET
  3466	07766	152154	
  3467	07767	004343	21770	LEP2B	LSRA	3
  3468	07770	126143	21780		ADD	IOTABS,6
  3469	07771	001002	21790		JAP	LEPRET
  3470	07772	152154	
  3471	      	      	21800	* COMPUTE ENTRY ADDRESS
  3472	07773	010764	21810		LDA	W3
  3473	07774	151167	21820		ANA	=1777
  3474	07775	050764	21830		STA	W3
  3475	07776	126132	21840		ADD	IOTA,6
  3476	07777	005014	21850		TAX
  3477	10000	070770	21860		STX	W7
  3478	10001	010765	21870		LDA	W4
  3479	10002	150276	21880		ANA	CMSK+17
  3480	10003	141114	21890		SUB	=NBUF
  3481	10004	001002	21900		JAP	LEPRET
  3482	10005	152154	
  3483	10006	015000	21910		LDA	0,5
  3484	10007	005111	21920		IAR
  3485	10010	001010	21930		JAZ	LEP2D
  3486	10011	000000	
  3487	10012	005311	21940		DAR
  3488	10013	150276	21950		ANA	CMSK+17
  3489	10014	131127	21960		ERA	=1
  3490	10015	121125	21970		ADD	=BUFERS
  3491	10016	005014	21980		TAX
  3492	10017	060771	21990		STB	W8
  3493	10020	002000	22000		JMPM	ZBF
  3494	10021	000000	
  3495	10022	020771	22010		LDB	W8
  3496	10023	030770	22020	LEP2D	LDX	W7
PAGE 01  BSYM.VCD  06-APR-73  09:22:27.316

  3497	10024	010765	22030		LDA	W4
  3498	10025	055000	22040		STA	0,5
  3499	      	      	22050	* GET BUFFER NUMBER
  3500	10026	130237	22060		ERA	MASK
  3501	10027	121125	22070		ADD	=BUFERS
  3502	10030	050767	22080		STA	W6
  3503	      	      	22090	* COMPUTE NEW BF
  3504	10031	016164	22100		LDA	GROUPI,6
  3505	10032	121170	22110		ADD	=CFOB-FLAG
  3506	10033	004244	22120		LRLA	4
  3507	10034	120764	22130		ADD	W3
  3508	10035	050770	22140		STA	W7
  3509	10036	020767	22150		LDB	W6
  3510	10037	036742	22160		LDX	BC,6
  3511	10040	005021	22170		TBA
  3512	10041	121114	22180		ADD	=NBUF
  3513	10042	005012	22190		TAB
  3514	10043	001040	22200		JXZ	LEP2A
  3515	10044	000000	
  3516	      	      	22210	* TURN OFF OLD BIT, TURN ON NEW BIT
  3517	10045	016742	22220		LDA	BC,6
  3518	10046	002000	22230		JMPM	BITADD
  3519	10047	013116	
  3520	10050	005211	22240		COM	A,A
  3521	10051	156313	22250		ANA	FLAG,6
  3522	10052	056313	22260		STA	FLAG,6
  3523	10053	010770	22270		LDA	W7
  3524	10054	002000	22280		JMPM	BITADD
  3525	10055	013116	
  3526	10056	116313	22290		ORA	FLAG,6
  3527	10057	056313	22300		STA	FLAG,6
  3528	10060	010767	22310		LDA	W6
  3529	10061	121114	22320		ADD	=NBUF
  3530	10062	005012	22330		TAB
  3531	10063	010770	22340	LEP2A	LDA	W7
  3532	10064	056742	22350		STA	BC,6
  3533	10065	011171	22360		LDA	=100001
  3534	10066	050764	22370		STA	W3
  3535	10067	011172	22380		LDA	=30000
  3536	10070	002000	22390		JMPM	LEPSEN
  3537	10071	000000	
  3538	10072	001000	22400		JMP	LEP
  3539	10073	000000	
  3540	10074	141073	22410	LEP2C	SUB	=MAXLINES-NLINES
  3541	10075	005014	22420		TAX
  3542	10076	010764	22430		LDA	W3
  3543	10077	151167	22440		ANA	=1777
  3544	10100	001040	22450		JXZ	LEP2B
  3545	10101	000000	
  3546	10102	001000	22460		JMP	LEPRET
  3547	10103	152154	
  3548	      	      	22470	* CHANGE CELL OR SPECIAL MESSAGE
  3549	10104	010764	22480	LEP3	LDA	W3
  3550	10105	001004	22520		JAN	LEPS
PAGE 01  BSYM.VCD  06-APR-73  09:22:42.516

  3551	10106	000000	
  3552	10107	141173	22540		SUB	=DLOCK
  3553	10110	004347	22550		LSRA	7+(#DUALBASE)
  3554	10111	001010	22560		JAZ	*+5
  3555	10112	010116	
  3556	10113	010102	22570		LDA	DLOCK
  3557	10114	001002	22580		JAP	LEP
  3558	10115	000000	
  3559	10116	010765	22590		LDA	W4
  3560	10117	057764	22600		STA	W3,7
  3561	10120	001000	22610		JMP	LEP
  3562	10121	000000	
  3563	10122	151147	22630	LEPS	ANA	=77
  3564	10123	141124	22640		SUB	=2
  3565	10124	001010	22650		JAZ	*+4
  3566	10125	010130	
  3567	10126	001000	22660		JMP	LEPRET
  3568	10127	152154	
  3569	10130	011073	22670		LDA	=3
  3570	10131	051331	22680		STA	SPSTAT
  3571	10132	031127	22690		LDX	=BUFERS+1
  3572	10133	002000	22700		JMPM	WCI
  3573	10134	056661	
  3574	10135	001000	22710		JMP	LEP
  3575	10136	000000	
  3576	      	      	22730	* REQUEST 2 CELLS
  3577	10137	010765	22740	LEP4	LDA	W4
  3578	10140	050766	22750		STA	W5
  3579	10141	017764	22760		LDA	W3,7
  3580	10142	050765	22770		STA	W4
  3581	10143	011172	22780		LDA	=30000
  3582	10144	002000	22790		JMPM	LEPSEN
  3583	10145	000000	
  3584	10146	010766	22800		LDA	W5
  3585	10147	050764	22810		STA	W3
  3586	10150	017764	22820		LDA	W3,7
  3587	10151	050765	22830		STA	W4
  3588	10152	011172	22840		LDA	=30000
  3589	10153	002000	22850		JMPM	LEPSEN
  3590	10154	000000	
  3591	10155	001000	22860		JMP	LEP
  3592	10156	000000	
  3593	      	      	22870	* INPUT A MESSAGE TO THE HOST
  3594	10157	010764	22890	LEP5	LDA	W3
  3595	10160	004350	22900		LSRA	10
  3596	10161	151073	22910		ANA	=3
  3597	10162	005014	22920		TAX
  3598	10163	070770	22930		STX	W7
  3599	10164	121077	22940		ADD	=LEP5T+.
  3600	10165	054001	22950		STA	*+2
  3601	10166	001000	22960		JMP	*
  3602	10167	010166	
  3603	10170	000000	22970	LEP5T	+LEP51; +LEP52; +LEP7; +LEP7
  3604	10171	000000	
PAGE 01  BSYM.VCD  06-APR-73  09:23:09.416

  3605	10172	000000	
  3606	10173	000000	
  3607	10174	010107	22980	LEP51	LDA	UPDOWN
  3608	10175	001004	22990		JAN	LEPRET
  3609	10176	152154	
  3610	10177	011316	23000		LDA	ICOUNT
  3611	10200	001004	23010		JAN	*+7
  3612	10201	010207	
  3613	10202	002000	23020		JMPM	UPDATE
  3614	10203	013361	
  3615	10204	010107	23030		LDA	UPDOWN
  3616	10205	001004	23040	LEP5D1	JAN	LEP
  3617	10206	000000	
  3618	10207	011316	23050		LDA	ICOUNT
  3619	10210	001002	23060		JAP	LEP
  3620	10211	000000	
  3621	10212	010764	23070		LDA	W3
  3622	10213	151101	23080		ANA	=377
  3623	10214	141145	23090		SUB	=200
  3624	10215	001002	23100		JAP	LEPRET
  3625	10216	152154	
  3626	10217	121145	23110		ADD	=200
  3627	10220	002000	23120		JMPM	BITADD
  3628	10221	013116	
  3629	10222	010765	23130		LDA	W4
  3630	10223	004350	23140		LSRA	10
  3631	10224	050767	23150		STA	W6
  3632	10225	141170	23160		SUB	=11
  3633	10226	001010	23170		JAZ	*+4
  3634	10227	010232	
  3635	10230	001000	23180		JMP	LEP5B1
  3636	10231	056711	
  3637	10232	015237	23190	LEP5A1	LDA	MASK,5
  3638	10233	156752	23200		ANA	ACTPRT,6
  3639	10234	001010	23210		JAZ	LEP5C1
  3640	10235	000000	
  3641	10236	010764	23220		LDA	W3
  3642	10237	151101	23230		ANA	=377
  3643	10240	004241	23240		LRLA	1
  3644	10241	121127	23250		ADD	=BUFERS+1
  3645	10242	005014	23260		TAX
  3646	10243	011073	23270		LDA	=3
  3647	10244	002000	23280		JMPM	WCI
  3648	10245	056661	
  3649	10246	001000	23290		JMP	LEP
  3650	10247	000000	
  3651	10250	015237	23300	LEP5C1	LDA	MASK,5
  3652	10251	116752	23310		ORA	ACTPRT,6
  3653	10252	056752	23320		STA	ACTPRT,6
  3654	10253	010765	23330		LDA	W4
  3655	10254	004546	23340		LLSR	6
  3656	10255	004142	23350		LSRB	2
  3657	10256	010764	23360		LDA	W3
  3658	10257	004550	23370		LLSR	10
PAGE 01  BSYM.VCD  06-APR-73  09:23:26.450

  3659	10260	010770	23380		LDA	W7
  3660	10261	121077	23390		ADD	=LEP5CT+.
  3661	10262	054001	23400		STA	*+2
  3662	10263	001000	23410		JMP	*
  3663	10264	010263	
  3664	10265	000000	23420	LEP5CT	+LEP5C2; +LEP5C3
  3665	10266	047000	
  3666	10267	011317	23430	LEP5C2	LDA	IRING
  3667	10270	041317	23440		INR	IRING
  3668	10271	041316	23450		INR	ICOUNT
  3669	10272	151147	23460		ANA	=77
  3670	10273	004241	23470		LRLA	1
  3671	10274	121174	23480		ADD	=50000
  3672	10275	005014	23490		TAX
  3673	10276	010767	23500		LDA	W6
  3674	10277	002000	23510		JMPM	IN940
  3675	10300	013320	
  3676	10301	100030	23520		EXC	30
  3677	10302	001000	23530		JMP	LEP
  3678	10303	000000	
  3679	10304	011322	23540	LEP5C3	LDA	IRING1
  3680	10305	041322	23550		INR	IRING1
  3681	10306	041321	23560		INR	ICNT1
  3682	10307	151147	23570		ANA	=77
  3683	10310	004241	23580		LRLA	1
  3684	10311	121174	23590		ADD	=50000
  3685	10312	005014	23600		TAX
  3686	10313	010767	23610		LDA	W6
  3687	10314	002000	23620		JMPM	INN941
  3688	10315	014326	
  3689	10316	100230	23630		EXC	230
  3690	10317	001000	23640		JMP	LEP
  3691	10320	000000	
  3692	10321	005311	23650	LEP5B1	DAR
  3693	10322	001010	23660		JAZ	LEP5A1
  3694	10323	000000	
  3695	10324	121122	23670		ADD	=5
  3696	10325	001010	23680		JAZ	*+4
  3697	10326	010331	
  3698	10327	001000	23690		JMP	LEPRET
  3699	10330	152154	
  3700	10331	010764	23700		LDA	W3
  3701	10332	001004	23710		JAN	*+3
  3702	10333	010335	
  3703	10334	151101	23720		ANA	=377
  3704	10335	051305	23730		STA	SPORT
  3705	10336	011155	23740		LDA	=-40
  3706	10337	051304	23750		STA	SCOUNT
  3707	10340	001000	23760		JMP	LEP5C1+3
  3708	10341	000003	
  3709	10342	010111	23770	LEP52	LDA	UPDN1
  3710	10343	001004	23780		JAN	LEPRET
  3711	10344	152154	
  3712	10345	011321	23790		LDA	ICNT1
PAGE 01  BSYM.VCD  06-APR-73  09:23:38.200

  3713	10346	001004	23800		JAN	LEP5D1+5
  3714	10347	140405	
  3715	10350	002000	23810		JMPM	UUPDT1
  3716	10351	014372	
  3717	10352	010111	23820		LDA	UPDN1
  3718	10353	001004	23830		JAN	LEP
  3719	10354	000000	
  3720	10355	011321	23840		LDA	ICNT1
  3721	10356	001002	23850		JAP	LEP
  3722	10357	000000	
  3723	10360	001000	23860		JMP	LEP5D1+5
  3724	10361	140405	
  3725	      	      	24800	* READ AND WRITE FROM HOST
  3726	      	010362	24810	LEP6	E	*
  3727	10362	010764	24830		LDA	W3
  3728	10363	150254	24840		ANA	MASK+15
  3729	10364	001010	24850		JAZ	LEP6A
  3730	10365	050000	
  3731	10366	017043	24860		LDA	LEP6T1+2
  3732	10367	050004	24870		STA	LEP63+4
  3733	10370	017044	24880		LDA	LEP6T1+3
  3734	10371	057045	24890		STA	LEP64+2
  3735	10372	001000	24900		JMP	LEP6B
  3736	10373	152156	
  3737	10374	017046	24910	LEP6A	LDA	LEP6T1
  3738	10375	050004	24920		STA	LEP63+4
  3739	10376	017047	24930		LDA	LEP6T1+1
  3740	10377	001000	24940		JMP	LEP6A-3
  3741	10400	047775	
  3742	10401	013305	24950	LEP6T1	+IN; +LOOK; +INN; +LOOOK
  3743	10402	013146	
  3744	10403	014320	
  3745	10404	014156	
  3746	10405	010764	24960	LEP6B	LDA	W3
  3747	10406	004350	24970		LSRA	10
  3748	10407	151104	24980		ANA	=7
  3749	10410	121077	24990		ADD	=LEP6TB+.
  3750	10411	054001	25060		STA	*+2
  3751	10412	001000	25070		JMP	*
  3752	10413	010412	
  3753	10414	152154	25080	LEP6TB	+LEPRET; +LEP61; +LEP62; +LEP63; +LEP64
  3754	10415	000000	
  3755	10416	000000	
  3756	10417	000000	
  3757	10420	051544	
  3758	10421	152154	25090		+LEPRET; +LEPRET; +LEPRET
  3759	10422	152154	
  3760	10423	152154	
  3761	10424	010765	25100	LEP61	LDA	W4
  3762	10425	057050	25110		STA	LEP6LD
  3763	10426	010764	25120		LDA	W3
  3764	10427	057040	25130		STA	LEP6MD
  3765	10430	001000	25140		JMP	LEP
  3766	10431	000000	
PAGE 01  BSYM.VCD  06-APR-73  09:23:50.416

  3767	10432	010764	25150	LEP62	LDA	W3
  3768	10433	020765	25160		LDB	W4
  3769	10434	004450	25170		LLRL	10
  3770	10435	057051	25180		STA	LEP6HD
  3771	10436	005021	25190		COP	B,A
  3772	10437	137040	25200		ERA	LEP6MD
  3773	10440	151137	25210		ANA	=177400
  3774	10441	137040	25220		ERA	LEP6MD
  3775	10442	057040	25230		STA	LEP6MD
  3776	10443	001000	25240		JMP	LEP
  3777	10444	000000	
  3778	      	010445	25250	LEP63	E	*
  3779	10445	027050	25520		LDB	LEP6LD
  3780	10446	017040	25530		LDA	LEP6MD
  3781	10447	030765	25540		LDX	W4
  3782	10450	002000	25550		JMPM	IN
  3783	10451	013305	
  3784	10452	001000	25560		JMP	LEP
  3785	10453	000000	
  3786	      	010454	25580	LEP64	E	*
  3787	10454	010765	25870		LDA	W4
  3788	10455	002000	25880		JMPM	LOOK
  3789	10456	013146	
  3790	10457	057040	25890		STA	LEP6MD
  3791	10460	067050	25900		STB	LEP6LD
  3792	10461	002000	25910		JMPM	LEP64A
  3793	10462	000000	
  3794	10463	001000	25920		JMP	LEP
  3795	10464	000000	
  3796	10465	000000	25940	LEP64A	0
  3797	10466	017040	25950		LDA	LEP6MD
  3798	10467	151101	25960		ANA	=377
  3799	10470	110247	25970		ORA	MASK+10
  3800	10471	050764	25980		STA	W3
  3801	10472	017050	25990		LDA	LEP6LD
  3802	10473	050765	26000		STA	W4
  3803	10474	011175	26010		LDA	=60000
  3804	10475	002000	26020		JMPM	LEPSEN
  3805	10476	000000	
  3806	10477	001000	26030		JMP	LEP64A+.
  3807	10500	100000	
  3808	10501	000000	26040	LEP64B	0
  3809	10502	017051	26050		LDA	LEP6HD
  3810	10503	027040	26060		LDB	LEP6MD
  3811	10504	004550	26070		LLSR	10
  3812	10505	060765	26080		STB	W4
  3813	10506	110250	26090		ORA	MASK+11
  3814	10507	050764	26100		STA	W3
  3815	10510	011175	26110		LDA	=60000
  3816	10511	002000	26120		JMPM	LEPSEN
  3817	10512	000000	
  3818	10513	001000	26130		JMP	LEP64B+.
  3819	10514	153511	
  3820	10515	000000	26140	LEP6LD	0
PAGE 01  BSYM.VCD  06-APR-73  09:24:06.550

  3821	10516	000000	26150	LEP6MD	0
  3822	10517	000000	26160	LEP6HD	0
  3823	      	      	26170	* CRASH SUPERVISOR TYPE 7
  3824	10520	011176	26180	LEP7	LDA	=70000
  3825	10521	002000	26190		JMPM	LEPSEN
  3826	10522	000000	
  3827	10523	001000	26200		JMP	LEP
  3828	10524	000000	
  3829	      	      	26210	* SEND RECORD UPSTREAM
  3830	10525	000000	26220	LEPSEN	0
  3831	10526	031315	26230		LDX	USWICH
  3832	10527	001040	26240		JXZ	LEPSEN+.
  3833	10530	100000	
  3834	10531	110100	26250		ORA	MACHNO
  3835	10532	111077	26260		ORA	=.
  3836	10533	050763	26270		STA	W2
  3837	10534	002000	26280		JMPM	LEPSN
  3838	10535	056635	
  3839	10536	001000	26290		JMP	LEPSEN+.
  3840	10537	100000	
  3841	      	      	26300	* SEND A RECORD
  3842	10540	000000	26310	LEPSN	0
  3843	10541	005342	26330		DEC	X,B
  3844	10542	001020	26340		JBZ	LEPSNA
  3845	10543	000000	
  3846	10544	011162	26360		LDA	=W2
  3847	10545	050773	26370		STA	W10
  3848	10546	017773	26380		LDA	W10,7
  3849	10547	004350	26390		LSRA	10
  3850	10550	002000	26400		JMPM	WCI
  3851	10551	056661	
  3852	10552	017773	26410		LDA	W10,7
  3853	10553	002000	26420		JMPM	WCI
  3854	10554	056661	
  3855	10555	010773	26430		LDA	W10
  3856	10556	040773	26440		INR	W10
  3857	10557	141163	26450		SUB	=W4
  3858	10560	001004	26460		JAN	*-12
  3859	10561	010546	
  3860	10562	001000	26470		JMP	LEPSN+.
  3861	10563	156635	
  3862	10564	011331	26500	LEPSNA	LDA	SPSTAT
  3863	10565	141124	26510		SUB	=2
  3864	10566	004341	26520		LSRA	1
  3865	10567	001010	26530		JAZ	LEPSN+.
  3866	10570	156635	
  3867	10571	011177	26540		LDA	=-4
  3868	10572	051314	26550		STA	SACTIV
  3869	10573	011332	26560		LDA	SIRING
  3870	10574	151101	26570		ANA	=377
  3871	10575	121200	26580		ADD	=644
  3872	10576	121334	26590		ADD	PAGE0
  3873	10577	005014	26600		TAX
  3874	10600	020765	26610		LDB	W4
PAGE 01  BSYM.VCD  06-APR-73  09:24:28.066

  3875	10601	010764	26620		LDA	W3
  3876	10602	002000	26630		JMPM	IN
  3877	10603	013305	
  3878	10604	001004	26640		JAN	LEPSD
  3879	10605	047216	
  3880	10606	005041	26650		TXA
  3881	10607	121131	26660		ADD	=400
  3882	10610	005014	26670		TAX
  3883	10611	010763	26680		LDA	W2
  3884	10612	020764	26690		LDB	W3
  3885	10613	004450	26700		LLRL	10
  3886	10614	130765	26710		ERA	W4
  3887	10615	005212	26720		COM	A,B
  3888	10616	010763	26730		LDA	W2
  3889	10617	004350	26740		LSRA	10
  3890	10620	130764	26750		ERA	W3
  3891	10621	005211	26760		COM	A,A
  3892	10622	002000	26770		JMPM	IN
  3893	10623	013305	
  3894	10624	001004	26780		JAN	LEPSD
  3895	10625	047216	
  3896	10626	005041	26790		TXA
  3897	10627	141201	26800		SUB	=1000
  3898	10630	005014	26810		TAX
  3899	10631	020764	26820		LDB	W3
  3900	10632	010763	26830		LDA	W2
  3901	10633	004550	26840		LLSR	10
  3902	10634	002000	26850		JMPM	IN
  3903	10635	013305	
  3904	10636	001004	26860		JAN	LEPSD
  3905	10637	047216	
  3906	10640	041332	26870		INR	SIRING
  3907	10641	041303	26880		INR	SUCUNT
  3908	10642	011303	26890		LDA	SUCUNT
  3909	10643	001004	26900		JAN	LEPSN+.
  3910	10644	156635	
  3911	10645	011332	26910		LDA	SIRING
  3912	10646	151101	26920		ANA	=377
  3913	10647	121154	26930		ADD	=244
  3914	10650	121334	26940		ADD	PAGE0
  3915	10651	002000	26950		JMPM	LOOK
  3916	10652	013146	
  3917	10653	131151	26960		ERA	=20
  3918	10654	001030	26970		JIF	ABZERO,*+4
  3919	10655	010660	
  3920	10656	041335	26980		INR	SFULL
  3921	10657	011143	26990		LDA	=-2
  3922	10660	121107	27000		ADD	=4
  3923	10661	051331	27010		STA	SPSTAT
  3924	10662	011311	27020		LDA	TIMEH
  3925	10663	051336	27030		STA	STIME
  3926	10664	001000	27040		JMP	LEPSN+.
  3927	10665	156635	
  3928	10666	002000	27050	LEPSD	JMPM	CR940
PAGE 01  BSYM.VCD  06-APR-73  09:24:28.600

  3929	10667	013104	
  3930	10670	001000	27060		JMP	LEP
  3931	10671	000000	
  3932	10672	011312	27080	SECP	LDA	TIMEL
  3933	10673	141307	27090		SUB	TIMSEC
  3934	10674	141202	27100		SUB	=TICKSPS/2
  3935	10675	001004	27110		JAN	SEC+.
  3936	10676	100000	
  3937	10677	011312	27120		LDA	TIMEL
  3938	10700	051307	27130		STA	TIMSEC
  3939	      	      	27140	* HALF SECOND LOGIC
  3940	      	      	27150	* MAYBE SEND IN TYPE 10 FOR PORT BLOCKED ON OUTPUT
  3941	10701	010107	27170		LDA	UPDOWN
  3942	10702	001004	27180		JAN	SUP
  3943	10703	000000	
  3944	10704	005002	27190		TZB
  3945	10705	060762	27200	TYPE10	STB	W1
  3946	10706	005201	27210		COM	,A
  3947	10707	050763	27220		STA	W2
  3948	10710	016742	27230		LDA	STOPO,6
  3949	10711	150763	27240		ANA	W2
  3950	10712	001010	27250		JAZ	TYP10A
  3951	10713	000000	
  3952	10714	002000	27260		JMPM	BID
  3953	10715	012311	
  3954	10716	015257	27270		LDA	CMSK,5
  3955	10717	150763	27280		ANA	W2
  3956	10720	050763	27290		STA	W2
  3957	10721	005021	27300		TBA
  3958	10722	004244	27310		LRLA	4
  3959	10723	005051	27320		COP	AX,A
  3960	10724	004241	27330		LRLA	1
  3961	10725	050764	27340		STA	W3
  3962	10726	121127	27350		ADD	=BUFERS+1
  3963	10727	005012	27360		TAB
  3964	10730	016742	27370		LDA	BC,6
  3965	10731	141074	27380		SUB	=40
  3966	10732	020762	27390		LDB	W1
  3967	10733	001002	27400		JAP	TYPE10+3
  3968	10734	000003	
  3969	10735	011316	27410		LDA	ICOUNT
  3970	10736	001004	27420		JAN	*+7
  3971	10737	010745	
  3972	10740	002000	27430		JMPM	UPDATE
  3973	10741	013361	
  3974	10742	011316	27440		LDA	ICOUNT
  3975	10743	001002	27450		JAP	HSEC2-4
  3976	10744	030374	
  3977	10745	020762	27460		LDB	W1
  3978	10746	015257	27470		LDA	CMSK,5
  3979	10747	156742	27480		ANA	STOPO,6
  3980	10750	056742	27490		STA	STOPO,6
  3981	10751	011317	27500		LDA	IRING
  3982	10752	041317	27510		INR	IRING
PAGE 01  BSYM.VCD  06-APR-73  09:24:45.650

  3983	10753	041316	27520		INR	ICOUNT
  3984	10754	151147	27530		ANA	=77
  3985	10755	004241	27540		LRLA	1
  3986	10756	121174	27550		ADD	=50000
  3987	10757	005014	27560		TAX
  3988	10760	020764	27570		LDB	W3
  3989	10761	004047	27580		LRLB	7
  3990	10762	011140	27590		LDA	=10
  3991	10763	002000	27600		JMPM	IN940
  3992	10764	013320	
  3993	10765	100030	27610		EXC	30
  3994	10766	020762	27620		LDB	W1
  3995	10767	001000	27630		JMP	TYPE10+3
  3996	10770	000003	
  3997	10771	005123	27640	TYP10A	INC	B,AB
  3998	10772	141107	27650		SUB	=4
  3999	10773	001004	27660		JAN	TYPE10
  4000	10774	000000	
  4001	10775	011314	27670	SUP	LDA	SACTIV
  4002	10776	001002	27680		JAP	HSEC2-4
  4003	10777	030374	
  4004	11000	041314	27690		INR	SACTIV
  4005	11001	031125	27700		LDX	=BUFERS
  4006	11002	011203	27710		LDA	=215
  4007	11003	002000	27720		JMPM	WCI
  4008	11004	056661	
  4009	11005	010111	27730		LDA	UPDN1
  4010	11006	001004	27740		JAN	RBS1-2
  4011	11007	177776	
  4012	11010	021107	27750		LDB	=4
  4013	11011	060762	27760	HSEC2	STB	W1
  4014	11012	005201	27770		COM	,A
  4015	11013	050763	27780		STA	W2
  4016	11014	016742	27790		LDA	STOPO,6
  4017	11015	150763	27800		ANA	W2
  4018	11016	001010	27810		JAZ	HSEC2A
  4019	11017	000000	
  4020	11020	002000	27820		JMPM	BID
  4021	11021	012311	
  4022	11022	015257	27830		LDA	CMSK,5
  4023	11023	150763	27840		ANA	W2
  4024	11024	050763	27850		STA	W2
  4025	11025	005021	27860		TBA
  4026	11026	004244	27870		LRLA	4
  4027	11027	005051	27880		COP	AX,A
  4028	11030	004241	27890		LRLA	1
  4029	11031	050764	27900		STA	W3
  4030	11032	121127	27910		ADD	=BUFERS+1
  4031	11033	005012	27920		TAB
  4032	11034	016742	27930		LDA	BC,6
  4033	11035	141074	27940		SUB	=40
  4034	11036	020762	27950		LDB	W1
  4035	11037	001002	27960		JAP	HSEC2+3
  4036	11040	030403	
PAGE 01  BSYM.VCD  06-APR-73  09:25:12.483

  4037	11041	011321	27970		LDA	ICNT1
  4038	11042	001004	27980		JAN	*+7
  4039	11043	011051	
  4040	11044	002000	27990		JMPM	UUPDT1
  4041	11045	014372	
  4042	11046	011321	28000		LDA	ICNT1
  4043	11047	001002	28010		JAP	RBS1-2
  4044	11050	177776	
  4045	11051	020762	28020		LDB	W1
  4046	11052	015257	28030		LDA	CMSK,5
  4047	11053	156742	28040		ANA	STOPO,6
  4048	11054	056742	28050		STA	STOPO,6
  4049	11055	011322	28060		LDA	IRING1
  4050	11056	041322	28070		INR	IRING1
  4051	11057	041321	28080		INR	ICNT1
  4052	11060	151147	28090		ANA	=77
  4053	11061	004241	28100		LRLA	1
  4054	11062	121174	28110		ADD	=50000
  4055	11063	005014	28120		TAX
  4056	11064	020764	28130		LDB	W3
  4057	11065	004047	28140		LRLB	7
  4058	11066	011140	28150		LDA	=10
  4059	11067	002000	28160		JMPM	INN941
  4060	11070	014326	
  4061	11071	100230	28170		EXC	230
  4062	11072	020762	28180		LDB	W1
  4063	11073	001000	28190		JMP	HSEC2+3
  4064	11074	030403	
  4065	11075	005123	28200	HSEC2A	INC	B,AB
  4066	11076	141140	28210		SUB	=10
  4067	11077	001004	28220		JAN	HSEC2
  4068	11100	030400	
  4069	      	      	29070	* RESTRICTED BUFFER SOURCE
  4070	      	      	29080	* SEND A ONE BIT FOR EACH CHANNEL WHICH MAY RECEIVE MORE CHARACTERS
  4071	11101	011122	29090		LDA	=NLINES
  4072	11102	050762	29100		STA	W1
  4073	11103	020762	29110	RBS1	LDB	W1
  4074	11104	001020	29120		JBZ	SECP4A
  4075	11105	056725	
  4076	11106	005322	29130		DBR
  4077	11107	060762	29140		STB	W1
  4078	11110	036132	29150		LDX	IOTA,6
  4079	11111	015001	29160		LDA	1,5
  4080	11112	150276	29170		ANA	CMSK+17
  4081	11113	121142	29180		ADD	=BUFERS-1
  4082	11114	005014	29190		TAX
  4083	      	      	29200	* SEE IF OUTPUT BUFFER IS EMPTY
  4084	11115	015742	29210		LDA	BC,5
  4085	11116	005311	29220		DAR
  4086	11117	001002	29230		JAP	RBS5
  4087	11120	000000	
  4088	11121	070763	29240		STX	W2
  4089	11122	016132	29250		LDA	IOTA,6
  4090	11123	050764	29260		STA	W3
PAGE 01  BSYM.VCD  06-APR-73  09:25:23.316

  4091	11124	016143	29270		LDA	IOTABS,6
  4092	11125	050765	29280		STA	W4
  4093	11126	020246	29290	RBS2	LDB	MASK+7
  4094	11127	017764	29300		LDA	W3,7
  4095	11130	040764	29310		INR	W3
  4096	11131	121125	29320		ADD	=BUFERS
  4097	11132	005014	29330		TAX
  4098	11133	001004	29340		JAN	RBS4
  4099	11134	000000	
  4100	11135	015742	29350		LDA	BC,5
  4101	11136	141074	29360		SUB	=40
  4102	      	      	29370	* NOTE THAT BUFFER -1 IS ALWAYS "EMPTY"
  4103	11137	004441	29380	RBS3	LLRL	1
  4104	11140	005021	29390		TBA
  4105	11141	001002	29400		JAP	RBS2+1
  4106	11142	042631	
  4107	11143	030763	29410		LDX	W2
  4108	11144	002000	29420		JMPM	WCI
  4109	11145	056661	
  4110	11146	040765	29430		INR	W4
  4111	11147	010765	29440		LDA	W4
  4112	11150	001004	29450		JAN	RBS2
  4113	11151	042630	
  4114	11152	001000	29460		JMP	RBS1
  4115	11153	000000	
  4116	11154	015742	29470	RBS4	LDA	BC,5
  4117	11155	141145	29480		SUB	=200
  4118	11156	001000	29490		JMP	RBS3
  4119	11157	000000	
  4120	11160	046702	29500	RBS5	INR	LINSAT,6
  4121	11161	001000	29510		JMP	RBS1
  4122	11162	000000	
  4123	11163	031204	29520	SECP4A	LDX	=PW12
  4124	11164	015000	29530		LDA	0,5
  4125	11165	001010	29540		JAZ	INT
  4126	11166	033000	
  4127	11167	141125	29550		SUB	=BUFERS
  4128	11170	050765	29560		STA	W4
  4129	11171	005001	29570		TZA
  4130	11172	055000	29580		STA	0,5
  4131	11173	011205	29590		LDA	=100003
  4132	11174	050764	29600		STA	W3
  4133	11175	011172	29610		LDA	=30000
  4134	11176	002000	29620		JMPM	LEPSEN
  4135	11177	000000	
  4136	11200	031206	29630	INT	LDX	=IOTABI+17
  4137	11201	015000	29640		LDA	0,5
  4138	11202	121207	29650		ADD	=BUFERS+BC
  4139	11203	150276	29660		ANA	CMSK+17
  4140	11204	050762	29670		STA	W1
  4141	11205	017762	29680		LDA	W1,7
  4142	11206	141145	29690		SUB	=200
  4143	11207	004441	29700		LLRL	1
  4144	11210	005345	29710		DEC	X,AX
PAGE 01  BSYM.VCD  06-APR-73  09:25:53.166

  4145	11211	141210	29720		SUB	=IOTABI
  4146	11212	001002	29730		JAP	INT+1
  4147	11213	033001	
  4148	11214	010441	29740		LDA	RSBF+NUMGRP-1
  4149	11215	005031	29750		COP	AB,A
  4150	11216	050441	29760		STA	RSBF+NUMGRP-1
  4151	11217	010355	29770	INT1	LDA	CFOB+NUMGRP-1
  4152	11220	150441	29780		ANA	RSBF+NUMGRP-1
  4153	11221	001010	29790		JAZ	SECP4
  4154	11222	052154	
  4155	11223	002000	29800		JMPM	BID
  4156	11224	012311	
  4157	11225	070762	29810		STX	W1
  4158	11226	005041	29820		TXA
  4159	11227	121210	29830		ADD	=IOTABI
  4160	11230	050763	29840		STA	W2
  4161	11231	005041	29850		TXA
  4162	11232	130237	29860		ERA	MASK
  4163	11233	121210	29870		ADD	=IOTABI
  4164	11234	050764	29880		STA	W3
  4165	11235	017764	29890		LDA	W3,7
  4166	11236	121125	29900		ADD	=BUFERS
  4167	11237	150276	29910		ANA	CMSK+17
  4168	11240	050765	29920		STA	W4
  4169	11241	017763	29930		LDA	W2,7
  4170	11242	121127	29940		ADD	=BUFERS+1
  4171	11243	150276	29950		ANA	CMSK+17
  4172	11244	005014	29960		TAX
  4173	11245	002000	29970		JMPM	GCI
  4174	11246	000000	
  4175	11247	050766	29980		STA	W5
  4176	11250	004342	29990		LSRA	2
  4177	11251	001010	30000		JAZ	INT3
  4178	11252	056615	
  4179	11253	030765	30010		LDX	W4
  4180	11254	010766	30020		LDA	W5
  4181	11255	002000	30030	INT2	JMPM	WCI
  4182	11256	056661	
  4183	11257	015742	30040		LDA	BC,5
  4184	11260	141145	30050		SUB	=200
  4185	11261	001004	30060		JAN	INT1
  4186	11262	000000	
  4187	11263	010441	30070		LDA	RSBF+NUMGRP-1
  4188	11264	030762	30080		LDX	W1
  4189	11265	155257	30090		ANA	CMSK,5
  4190	11266	050441	30100		STA	RSBF+NUMGRP-1
  4191	11267	001000	30110		JMP	INT1
  4192	11270	000000	
  4193	11271	010766	30120	INT3	LDA	W5
  4194	11272	141124	30130		SUB	=2
  4195	11273	001010	30140		JAZ	INT5
  4196	11274	056655	
  4197	11275	001002	30150		JAP	INT4
  4198	11276	031400	
PAGE 01  BSYM.VCD  06-APR-73  09:26:13.116

  4199	11277	002000	30160		JMPM	GCI
  4200	11300	000000	
  4201	11301	050767	30170		STA	W6
  4202	11302	010766	30180		LDA	W5
  4203	11303	030765	30190		LDX	W4
  4204	11304	002000	30200		JMPM	WCI
  4205	11305	056661	
  4206	11306	010767	30210		LDA	W6
  4207	11307	001000	30220		JMP	INT2
  4208	11310	000000	
  4209	11311	005201	30230	INT4	COM	,A
  4210	11312	057763	30240		STA	W2,7
  4211	11313	002000	30250		JMPM	ZBF
  4212	11314	000000	
  4213	11315	010765	30260	INT5	LDA	W4
  4214	11316	005014	30270		TAX
  4215	11317	141125	30280		SUB	=BUFERS
  4216	11320	001004	30290		JAN	INT1
  4217	11321	000000	
  4218	11322	002000	30300		JMPM	RT8
  4219	11323	000000	
  4220	11324	001000	30310		JMP	INT2-1
  4221	11325	177777	
  4222	11326	010107	30330	SECP4	LDA	UPDOWN
  4223	11327	001002	30340		JAP	SECP42
  4224	11330	000000	
  4225	      	      	30350	* CHECK TO SEE IF HOST 1 HAS COME UP
  4226	11331	100130	30360		EXC	130	RESET MIC
  4227	11332	002000	30370		JMPM	KEY
  4228	11333	000000	
  4229	11334	001002	30380		JAP	SECP3
  4230	11335	056705	
  4231	11336	011270	30390		LDA	UPDWN
  4232	11337	041270	30400		INR	UPDWN
  4233	11340	001004	30410		JAN	SECP3
  4234	11341	056705	
  4235	11342	005002	30420		TZB
  4236	11343	031073	30430		LDX	=3
  4237	11344	005201	30440		COM	,A
  4238	11345	055206	30450		STA	STOPIN,5
  4239	11346	065742	30460		STB	STOPO,5
  4240	11347	065752	30470		STB	ACTPRT,5
  4241	11350	005345	30480		DEC	X,AX
  4242	11351	001002	30490		JAP	*-5
  4243	11352	011344	
  4244	11353	060107	30500		STB	UPDOWN
  4245	11354	061316	30510		STB	ICOUNT
  4246	11355	061331	30520		STB	SPSTAT
  4247	11356	061317	30530		STB	IRING
  4248	11357	061320	30540		STB	ORING
  4249	11360	040752	30550		INR	ACTPRT
  4250	11361	010106	30560		LDA	106
  4251	11362	150276	30570		ANA	CMSK+17
  4252	11363	050106	30580		STA	106
PAGE 01  BSYM.VCD  06-APR-73  09:26:50.116

  4253	11364	050765	30590		STA	W4
  4254	11365	011211	30600		LDA	=100002
  4255	11366	050764	30610		STA	W3
  4256	11367	011172	30620		LDA	=30000
  4257	11370	002000	30630		JMPM	LEPSEN
  4258	11371	000000	
  4259	11372	005002	30640	SECP3	TZB
  4260	11373	031073	30650		LDX	=3
  4261	11374	065314	30660		STB	IIN,5
  4262	11375	005345	30670		DEC	X,AX
  4263	11376	001002	30680		JAP	*-2
  4264	11377	011374	
  4265	11400	031212	30690		LDX	=BUFERS+176
  4266	11401	011147	30700		LDA	=77
  4267	11402	065742	30710		STB	BC,5
  4268	11403	005344	30720		DXR
  4269	11404	005344	30730		DXR
  4270	11405	005311	30740		DAR
  4271	11406	001002	30750		JAP	*-4
  4272	11407	011402	
  4273	11410	010111	30760	SECP42	LDA	UPDN1
  4274	11411	001002	30770		JAP	SECT
  4275	11412	000000	
  4276	      	      	30780	* CHECK TO SEE IF HOST 2 HAS COME UP
  4277	11413	100330	30790		EXC	330	RESET MIC
  4278	11414	002000	30800		JMPM	KEEY
  4279	11415	000000	
  4280	11416	001002	30810		JAP	SECP32
  4281	11417	000000	
  4282	11420	011330	30820		LDA	UPDWN1
  4283	11421	041330	30830		INR	UPDWN1
  4284	11422	001004	30840		JAN	SECP32
  4285	11423	000000	
  4286	11424	005002	30850		TZB
  4287	11425	031104	30860		LDX	=7
  4288	11426	005201	30870		COM	,A
  4289	11427	055206	30880		STA	STOPIN,5
  4290	11430	065742	30890		STB	STOPO,5
  4291	11431	065752	30900		STB	ACTPRT,5
  4292	11432	005345	30910		DEC	X,AX
  4293	11433	141107	30920		SUB	=4
  4294	11434	001002	30930		JAP	*-6
  4295	11435	011426	
  4296	11436	060111	30940		STB	UPDN1
  4297	11437	061321	30950		STB	ICNT1
  4298	11440	061322	30960		STB	IRING1
  4299	11441	061323	30970		STB	ORING1
  4300	11442	010110	30980		LDA	110
  4301	11443	150276	30990		ANA	CMSK+17
  4302	11444	050110	31000		STA	110
  4303	11445	050765	31010		STA	W4
  4304	11446	011211	31020		LDA	=100002
  4305	11447	050764	31030		STA	W3
  4306	11450	011172	31040		LDA	=30000
PAGE 01  BSYM.VCD  06-APR-73  09:27:18.266

  4307	11451	002000	31050		JMPM	LEPSEN
  4308	11452	000000	
  4309	11453	005002	31060	SECP32	TZB
  4310	11454	031104	31070		LDX	=7
  4311	11455	065314	31080		STB	IIN,5
  4312	11456	005345	31090		DEC	X,AX
  4313	11457	141107	31100		SUB	=4
  4314	11460	001002	31110		JAP	*-3
  4315	11461	011455	
  4316	11462	031213	31120		LDX	=BUFERS+376
  4317	11463	011147	31130		LDA	=77
  4318	11464	065742	31140		STB	BC,5
  4319	11465	005344	31150		DXR
  4320	11466	005344	31160		DXR
  4321	11467	005311	31170		DAR
  4322	11470	001002	31180		JAP	*-4
  4323	11471	011464	
  4324	      	      	31270	* CHECK TO SEE IF THE 940 HAS COME UP
  4325	11472	100130	31280		EXC	130	RESET MIC
  4326	11473	061331	31500		STB	SPSTAT
  4327	11474	040752	31550		INR	ACTPRT
  4328	      	      	31780	* 4 SECOND LOGIC
  4329	11475	041310	31790	SECT	INR	TIMMIN
  4330	11476	011310	31800		LDA	TIMMIN
  4331	11477	151104	31810		ANA	=7
  4332	11500	005311	31820		DAR
  4333	11501	001002	31830		JAP	SEC+.
  4334	11502	100000	
  4335	11503	010107	31840		LDA	UPDOWN
  4336	11504	001004	31860		JAN	SECT2
  4337	11505	000000	
  4338	      	      	31910	* MAYBE ACTIVATE SUPERVISOR
  4339	11506	010100	31920		LDA	MACHNO
  4340	11507	141122	31930		SUB	=5
  4341	11510	001002	31940		JAP	CHECK9-2
  4342	11511	177776	
  4343	11512	011315	31950		LDA	USWICH
  4344	11513	005311	31960		DAR
  4345	11514	001010	31970		JAZ	*+10
  4346	11515	011524	
  4347	11516	011310	31980		LDA	TIMMIN
  4348	11517	151076	31990		ANA	=37
  4349	11520	001010	32000		JAZ	*+4
  4350	11521	011524	
  4351	11522	001000	32010		JMP	CHECK9-2
  4352	11523	177776	
  4353	11524	031125	32020		LDX	=BUFERS
  4354	11525	011213	32030		LDA	=376
  4355	11526	001300	32040		JIF	SS12SET,*+5
  4356	11527	011533	
  4357	11530	141214	32050		SUB	=161
  4358	11531	001000	32060		JMP	*+5
  4359	11532	011536	
  4360	11533	001400	32070		JSS3	*+3
PAGE 01  BSYM.VCD  06-APR-73  09:27:48.050

  4361	11534	011536	
  4362	11535	141215	32080		SUB	=171
  4363	11536	002000	32090		JMPM	WCI
  4364	11537	056661	
  4365	      	      	32110	* CHECK TO SEE IF THE HOST IS STILL UP
  4366	11540	011216	32120		LDA	=-10
  4367	11541	050762	32130		STA	W1
  4368	11542	002000	32140	CHECK9	JMPM	KEY
  4369	11543	000000	
  4370	11544	001010	32150		JAZ	CK9B
  4371	11545	000000	
  4372	11546	001004	32240		JAN	SECT2-1
  4373	11547	177777	
  4374	11550	002000	32250		JMPM	DOWN9
  4375	11551	012247	
  4376	11552	001000	32260		JMP	SECT2
  4377	11553	000000	
  4378	11554	040762	32300	CK9B	INR	W1
  4379	11555	010762	32310		LDA	W1
  4380	11556	001004	32320		JAN	CHECK9
  4381	11557	000000	
  4382	11560	001000	32330		JMP	CHECK9+6
  4383	11561	000006	
  4384	11562	100030	32350		EXC	30
  4385	11563	010111	32380	SECT2	LDA	UPDN1
  4386	11564	001004	32390		JAN	SECT1
  4387	11565	000000	
  4388	11566	011216	32400		LDA	=-10
  4389	11567	050762	32410		STA	W1
  4390	11570	002000	32420	CK92	JMPM	KEEY
  4391	11571	000000	
  4392	11572	001010	32430		JAZ	CK9B2
  4393	11573	030604	
  4394	11574	001004	32440		JAN	SECT1-1
  4395	11575	177777	
  4396	11576	002000	32450		JMPM	DOWN91
  4397	11577	000000	
  4398	11600	001000	32460		JMP	SECT1
  4399	11601	000000	
  4400	11602	040762	32470	CK9B2	INR	W1
  4401	11603	010762	32480		LDA	W1
  4402	11604	001004	32490		JAN	CK92
  4403	11605	152234	
  4404	11606	001000	32500		JMP	CK92+6
  4405	11607	152242	
  4406	11610	100230	32510		EXC	230
  4407	      	      	32530	* 16 SECOND LOGIC
  4408	11611	011310	32540	SECT1	LDA	TIMMIN
  4409	11612	151076	32550		ANA	=37
  4410	11613	005311	32560		DAR
  4411	11614	001002	32570		JAP	SEC+.
  4412	11615	100000	
  4413	11616	010107	32580		LDA	UPDOWN
  4414	11617	001004	32600		JAN	SECT4
PAGE 01  BSYM.VCD  06-APR-73  09:28:35.050

  4415	11620	000000	
  4416	11621	011217	32690		LDA	=210
  4417	11622	002000	32710		JMPM	LOOK
  4418	11623	013146	
  4419	11624	005021	32720		TBA
  4420	11625	131313	32730		ERA	UNHAP
  4421	11626	061313	32740		STB	UNHAP
  4422	11627	001010	32760		JAZ	SECT4
  4423	11630	000000	
  4424	11631	001020	32770		JBZ	SECT4
  4425	11632	000000	
  4426	11633	060765	32820		STB	W4
  4427	11634	010106	32830		LDA	106
  4428	11635	151147	32840		ANA	=77
  4429	11636	004246	32850		LRLA	6
  4430	11637	111220	32860		ORA	=100010
  4431	11640	050764	32870		STA	W3
  4432	11641	011172	32880		LDA	=30000
  4433	11642	002000	32890		JMPM	LEPSEN
  4434	11643	000000	
  4435	11644	010111	32910	SECT4	LDA	UPDN1
  4436	11645	001004	32920		JAN	SECW-1
  4437	11646	177777	
  4438	11647	011217	32930		LDA	=210
  4439	11650	002000	32940		JMPM	LOOOK
  4440	11651	014156	
  4441	11652	005021	32950		TBA
  4442	11653	131324	32960		ERA	UNHAP1
  4443	11654	061324	32970		STB	UNHAP1
  4444	11655	001010	32980		JAZ	SECW-1
  4445	11656	177777	
  4446	11657	001020	32990		JBZ	SECW-1
  4447	11660	177777	
  4448	11661	060765	33000		STB	W4
  4449	11662	010110	33010		LDA	110
  4450	11663	151147	33020		ANA	=77
  4451	11664	004246	33030		LRLA	6
  4452	11665	111220	33040		ORA	=100010
  4453	11666	050764	33050		STA	W3
  4454	11667	011172	33060		LDA	=30000
  4455	11670	002000	33070		JMPM	LEPSEN
  4456	11671	000000	
  4457	11672	031122	33090		LDX	=NLINES
  4458	11673	005344	33100	SECW	DXR
  4459	11674	025132	33110		LDB	IOTA,5
  4460	11675	011145	33120		LDA	=200
  4461	11676	056401	33130		STA	BR-IOTAB0+1,6
  4462	11677	025164	33140		LDB	GROUPI,5
  4463	11700	016410	33150		LDA	RSBF,6
  4464	11701	110240	33160		ORA	MASK+1
  4465	11702	056410	33170		STA	RSBF,6
  4466	11703	015442	33180		LDA	LRESET,5
  4467	11704	001010	33190		JAZ	SECW2
  4468	11705	000000	
PAGE 01  BSYM.VCD  06-APR-73  09:29:05.550

  4469	11706	005001	33200		TZA
  4470	11707	055442	33210		STA	LRESET,5
  4471	11710	011221	33220		LDA	=100004
  4472	11711	050764	33230	SECW1	STA	W3
  4473	11712	070765	33240		STX	W4
  4474	11713	070772	33250		STX	W9
  4475	11714	015132	33260		LDA	IOTA,5
  4476	11715	121124	33270		ADD	=2
  4477	11716	050773	33280		STA	W10
  4478	11717	015143	33290		LDA	IOTABS,5
  4479	11720	004243	33300		LRLA	3
  4480	11721	151216	33310		ANA	=-10
  4481	11722	121124	33320		ADD	=2
  4482	11723	050774	33330		STA	W11
  4483	11724	035132	33340		LDX	IOTA,5
  4484	11725	015000	33350		LDA	0,5
  4485	11726	150276	33360		ANA	CMSK+17
  4486	11727	121142	33370		ADD	=BUFERS-1
  4487	11730	005014	33380		TAX
  4488	11731	002000	33390		JMPM	EMPTY
  4489	11732	000000	
  4490	11733	017773	33400	SECW1A	LDA	W10,7
  4491	11734	005112	33410		INC	A,B
  4492	11735	001020	33420		JBZ	SECW1B
  4493	11736	000000	
  4494	11737	130237	33430		ERA	MASK
  4495	11740	121125	33440		ADD	=BUFERS
  4496	11741	150276	33450		ANA	CMSK+17
  4497	11742	005014	33460		TAX
  4498	11743	002000	33470		JMPM	ZBF
  4499	11744	000000	
  4500	11745	017773	33480		LDA	W10,7
  4501	11746	005202	33490		COM	,B
  4502	11747	067773	33500		STB	W10,7
  4503	11750	121125	33510		ADD	=BUFERS
  4504	11751	150276	33520		ANA	CMSK+17
  4505	11752	005014	33530		TAX
  4506	11753	005001	33540		TZA
  4507	11754	055742	33550		STA	BC,5
  4508	11755	011073	33560		LDA	=3
  4509	11756	002000	33570		JMPM	WCI
  4510	11757	056661	
  4511	11760	040773	33580	SECW1B	INR	W10
  4512	11761	040774	33590		INR	W11
  4513	11762	010774	33600		LDA	W11
  4514	11763	001004	33610		JAN	SECW1A
  4515	11764	000000	
  4516	11765	011172	33620		LDA	=30000
  4517	11766	002000	33630		JMPM	LEPSEN
  4518	11767	000000	
  4519	11770	030772	33640		LDX	W9
  4520	11771	001000	33650		JMP	SECW2A
  4521	11772	000000	
  4522	11773	015712	33660	SECW2	LDA	INDATA,5
PAGE 01  BSYM.VCD  06-APR-73  09:29:42.933

  4523	11774	001010	33670		JAZ	SECW3
  4524	11775	056701	
  4525	11776	005001	33680		TZA
  4526	11777	055712	33690		STA	INDATA,5
  4527	12000	001040	33700	SECW2A	JXZ	SECW4
  4528	12001	000000	
  4529	12002	001000	33710		JMP	SECW
  4530	12003	000000	
  4531	12004	055702	33720	SECW3	STA	LINSAT,5
  4532	12005	055112	33730		STA	SWTCHO,5
  4533	12006	045712	33740		INR	INDATA,5
  4534	12007	011222	33750		LDA	=100005
  4535	12010	001000	33760		JMP	SECW1
  4536	12011	000000	
  4537	      	      	33770	* 256 SECOND LOGIC
  4538	12012	011310	33780	SECW4	LDA	TIMMIN
  4539	12013	151117	33790		ANA	=777
  4540	12014	005311	33800		DAR
  4541	12015	001002	33810		JAP	SEC+.
  4542	12016	100000	
  4543	12017	031122	33820	SECW4A	LDX	=NLINES
  4544	12020	005002	33830		TZB
  4545	12021	061313	33840		STB	UNHAP
  4546	12022	061324	33860		STB	UNHAP1
  4547	12023	005344	33880	SECW5	DXR
  4548	12024	015227	33890		LDA	LINER,5
  4549	12025	065227	33900		STB	LINER,5
  4550	12026	141223	33910		SUB	=40D
  4551	12027	001002	33920		JAP	SECW6
  4552	12030	034544	
  4553	12031	015702	33930		LDA	LINSAT,5
  4554	12032	065702	33940		STB	LINSAT,5
  4555	12033	141224	33950		SUB	=100D
  4556	12034	001002	33960		JAP	*+6
  4557	12035	012042	
  4558	12036	001040	33970		JXZ	SECW7
  4559	12037	100000	
  4560	12040	001000	33980		JMP	SECW5
  4561	12041	000000	
  4562	12042	021225	33990		LDB	=100007
  4563	12043	001000	34000		JMP	*+3
  4564	12044	012046	
  4565	12045	021226	34010	SECW6	LDB	=100006
  4566	12046	060764	34020		STB	W3
  4567	12047	121223	34030		ADD	=40D
  4568	12050	151167	34040		ANA	=1777
  4569	12051	004246	34050		LRLA	6
  4570	12052	005051	34060		COP	AX,A
  4571	12053	050765	34070		STA	W4
  4572	12054	011172	34080		LDA	=30000
  4573	12055	002000	34090		JMPM	LEPSEN
  4574	12056	000000	
  4575	12057	001000	34100		JMP	SECW4A
  4576	12060	052152	
PAGE 01  BSYM.VCD  06-APR-73  09:30:08.983

  4577	      	      	34110	* 17 MINUTE 4 SEC LOGIC
  4578	12061	011310	34120	SECW7	LDA	TIMMIN
  4579	12062	151227	34130		ANA	=3777
  4580	12063	005311	34140		DAR
  4581	12064	001002	34150		JAP	SEC+.
  4582	12065	100000	
  4583	12066	010100	34160		LDA	MACHNO
  4584	12067	141122	34170		SUB	=5
  4585	12070	001002	34180		JAP	SEC+.
  4586	12071	100000	
  4587	12072	001300	34190		JIF	SS12SET,*+4
  4588	12073	012076	
  4589	12074	001000	34200		JMP	SEC+.
  4590	12075	100000	
  4591	12076	011230	34210		LDA	=100011
  4592	12077	050764	34220		STA	W3
  4593	12100	011172	34230		LDA	=30000
  4594	12101	002000	34240		JMPM	LEPSEN
  4595	12102	000000	
  4596	12103	001000	34250		JMP	SEC+.
  4597	12104	100000	
  4598	      	      	34270	* CHECK TO SEE IF THE 940 KEY IS GOOD
  4599	      	      	34280	* THE KEY IS 40516337B, 51506262B
  4600	      	      	34290	* IF REJECTED BY THE MIC OR IF ONE OF THE WORDS
  4601	      	      	34300	* IS ALL ZERO, THE RETURN IN THE A REGISTER IS ZERO.
  4602	      	      	34310	* IF THE WORDS ARE GARBAGE, THE RETURN IS GREATER
  4603	      	      	34320	* THAN ZERO. IF THE KEY IS GOOD, THE RETURN
  4604	      	      	34330	* IS NEGATIVE.
  4605	12105	000000	34340	KEY	0
  4606	12106	011231	34350		LDA	=213
  4607	12107	002000	34360		JMPM	LOOK
  4608	12110	013146	
  4609	12111	001030	34370		JIF	ABZERO,KEY1
  4610	12112	052000	
  4611	12113	060763	34380		STB	W2
  4612	12114	050764	34390		STA	W3
  4613	12115	011232	34400		LDA	=212
  4614	12116	002000	34410		JMPM	LOOK
  4615	12117	013146	
  4616	12120	001030	34420		JIF	ABZERO,KEY1
  4617	12121	052000	
  4618	12122	004450	34430		LLRL	10
  4619	12123	131344	34440		ERA	K3
  4620	12124	005014	34450		TAX
  4621	12125	010764	34460		LDA	W3
  4622	12126	005031	34470		COP	AB,A
  4623	12127	131343	34480		ERA	K2
  4624	12130	005054	34490		COP	AX,X
  4625	12131	010763	34500		LDA	W2
  4626	12132	131342	34510		ERA	K1
  4627	12133	001050	34520		JIF	AXZERO,KEY2
  4628	12134	000000	
  4629	12135	005101	34530		INC	,A
  4630	12136	005202	34540	KEY1	COM	,B
PAGE 01  BSYM.VCD  06-APR-73  09:30:35.700

  4631	12137	061270	34550		STB	UPDWN
  4632	12140	001000	34560		JMP	KEY+.
  4633	12141	100000	
  4634	12142	031232	34570	KEY2	LDX	=212
  4635	12143	002000	34580		JMPM	IN
  4636	12144	013305	
  4637	12145	005301	34590		DEC	,A
  4638	12146	001000	34600		JMP	KEY+.
  4639	12147	100000	
  4640	12150	000000	34630	KEEY	0
  4641	12151	011231	34640		LDA	=213
  4642	12152	002000	34650		JMPM	LOOOK
  4643	12153	014156	
  4644	12154	001030	34660		JIF	ABZERO,KEEY1
  4645	12155	000000	
  4646	12156	060763	34670		STB	W2
  4647	12157	050764	34680		STA	W3
  4648	12160	011232	34690		LDA	=212
  4649	12161	002000	34700		JMPM	LOOOK
  4650	12162	014156	
  4651	12163	001030	34710		JIF	ABZERO,KEEY1
  4652	12164	000000	
  4653	12165	004450	34720		LLRL	10
  4654	12166	131344	34730		ERA	K3
  4655	12167	005014	34740		TAX
  4656	12170	010764	34750		LDA	W3
  4657	12171	005031	34760		COP	AB,A
  4658	12172	131343	34770		ERA	K2
  4659	12173	005051	34780		COP	AX,A
  4660	12174	010763	34790		LDA	W2
  4661	12175	131342	34800		ERA	K1
  4662	12176	001050	34810		JIF	AXZERO,KEEY2
  4663	12177	145544	
  4664	12200	005101	34820		INC	,A
  4665	12201	005202	34830	KEEY1	COM	,B
  4666	12202	061330	34840		STB	UPDWN1
  4667	12203	001000	34850		JMP	KEEY+.
  4668	12204	100000	
  4669	12205	031232	34860	KEEY2	LDX	=212
  4670	12206	002000	34870		JMPM	INN
  4671	12207	014320	
  4672	12210	005301	34880		DEC	,A
  4673	12211	001000	34890		JMP	KEEY+.
  4674	12212	100000	
  4675	      	      	34900	* ZAP BUFERS AND CLEAN UP CIRCUITS.
  4676	      	      	34910	* TELL SUPER HOST2 IS DOWN
  4677	12213	000000	34920	DOWN91	0
  4678	12214	011145	34930		LDA	=200
  4679	12215	050775	34940		STA	W12
  4680	12216	010775	34950		LDA	W12
  4681	12217	005311	34960		DAR
  4682	12220	050775	34970		STA	W12
  4683	12221	050764	34980		STA	W3
  4684	12222	141133	34990		SUB	=100
PAGE 01  BSYM.VCD  06-APR-73  09:31:05.966

  4685	12223	001004	35000		JAN	DWN9B1
  4686	12224	000000	
  4687	12225	002000	35010		JMPM	ZAP
  4688	12226	000000	
  4689	12227	001000	35020		JMP	DOWN91+3
  4690	12230	000003	
  4691	12231	011233	35030	DWN9B1	LDA	=-3
  4692	12232	051330	35040		STA	UPDWN1
  4693	12233	005201	35050		COM	,A
  4694	12234	050111	35060		STA	UPDN1
  4695	12235	010110	35070		LDA	110
  4696	12236	110256	35080		ORA	MASK+17
  4697	12237	050765	35090		STA	W4
  4698	12240	011211	35100		LDA	=100002
  4699	12241	050764	35110		STA	W3
  4700	12242	011172	35120		LDA	=30000
  4701	12243	002000	35130		JMPM	LEPSEN
  4702	12244	000000	
  4703	12245	001000	35140		JMP	DOWN91+.
  4704	12246	100000	
  4705	      	      	35160	* ZAP BUFERS AND CLEAN
  4706	      	      	35170	* UP CIRCUITS. TELL SUPER
  4707	      	      	35180	* HOST IS DOWN
  4708	12247	000000	35190	DOWN9	0
  4709	12250	011133	35210		LDA	=100
  4710	12251	050775	35250		STA	W12
  4711	12252	010775	35260		LDA	W12
  4712	12253	005311	35270		DAR
  4713	12254	001004	35280		JAN	DOWN9B
  4714	12255	012264	
  4715	12256	050775	35290		STA	W12
  4716	12257	050764	35300		STA	W3
  4717	12260	002000	35310		JMPM	ZAP
  4718	12261	000000	
  4719	12262	001000	35320		JMP	DOWN9+3
  4720	12263	012252	
  4721	12264	011233	35330	DOWN9B	LDA	=-3
  4722	12265	051270	35340		STA	UPDWN
  4723	12266	005201	35350		COM	,A
  4724	12267	050107	35360		STA	UPDOWN
  4725	12270	011315	35380		LDA	USWICH
  4726	12271	004341	35390		LSRA	1
  4727	12272	001010	35400		JAZ	DOWN9A
  4728	12273	012306	
  4729	12274	010106	35420		LDA	UPDOWN-1
  4730	12275	110256	35430		ORA	MASK+17
  4731	12276	050765	35440		STA	W4
  4732	12277	011211	35450		LDA	=100002
  4733	12300	050764	35460		STA	W3
  4734	12301	011172	35470		LDA	=30000
  4735	12302	002000	35480		JMPM	LEPSEN
  4736	12303	000000	
  4737	12304	001000	35490		JMP	DOWN9+.
  4738	12305	112247	
PAGE 01  BSYM.VCD  06-APR-73  09:31:31.233

  4739	12306	051315	35510	DOWN9A	STA	USWICH
  4740	12307	001000	35520		JMP	DOWN9+.
  4741	12310	112247	
  4742	12311	000000	35540	BID	0		BIT IDENTIFIER
  4743	12312	031121	35550		LDX	=17
  4744	12313	001004	35560		JAN	BID+.
  4745	12314	112311	
  4746	12315	004241	35570		LRLA	1
  4747	12316	005344	35580		DXR
  4748	12317	001002	35590		JAP	*-2
  4749	12320	012315	
  4750	12321	001000	35600		JMP	BID+.
  4751	12322	112311	
  4752	      	      	40960	* INTERFACE TO THE DAVID ALEXANDER GARDNER TELETYPE LOGIC
  4753	      	      	40970	* W1 GROUP NUMBER
  4754	      	      	40980	* W2 BIT POSITION NUMBER
  4755	      	      	40990	* W3 PORT NUMBER
  4756	      	      	41000	* W4 DATA CHARACTER
  4757	12323	000000	41010	DAVTEL	0
  4758	      	      	41020	* IS THE 940 UP
  4759	12324	010107	41030	DAV1	LDA	UPDOWN
  4760	12325	001004	41040		JAN	DAVTEL+.
  4761	12326	112323	
  4762	      	      	41050	* IS THERE ROOM IN THE INPUT RING
  4763	12327	011316	41060		LDA	ICOUNT
  4764	12330	001004	41070		JAN	DAV3-1
  4765	12331	012342	
  4766	12332	002000	41080		JMPM	UPDATE
  4767	12333	013361	
  4768	12334	010107	41090		LDA	UPDOWN
  4769	12335	001004	41100		JAN	DAVTEL+.
  4770	12336	112323	
  4771	12337	011316	41110		LDA	ICOUNT
  4772	12340	001002	41120		JAP	DAVTEL+.
  4773	12341	112323	
  4774	      	      	41130	* PROCESS 3 GROUPS OF INPUT PORTS
  4775	12342	005004	41140		TZX
  4776	12343	070762	41150	DAV3	STX	W1
  4777	12344	015314	41160		LDA	IIN,5
  4778	12345	155752	41170		ANA	ACTPRT,5
  4779	12346	155206	41180		ANA	STOPIN,5
  4780	12347	001010	41190		JAZ	DAV6
  4781	12350	012456	
  4782	12351	002000	41200		JMPM	BID
  4783	12352	012311	
  4784	12353	070763	41210		STX	W2
  4785	12354	010762	41220		LDA	W1
  4786	12355	004244	41230		LRLA	4
  4787	12356	005051	41240		COP	AX,A
  4788	12357	050764	41250		STA	W3
  4789	12360	004241	41260		LRLA	1
  4790	12361	121125	41270		ADD	=BUFERS
  4791	12362	005014	41280		TAX
  4792	12363	002000	41290		JMPM	GCI
PAGE 01  BSYM.VCD  06-APR-73  09:32:07.700

  4793	12364	000000	
  4794	12365	050765	41300		STA	W4
  4795	      	      	41310	* CHECK FOR SPECIAL HANDLING
  4796	12366	141107	41320		SUB	=4
  4797	12367	001004	41330		JAN	DAV5
  4798	12370	012412	
  4799	      	      	41340	* INPUT TYPE 1 CHARACTER
  4800	12371	011317	41350		LDA	IRING
  4801	12372	041317	41360	DAV4	INR	IRING
  4802	12373	041316	41370		INR	ICOUNT
  4803	12374	151147	41380		ANA	=77
  4804	12375	004241	41390		LRLA	1
  4805	12376	121174	41400		ADD	=50000
  4806	12377	005014	41410		TAX
  4807	12400	010764	41420		LDA	W3
  4808	12401	004250	41430		LRLA	10
  4809	12402	020765	41440		LDB	W4
  4810	12403	005032	41450		COP	AB,B
  4811	12404	005101	41460		INC	,A
  4812	12405	002000	41470	DAV4A	JMPM	IN940
  4813	12406	013320	
  4814	12407	100030	41480		EXC	30
  4815	12410	001000	41490		JMP	DAV1
  4816	12411	012324	
  4817	12412	121124	41500	DAV5	ADD	=2
  4818	12413	001010	41510		JAZ	DAV4-1
  4819	12414	177777	
  4820	12415	001004	41520		JAN	DAV5A
  4821	12416	012431	
  4822	      	      	41530	* PROTECT SUPERVISOR FROM ZAPPERS
  4823	12417	010764	41540		LDA	W3
  4824	12420	005311	41550		DAR
  4825	12421	001002	41560		JAP	DAV4-1
  4826	12422	177777	
  4827	12423	010100	41570		LDA	MACHNO
  4828	12424	141122	41580		SUB	=5
  4829	12425	001004	41590		JAN	DAV1
  4830	12426	012324	
  4831	12427	001000	41600		JMP	DAV4-1
  4832	12430	177777	
  4833	      	      	41610	* CHARACTER PAIR   INPUT SECOND CHARACTER FIRST
  4834	12431	002000	41620	DAV5A	JMPM	GCI
  4835	12432	000000	
  4836	12433	020764	41630		LDB	W3
  4837	12434	004050	41640		LRLB	10
  4838	12435	005032	41650		COP	AB,B
  4839	12436	011317	41660		LDA	IRING
  4840	12437	005111	41670		IAR
  4841	12440	151147	41680		ANA	=77
  4842	12441	004241	41690		LRLA	1
  4843	12442	121174	41700		ADD	=50000
  4844	12443	005014	41710		TAX
  4845	12444	005101	41720		INC	,A
  4846	12445	002000	41730		JMPM	IN940
PAGE 01  BSYM.VCD  06-APR-73  09:32:22.283

  4847	12446	013320	
  4848	12447	001004	41740		JAN	DAVTEL+.
  4849	12450	112323	
  4850	12451	011317	41750		LDA	IRING
  4851	12452	041317	41760		INR	IRING
  4852	12453	041316	41770		INR	ICOUNT
  4853	12454	001000	41780		JMP	DAV4
  4854	12455	000000	
  4855	      	      	41790	* PROCESS NEXT GROUP
  4856	12456	005145	41800	DAV6	INC	X,AX
  4857	12457	141107	41810		SUB	=-(DUALBASE)*4-(#DUALBASE)*6
  4858	12460	001004	41820		JAN	DAV3
  4859	12461	012343	
  4860	      	      	41830	* PROCESS OUTPUT
  4861	12462	011320	41840	DAV7	LDA	ORING
  4862	12463	041320	41850		INR	ORING
  4863	12464	151234	41860		ANA	=177
  4864	12465	004241	41870		LRLA	1
  4865	12466	121235	41880		ADD	=50200
  4866	12467	002000	41890		JMPM	OUT
  4867	12470	013265	
  4868	12471	001004	41900		JAN	DAVTEL+.
  4869	12472	112323	
  4870	      	      	41910	* CHECK RANGE OF TYPE NUMBER
  4871	12473	141170	41920		SUB	=11
  4872	12474	001004	41930		JAN	*+6
  4873	12475	012502	
  4874	12476	002000	41940		JMPM	CR940
  4875	12477	013104	
  4876	12500	001000	41950		JMP	DAVTEL+.
  4877	12501	112323	
  4878	      	      	41960	* DISPATCH TO TYPE ROUTINE
  4879	12502	121236	41970		ADD	=DAVT+.+11
  4880	12503	054007	41980		STA	DAVT1-5
  4881	      	      	41990	* FIRST CHECK PORT NUMBER RANGE
  4882	12504	010775	42000		LDA	W12
  4883	12505	004350	42010		LSRA	10
  4884	12506	050764	42020		STA	W3
  4885	12507	002010	42030		JAZM	KLUDGE
  4886	12510	012644	
  4887	12511	141133	42040		SUB	=100
  4888	12512	001004	42050		JAN	*
  4889	12513	012512	
  4890	12514	002000	42060		JMPM	CR940
  4891	12515	013104	
  4892	12516	001000	42070		JMP	DAVTEL+.
  4893	12517	112323	
  4894	      	      	42080	* TYPE 1 DATA CHARACTER
  4895	      	      	42090	* CHECK FOR CHARACTER PAIR,
  4896	      	      	42100	* CHARACTER GOBBLER, OR CIRCUIT ZAPPER
  4897	12520	010775	42110	DAVT1	LDA	W12
  4898	12521	151101	42120		ANA	=377
  4899	12522	141107	42130		SUB	=4
  4900	12523	001004	42140		JAN	DAVT1B
PAGE 01  BSYM.VCD  06-APR-73  09:32:22.900

  4901	12524	012573	
  4902	12525	010764	42150		LDA	W3
  4903	12526	004241	42160		LRLA	1
  4904	12527	121127	42170		ADD	=BUFERS+1
  4905	12530	005014	42180		TAX
  4906	12531	010764	42190	DAVT1A	LDA	W3
  4907	12532	141305	42200		SUB	SPORT
  4908	12533	001010	42210		JAZ	DAVT1S
  4909	12534	012740	
  4910	12535	010775	42220		LDA	W12
  4911	12536	002000	42230		JMPM	WCI
  4912	12537	056661	
  4913	      	      	42240	* CHECK FOR FULL BUFFER
  4914	12540	015742	42250		LDA	BC,5
  4915	12541	141145	42260		SUB	=200
  4916	12542	001004	42270		JAN	DAV7
  4917	12543	012462	
  4918	      	      	42280	* BUFFER FULL   HAVE WE SAID STOP
  4919	12544	010764	42290		LDA	W3
  4920	12545	002000	42300		JMPM	BITADD
  4921	12546	013116	
  4922	12547	156742	42310		ANA	STOPO,6
  4923	12550	001010	42320		JAZ	*+4
  4924	12551	012554	
  4925	12552	001000	42330		JMP	DAV7
  4926	12553	012462	
  4927	      	      	42340	* TELL THE 940 TO STOP OUTPUTING ON THIS PORT
  4928	12554	016742	42350		LDA	STOPO,6
  4929	12555	115237	42360		ORA	MASK,5
  4930	12556	056742	42370		STA	STOPO,6
  4931	12557	011317	42380		LDA	IRING
  4932	12560	041317	42390		INR	IRING
  4933	12561	041316	42400		INR	ICOUNT
  4934	12562	151147	42410		ANA	=77
  4935	12563	004241	42420		LRLA	1
  4936	12564	121174	42430		ADD	=50000
  4937	12565	005014	42440		TAX
  4938	12566	020764	42450		LDB	W3
  4939	12567	004050	42460		LRLB	10
  4940	12570	011104	42470		LDA	=7
  4941	12571	001000	42480		JMP	DAV4A
  4942	12572	012405	
  4943	12573	121124	42490	DAVT1B	ADD	=2
  4944	12574	001010	42500		JAZ	DAVT1C
  4945	12575	012670	
  4946	12576	001002	42510		JAP	DAVT1D
  4947	12577	012700	
  4948	      	      	42520	* SPECIAL CHARACTER PAIR WHICH MUST BE SENT TOGETHER
  4949	12600	010775	42530		LDA	W12
  4950	12601	050765	42540		STA	W4
  4951	12602	011320	42550		LDA	ORING
  4952	12603	041320	42560		INR	ORING
  4953	12604	151234	42570		ANA	=177
  4954	12605	004241	42580		LRLA	1
PAGE 01  BSYM.VCD  06-APR-73  09:32:27.900

  4955	12606	121235	42590		ADD	=50200
  4956	12607	002000	42600		JMPM	OUT
  4957	12610	013265	
  4958	12611	001004	42610		JAN	DAVTEL+.
  4959	12612	112323	
  4960	      	      	42620	* CHECK FOR TYPE 1
  4961	12613	005311	42630		DAR
  4962	12614	001010	42640		JAZ	*+6
  4963	12615	012622	
  4964	12616	002000	42650		JMPM	CR940
  4965	12617	013104	
  4966	12620	001000	42660		JMP	DAVTEL+.
  4967	12621	112323	
  4968	      	      	42670	* CHECK FOR SAME PORT NUMBER
  4969	12622	010775	42680		LDA	W12
  4970	12623	004350	42690		LSRA	10
  4971	12624	130764	42700		ERA	W3
  4972	12625	001010	42710		JAZ	*+6
  4973	12626	012633	
  4974	12627	002000	42720		JMPM	CR940
  4975	12630	013104	
  4976	12631	001000	42730		JMP	DAVTEL+.
  4977	12632	112323	
  4978	12633	010764	42740		LDA	W3
  4979	12634	004241	42750		LRLA	1
  4980	12635	121127	42760		ADD	=BUFERS+1
  4981	12636	005014	42770		TAX
  4982	12637	010765	42780		LDA	W4
  4983	12640	002000	42790		JMPM	WCI
  4984	12641	056661	
  4985	12642	001000	42800		JMP	DAVT1A+4
  4986	12643	012535	
  4987	      	      	42810	* KLUDGE FOR RESTARTING SUPERVISORS
  4988	12644	000000	42820	KLUDGE	0
  4989	12645	010100	42830		LDA	MACHNO
  4990	12646	141122	42840		SUB	=5
  4991	12647	001002	42850		JAP	KL1
  4992	12650	012656	
  4993	12651	010775	42860		LDA	W12
  4994	12652	151101	42870		ANA	=377
  4995	12653	141217	42880		SUB	=210
  4996	12654	001010	42890		JAZ	*+5
  4997	12655	012661	
  4998	12656	005001	42900	KL1	TZA
  4999	12657	001000	42910		JMP	KLUDGE+.
  5000	12660	112644	
  5001	      	      	42920	* CONTROLLING FORK OF SUPERVISOR IS ABOUT TO RELEASE PAGE ZERO
  5002	12661	011073	42930		LDA	=3
  5003	12662	051331	42940		STA	SPSTAT
  5004	12663	031127	42950		LDX	=BUFERS+1
  5005	12664	002000	42960		JMPM	WCI
  5006	12665	056661	
  5007	12666	001000	42970		JMP	KL1
  5008	12667	012656	
PAGE 01  BSYM.VCD  06-APR-73  09:32:37.683

  5009	      	      	42980	* CHARACTER GOBBLER   CLEAR BUFFER AND SET RSBF AND BR
  5010	12670	010764	42990	DAVT1C	LDA	W3
  5011	12671	004241	43000		LRLA	1
  5012	12672	121127	43010		ADD	=BUFERS+1
  5013	12673	005014	43020		TAX
  5014	12674	002000	43030		JMPM	RT8
  5015	12675	000000	
  5016	12676	001000	43040		JMP	DAVT1A+4
  5017	12677	012535	
  5018	      	      	43050	* CIRCUIT ZAPPER
  5019	12700	002000	43060	DAVT1D	JMPM	ZAP
  5020	12701	000000	
  5021	12702	001000	43070		JMP	DAV7
  5022	12703	012462	
  5023	      	      	43080	* INITIATE CIRCUIT ZAPPER
  5024	12704	000000	43090	ZAP	0
  5025	12705	010764	43100		LDA	W3
  5026	12706	002000	43110		JMPM	BITADD
  5027	12707	013116	
  5028	12710	116206	43120		ORA	STOPIN,6
  5029	12711	056206	43130		STA	STOPIN,6
  5030	12712	016752	43140		LDA	ACTPRT,6
  5031	12713	155257	43150		ANA	CMSK,5
  5032	12714	056752	43160		STA	ACTPRT,6
  5033	12715	010764	43170		LDA	W3
  5034	12716	004241	43180		LRLA	1
  5035	12717	121127	43190		ADD	=BUFERS+1
  5036	12720	005014	43200		TAX
  5037	12721	002000	43210		JMPM	RT8
  5038	12722	000000	
  5039	12723	011073	43220		LDA	=3
  5040	12724	002000	43230		JMPM	WCI
  5041	12725	056661	
  5042	12726	011077	43240		LDA	=100000
  5043	12727	050764	43250		STA	W3
  5044	12730	005041	43260		TXA
  5045	12731	141125	43270		SUB	=BUFERS
  5046	12732	050765	43280		STA	W4
  5047	12733	011172	43290		LDA	=30000
  5048	12734	002000	43300		JMPM	LEPSEN
  5049	12735	000000	
  5050	12736	001000	43310		JMP	ZAP+.
  5051	12737	100000	
  5052	      	      	43320	* SEND TO SUPERVISOR
  5053	12740	011304	43330	DAVT1S	LDA	SCOUNT
  5054	12741	001002	43340		JAP	DAVT1A+4
  5055	12742	012535	
  5056	12743	010775	43350		LDA	W12
  5057	12744	151237	43360		ANA	=370
  5058	12745	001010	43370		JAZ	DAVT1A+4
  5059	12746	012535	
  5060	12747	041304	43380		INR	SCOUNT
  5061	12750	010775	43390		LDA	W12
  5062	12751	050765	43400		STA	W4
PAGE 01  BSYM.VCD  06-APR-73  09:33:07.883

  5063	12752	151234	43410		ANA	=177
  5064	12753	141240	43420		SUB	=55
  5065	12754	001010	43430		JAZ	DAVTS2
  5066	12755	012766	
  5067	12756	005041	43440	DAVTS1	TXA
  5068	12757	141125	43450		SUB	=BUFERS
  5069	12760	050764	43460		STA	W3
  5070	12761	011075	43470		LDA	=10000
  5071	12762	002000	43480		JMPM	LEPSEN
  5072	12763	000000	
  5073	12764	001000	43490		JMP	DAV7
  5074	12765	012462	
  5075	12766	005301	43500	DAVTS2	DEC	,A
  5076	12767	051305	43510		STA	SPORT
  5077	12770	001000	43520		JMP	DAVTS1
  5078	12771	012756	
  5079	      	      	43530	* TYPE 2   ALL DONE
  5080	12772	011320	43540	DAVT2	LDA	ORING
  5081	12773	005311	43550		DAR
  5082	12774	051320	43560		STA	ORING
  5083	12775	001000	43570		JMP	DAVTEL+.
  5084	12776	112323	
  5085	      	      	43580	* TYPE 5 SUPERVISOR REQUEST
  5086	12777	011122	43590	DAVT5	LDA	=5
  5087	13000	001000	43600		JMP	DAVT6A
  5088	13001	013017	
  5089	      	      	43610	* TYPE 6 HOST STATUS
  5090	13002	010775	43620	DAVT6	LDA	W12
  5091	13003	151101	43630		ANA	=377
  5092	13004	001010	43640		JAZ	*+6
  5093	13005	013012	
  5094	13006	010106	43650		LDA	106
  5095	13007	110256	43660		ORA	MASK+17
  5096	13010	001000	43670		JMP	*+4
  5097	13011	013014	
  5098	13012	010106	43680		LDA	106
  5099	13013	150276	43690		ANA	CMSK+17
  5100	13014	050106	43700		STA	106
  5101	13015	050764	43710		STA	W3
  5102	13016	011134	43720		LDA	=6
  5103	13017	020775	43730	DAVT6A	LDB	W12
  5104	13020	004050	43740		LRLB	10
  5105	13021	004450	43750		LLRL	10
  5106	13022	050765	43760		STA	W4
  5107	13023	011174	43770		LDA	=50000
  5108	13024	002000	43780		JMPM	LEPSEN
  5109	13025	000000	
  5110	13026	001000	43790		JMP	DAV7
  5111	13027	012462	
  5112	      	      	43800	* TYPE 7   STOP INPUTING
  5113	13030	010764	43810	DAVT7	LDA	W3
  5114	13031	002000	43820		JMPM	BITADD
  5115	13032	013116	
  5116	13033	005211	43830		COM	A,A
PAGE 01  BSYM.VCD  06-APR-73  09:33:18.333

  5117	13034	156206	43840		ANA	STOPIN,6
  5118	13035	056206	43850		STA	STOPIN,6
  5119	13036	001000	43860		JMP	DAV7
  5120	13037	012462	
  5121	      	      	43870	* TYPE 10   CANCEL TYPE 7
  5122	13040	010764	43880	DAVT10	LDA	W3
  5123	13041	002000	43890		JMPM	BITADD
  5124	13042	013116	
  5125	13043	116206	43900		ORA	STOPIN,6
  5126	13044	056206	43910		STA	STOPIN,6
  5127	13045	001000	43920		JMP	DAV7
  5128	13046	012462	
  5129	      	      	43930	* UNIMPLEMENTED TYPE
  5130	13047	002000	43940	DAVTNG	JMPM	CR940
  5131	13050	013104	
  5132	13051	001000	43950		JMP	DAVTEL+.
  5133	13052	112323	
  5134	      	      	43960	* DISPATCH TABLE
  5135	13053	013047	43970	DAVT	+DAVTNG; +DAVT1; +DAVT2; +DAVTNG; +DAVTNG; +DAVT5; +DAVT6; +DAVT7; +DAVT10
  5136	13054	012520	
  5137	13055	012772	
  5138	13056	013047	
  5139	13057	013047	
  5140	13060	012777	
  5141	13061	013002	
  5142	13062	013030	
  5143	13063	013040	
  5144	      	      	43980	* CLEAR THE MIC AND ATTEMPT TO CRASH THE 940
  5145	13064	000000	43990	CR940A	0
  5146	13065	100130	44000		EXC	130
  5147	13066	031241	44010		LDX	=74
  5148	13067	011242	44020		LDA	=21
  5149	13070	021243	44030		LDB	=100214
  5150	13071	002000	44040		JMPM	IN
  5151	13072	013305	
  5152	13073	031244	44050		LDX	=216
  5153	13074	024007	44060		LDB	CR940
  5154	13075	002000	44070		JMPM	IN
  5155	13076	013305	
  5156	13077	031232	44080		LDX	=212
  5157	13100	002000	44090		JMPM	IN
  5158	13101	013305	
  5159	13102	001000	44100		JMP	CR940A+.
  5160	13103	100000	
  5161	13104	000000	44110	CR940	0
  5162	13105	010107	44120		LDA	UPDOWN
  5163	13106	001004	44130		JAN	CR940+.
  5164	13107	113104	
  5165	13110	002000	44140		JMPM	CR940A
  5166	13111	000000	
  5167	13112	002000	44150		JMPM	DOWN9
  5168	13113	012247	
  5169	13114	001000	44160		JMP	CR940+.
  5170	13115	113104	
PAGE 01  BSYM.VCD  06-APR-73  09:33:22.133

  5171	13116	000000	44170	BITADD	0
  5172	13117	005012	44180		TAB
  5173	13120	004144	44190		LSRB	4
  5174	13121	151121	44200		ANA	=17
  5175	13122	005014	44210		TAX
  5176	13123	015237	44220		LDA	MASK,5
  5177	13124	001000	44230		JMP	BITADD+.
  5178	13125	113116	
  5179	      	      	44240	* READS WORD ADDRESSED BY A
  5180	      	      	44250	* RETURNS WORD RIGHT JUSTIFIED IN AB
  5181	      	      	44260	* IF REJECTED BY MIC, AB=0
  5182	13126	103136	44270	LOOK1	OAR	36
  5183	13127	103035	44280		OME	35,RD940
  5184	13130	001341	
  5185	13131	005003	44290		COP	,AB
  5186	13132	004456	44310		LLRL	16
  5187	13133	101137	44330		SEN	137,LOOK2
  5188	13134	013143	
  5189	13135	101137	44340		SEN	137,LOOK2
  5190	13136	013143	
  5191	13137	101137	44350		SEN	137,LOOK2
  5192	13140	013143	
  5193	13141	001000	44360		JMP	LOOK+.
  5194	13142	113146	
  5195	13143	102535	44370	LOOK2	CIA	35
  5196	13144	102637	44380		CIB	37
  5197	13145	001000	44390		1000
  5198	13146	000000	44400	LOOK	0
  5199	13147	101137	44410		SEN	137,LOOK1
  5200	13150	013126	
  5201	13151	005003	44420		COP	,AB
  5202	13152	001000	44430		JMP	LOOK+.
  5203	13153	113146	
  5204	      	      	44440	* GETS 2 WORDS OUT OF THE 940 AND STORES THE SECOND ONE INTO
  5205	      	      	44450	* A AND W12   LOW ORDER 16 BITS IN W12
  5206	      	      	44460	* REQUIRES ADDRESS IN A
  5207	      	      	44470	* WILL TRY 4 TIMES IF REJECTED BY MIC AFTER WHICH MICRJC
  5208	      	      	44480	* WILL BE BUMPED
  5209	      	      	44490	* IF FIRST WORD IS NOT LOGICAL COMPLEMENT OF SECOND, MICERR
  5210	      	      	44500	* WILL BE BUMPED
  5211	      	      	44510	* ON BOTH ERRORS, 940 WILL BE CRASHED, UPDOWN AND STAYDN SET
  5212	      	      	44520	* TO -1, AND A WILL BE NEGATIVE ON RETURN
  5213	13154	005112	44530	OUT91	INC	A,B
  5214	13155	103236	44540		OBR	36
  5215	13156	103035	44550		OME	35,RD940
  5216	13157	001341	
  5217	13160	050773	44560		STA	W10
  5218	13161	005202	44570		COM	,B
  5219	13162	101137	44580		SEN	137,OUT92
  5220	13163	013172	
  5221	13164	002000	44600		JMPM	DELAY
  5222	13165	013313	
  5223	13166	101137	44640		SEN	137,OUT92
  5224	13167	013172	
PAGE 01  BSYM.VCD  06-APR-73  09:33:22.783

  5225	13170	001000	44650		JMP	OUT93
  5226	13171	013212	
  5227	13172	103136	44660	OUT92	OAR	36
  5228	13173	102535	44670		CIA	35
  5229	13174	102037	44680		IME	37,W12
  5230	13175	000775	
  5231	13176	103035	44690		OME	35,RD940
  5232	13177	001341	
  5233	13200	050774	44700		STA	W11
  5234	13201	141124	44710		SUB	=2
  5235	13202	001010	44720		JAZ	OUT-2
  5236	13203	013263	
  5237	13204	101137	44730		SEN	137,OT5
  5238	13205	013225	
  5239	13206	002000	44750		JMPM	DELAY
  5240	13207	013313	
  5241	13210	101137	44790		SEN	137,OT5
  5242	13211	013225	
  5243	13212	010773	44800	OUT93	LDA	W10
  5244	13213	040772	44810		INR	W9
  5245	13214	020772	44820		LDB	W9
  5246	13215	004142	44830		LSRB	2
  5247	13216	001020	44840		JBZ	OUT+3
  5248	13217	013270	
  5249	13220	041337	44850		INR	MICRJC
  5250	13221	002000	44860	OUT94	JMPM	CR940
  5251	13222	013104	
  5252	13223	001000	44870		JMP	OUT+.
  5253	13224	113265	
  5254	13225	102535	44880	OT5	CIA	35
  5255	13226	130774	44890		ERA	W11
  5256	13227	131101	44900		ERA	=377
  5257	13230	005014	44910		TAX
  5258	13231	102537	44920		CIA	37
  5259	13232	103237	44930		OBR	37
  5260	13233	020773	44940		LDB	W10
  5261	13234	103236	44950		OBR	36
  5262	13235	103035	44960		OME	35,OUTN
  5263	13236	013274	
  5264	13237	005122	44970		IBR
  5265	13240	130775	44980		ERA	W12
  5266	13241	005111	44990		IAR
  5267	13242	001050	45000		JIF	AXZERO,OT6
  5268	13243	013247	
  5269	13244	041340	45010		INR	MICERR
  5270	13245	001000	45020		JMP	OUT94
  5271	13246	013221	
  5272	13247	101137	45030	OT6	SEN	137,OT7
  5273	13250	013257	
  5274	13251	002000	45050		JMPM	DELAY
  5275	13252	013313	
  5276	13253	101137	45090		SEN	137,OT7
  5277	13254	013257	
  5278	13255	001000	45100		JMP	OUT94-1
PAGE 01  BSYM.VCD  06-APR-73  09:33:23.333

  5279	13256	013220	
  5280	13257	103236	45110	OT7	OBR	36
  5281	13260	103137	45120		OAR	37
  5282	13261	103035	45130		OME	35,OUTP
  5283	13262	013275	
  5284	13263	010774	45140		LDA	W11
  5285	13264	001000	45150		1000
  5286	13265	000000	45160	OUT	0
  5287	13266	005002	45170		TZB
  5288	13267	060772	45180		STB	W9
  5289	13270	101137	45190		SEN	137,OUT91
  5290	13271	013154	
  5291	13272	001000	45200		JMP	OUT93+1
  5292	13273	013213	
  5293	13274	001375	45210	OUTN	1375
  5294	13275	001002	45220	OUTP	1002
  5295	      	      	45230	* INPUT THE 24 BIT WORD RIGHT JUSTIFIED IN AB INTO THE
  5296	      	      	45240	* 940 AT THE ADDRESS CONTAINED IN X
  5297	      	      	45250	* IF MIC IS BUSY, A IS NEGATIVE ON RETURN
  5298	13276	103237	45260	IN91	OBR	37
  5299	13277	005042	45270		TXB
  5300	13300	103236	45280		OBR	36
  5301	13301	151101	45290		ANA	=377
  5302	13302	110250	45300		ORA	MASK+11
  5303	13303	103135	45310		OAR	35
  5304	13304	001000	45320		1000
  5305	13305	000000	45330	IN	0
  5306	13306	101137	45340		SEN	137,IN91
  5307	13307	000000	
  5308	13310	005201	45350		COM	,A
  5309	13311	001000	45360		JMP	IN+.
  5310	13312	113305	
  5311	      	      	45380	* DELAY FOR L100
  5312	13313	000000	45390	DELAY	0
  5313	13314	004460	45400		LLRL	20
  5314	13315	004460	45410		LLRL	20
  5315	13316	001000	45420		JMP	DELAY+.
  5316	13317	113313	
  5317	      	      	45440	*
  5318	      	      	45450	* INPUTS THE 24 BIT WORD RIGHT JUSTIFIED IN AB INTO THE 940
  5319	      	      	45460	* AT (X)+1 AND ITS COMPLEMENT AT (X)
  5320	      	      	45470	* IF REJECTED BY THE MIC, WILL TRY 4 TIMES AFTER WHICH 940 WILL
  5321	      	      	45480	* BE CRASHED, MICRJC WILL BE BUMPED, AND A WILL BE NEGATIVE ON RETURN
  5322	13320	000000	45490	IN940	0
  5323	13321	050774	45500		STA	W11
  5324	13322	005001	45510		TZA
  5325	13323	050773	45520		STA	W10
  5326	13324	060775	45530		STB	W12
  5327	13325	010774	45540		LDA	W11
  5328	13326	005211	45550		COM	A,A
  5329	13327	005222	45560		COM	B,B
  5330	13330	002000	45570		JMPM	IN
  5331	13331	013305	
  5332	13332	005144	45580		IXR
PAGE 01  BSYM.VCD  06-APR-73  09:33:30.366

  5333	13333	001004	45590		JAN	IN940A
  5334	13334	013343	
  5335	13335	010774	45600		LDA	W11
  5336	13336	020775	45610		LDB	W12
  5337	13337	002000	45620		JMPM	IN
  5338	13340	013305	
  5339	13341	001002	45630		JAP	IN940+.
  5340	13342	113320	
  5341	13343	040773	45640	IN940A	INR	W10
  5342	13344	020773	45650		LDB	W10
  5343	13345	004142	45660		LSRB	2
  5344	13346	001020	45670		JBZ	*+7
  5345	13347	013355	
  5346	13350	041337	45680		INR	MICRJC
  5347	13351	002000	45690		JMPM	CR940
  5348	13352	013104	
  5349	13353	001000	45700		JMP	IN940+.
  5350	13354	113320	
  5351	13355	005344	45710		DXR
  5352	13356	020775	45720		LDB	W12
  5353	13357	001000	45730		JMP	IN940+5
  5354	13360	013325	
  5355	      	      	45740	* CHECKS NEXT QUARTER OF 940 INPUT RING TO SEE IF
  5356	      	      	45750	* IT CAN UPDATE ICOUNT. IF UNSUCCESSFUL AFTER ONE QUARTER SECOND
  5357	      	      	45760	* IT WILL CRASH 940
  5358	13361	000000	45770	UPDATE	0
  5359	13362	011317	45780		LDA	IRING
  5360	13363	121151	45790		ADD	=20
  5361	13364	151153	45800		ANA	=60
  5362	13365	004241	45810		LRLA	1
  5363	13366	121245	45820		ADD	=50001
  5364	13367	050773	45830		STA	W10
  5365	13370	002000	45840		JMPM	LOOK
  5366	13371	013146	
  5367	13372	141124	45850		SUB	=2
  5368	13373	001010	45860		JAZ	UP2
  5369	13374	013420	
  5370	13375	011312	45870		LDA	TIMEL
  5371	13376	050772	45880		STA	W9
  5372	13377	041275	45890		INR	FULL
  5373	13400	100030	45900	UP1	EXC	30
  5374	13401	010773	45910		LDA	W10
  5375	13402	002000	45920		JMPM	LOOK
  5376	13403	013146	
  5377	13404	141124	45930		SUB	=2
  5378	13405	001010	45940		JAZ	UP2
  5379	13406	013420	
  5380	13407	011312	45950		LDA	TIMEL
  5381	13410	140772	45960		SUB	W9
  5382	13411	141246	45970		SUB	=TICKSPS/4
  5383	13412	001004	45980		JAN	UP1
  5384	13413	013400	
  5385	13414	002000	45990		JMPM	CR940
  5386	13415	013104	
PAGE 01  BSYM.VCD  06-APR-73  09:33:31.250

  5387	13416	001000	46000		JMP	UPDATE+.
  5388	13417	113361	
  5389	13420	011316	46010	UP2	LDA	ICOUNT
  5390	13421	141151	46020		SUB	=20
  5391	13422	051316	46030		STA	ICOUNT
  5392	13423	001000	46040		JMP	UPDATE+.
  5393	13424	113361	
  5394	      	      	46070	* INTERFACE TO THE DVID ALEXANDER GARDNER TELETYPE LOGIC
  5395	      	      	46080	* W1 GROUP NUMBER
  5396	      	      	46090	* W2 BIT POSITION NUMBER
  5397	      	      	46100	* W3 PORT NUMBER
  5398	      	      	46110	* W4 DATA CHARACTER
  5399	13425	000000	46120	DVTEL	0
  5400	      	      	46130	* IS THE 941 UP
  5401	13426	010111	46140	DV1	LDA	UPDN1
  5402	13427	001004	46150		JAN	DVTEL+.
  5403	13430	113425	
  5404	      	      	46160	* IS THERE ROOM IN THE INPUT RING
  5405	13431	011321	46170		LDA	ICNT1
  5406	13432	001004	46180		JAN	DV3-1
  5407	13433	013444	
  5408	13434	002000	46190		JMPM	UUPDT1
  5409	13435	014372	
  5410	13436	010111	46200		LDA	UPDN1
  5411	13437	001004	46210		JAN	DVTEL+.
  5412	13440	113425	
  5413	13441	011321	46220		LDA	ICNT1
  5414	13442	001002	46230		JAP	DVTEL+.
  5415	13443	113425	
  5416	      	      	46240	* PROCESS 3 GROUPS OF INPUT PORTS
  5417	13444	031107	46250		LDX	=4
  5418	13445	070762	46260	DV3	STX	W1
  5419	13446	015314	46270		LDA	IIN,5
  5420	13447	155752	46280		ANA	ACTPRT,5
  5421	13450	155206	46290		ANA	STOPIN,5
  5422	13451	001010	46300		JAZ	DV6
  5423	13452	013560	
  5424	13453	002000	46310		JMPM	BID
  5425	13454	012311	
  5426	13455	070763	46320		STX	W2
  5427	13456	010762	46330		LDA	W1
  5428	13457	004244	46340		LRLA	4
  5429	13460	005051	46350		COP	AX,A
  5430	13461	050764	46360		STA	W3
  5431	13462	004241	46370		LRLA	1
  5432	13463	121125	46380		ADD	=BUFERS
  5433	13464	005014	46390		TAX
  5434	13465	002000	46400		JMPM	GCI
  5435	13466	000000	
  5436	13467	050765	46410		STA	W4
  5437	      	      	46420	* CHECK FOR SPECIAL HANDLING
  5438	13470	141107	46430		SUB	=4
  5439	13471	001004	46440		JAN	DV5
  5440	13472	013514	
PAGE 01  BSYM.VCD  06-APR-73  09:33:39.883

  5441	      	      	46450	* INPUT TYPE 1 CHARACTER
  5442	13473	011322	46460		LDA	IRING1
  5443	13474	041322	46470	DV4	INR	IRING1
  5444	13475	041321	46480		INR	ICNT1
  5445	13476	151147	46490		ANA	=77
  5446	13477	004241	46500		LRLA	1
  5447	13500	121174	46510		ADD	=50000
  5448	13501	005014	46520		TAX
  5449	13502	010764	46530		LDA	W3
  5450	13503	004250	46540		LRLA	10
  5451	13504	020765	46550		LDB	W4
  5452	13505	005032	46560		COP	AB,B
  5453	13506	005101	46570		INC	,A
  5454	13507	002000	46580	DV4A	JMPM	INN941
  5455	13510	014326	
  5456	13511	100230	46590		EXC	230
  5457	13512	001000	46600		JMP	DV1
  5458	13513	013426	
  5459	13514	121124	46610	DV5	ADD	=2
  5460	13515	001010	46620		JAZ	DV4-1
  5461	13516	177777	
  5462	13517	001004	46630		JAN	DV5A
  5463	13520	013533	
  5464	      	      	46640	* PROTECT SUPERVISOR FROM ZAPPERS
  5465	13521	010764	46650		LDA	W3
  5466	13522	005311	46660		DAR
  5467	13523	001002	46670		JAP	DV4-1
  5468	13524	177777	
  5469	13525	010100	46680		LDA	MACHNO
  5470	13526	141122	46690		SUB	=5
  5471	13527	001004	46700		JAN	DV1
  5472	13530	013426	
  5473	13531	001000	46710		JMP	DV4-1
  5474	13532	177777	
  5475	      	      	46720	* CHARACTER PAIR   INPUT SECOND CHARACTER FIRST
  5476	13533	002000	46730	DV5A	JMPM	GCI
  5477	13534	000000	
  5478	13535	020764	46740		LDB	W3
  5479	13536	004050	46750		LRLB	10
  5480	13537	005032	46760		COP	AB,B
  5481	13540	011322	46770		LDA	IRING1
  5482	13541	005111	46780		IAR
  5483	13542	151147	46790		ANA	=77
  5484	13543	004241	46800		LRLA	1
  5485	13544	121174	46810		ADD	=50000
  5486	13545	005014	46820		TAX
  5487	13546	005101	46830		INC	,A
  5488	13547	002000	46840		JMPM	INN941
  5489	13550	014326	
  5490	13551	001004	46850		JAN	DVTEL+.
  5491	13552	113425	
  5492	13553	011322	46860		LDA	IRING1
  5493	13554	041322	46870		INR	IRING1
  5494	13555	041321	46880		INR	ICNT1
PAGE 01  BSYM.VCD  06-APR-73  09:33:57.833

  5495	13556	001000	46890		JMP	DV4
  5496	13557	000000	
  5497	      	      	46900	* PROCESS NEXT GROUP
  5498	13560	005145	46910	DV6	INC	X,AX
  5499	13561	141140	46920		SUB	=10
  5500	13562	001004	46930		JAN	DV3
  5501	13563	013445	
  5502	      	      	46940	* PROCESS OUUTPUT
  5503	13564	011323	46950	DV7	LDA	ORING1
  5504	13565	041323	46960		INR	ORING1
  5505	13566	151234	46970		ANA	=177
  5506	13567	004241	46980		LRLA	1
  5507	13570	121235	46990		ADD	=50200
  5508	13571	002000	47000		JMPM	OUUT
  5509	13572	014300	
  5510	13573	001004	47010		JAN	DVTEL+.
  5511	13574	113425	
  5512	      	      	47020	* CHECK RANGE OF TYPE NUMBER
  5513	13575	141170	47030		SUB	=11
  5514	13576	001004	47040		JAN	*+6
  5515	13577	013604	
  5516	13600	002000	47050		JMPM	CR941
  5517	13601	014124	
  5518	13602	001000	47060		JMP	DVTEL+.
  5519	13603	113425	
  5520	      	      	47070	* DISPATCH TO TYPE ROUTINE
  5521	13604	121247	47080		ADD	=DVT+.+11
  5522	13605	054005	47090		STA	DVT1-5
  5523	      	      	47100	* FIRST CHECK PORT NUMBER RANGE
  5524	13606	010775	47110		LDA	W12
  5525	13607	004350	47120		LSRA	10
  5526	13610	050764	47130		STA	W3
  5527	13611	141145	47140		SUB	=200
  5528	13612	001004	47150		JAN	*
  5529	13613	013612	
  5530	13614	002000	47160		JMPM	CR941
  5531	13615	014124	
  5532	13616	001000	47170		JMP	DVTEL+.
  5533	13617	113425	
  5534	      	      	47180	* TYPE 1 DATA CHARACTER
  5535	      	      	47190	* CHECK FOR CHARACTER PAIR,
  5536	      	      	47200	* CHARACTER GOBBLER, OR CIRCUIT ZAPPER
  5537	13620	010775	47210	DVT1	LDA	W12
  5538	13621	151101	47220		ANA	=377
  5539	13622	141107	47230		SUB	=4
  5540	13623	001004	47240		JAN	DVT1B
  5541	13624	013673	
  5542	13625	010764	47250		LDA	W3
  5543	13626	004241	47260		LRLA	1
  5544	13627	121127	47270		ADD	=BUFERS+1
  5545	13630	005014	47280		TAX
  5546	13631	010764	47290	DVT1A	LDA	W3
  5547	13632	141305	47300		SUB	SPORT
  5548	13633	001010	47310		JAZ	DVT1S
PAGE 01  BSYM.VCD  06-APR-73  09:34:03.933

  5549	13634	013760	
  5550	13635	010775	47320		LDA	W12
  5551	13636	002000	47330		JMPM	WCI
  5552	13637	056661	
  5553	      	      	47340	* CHECK FOR FULL BUFFER
  5554	13640	015742	47350		LDA	BC,5
  5555	13641	141145	47360		SUB	=200
  5556	13642	001004	47370		JAN	DV7
  5557	13643	013564	
  5558	      	      	47380	* BUFFER FULL   HAVE WE SAID STOP
  5559	13644	010764	47390		LDA	W3
  5560	13645	002000	47400		JMPM	BITADD
  5561	13646	013116	
  5562	13647	156742	47410		ANA	STOPO,6
  5563	13650	001010	47420		JAZ	*+4
  5564	13651	013654	
  5565	13652	001000	47430		JMP	DV7
  5566	13653	013564	
  5567	      	      	47440	* TELL THE 941 TO STOP OUUTPUTING ON THIS PORT
  5568	13654	016742	47450		LDA	STOPO,6
  5569	13655	115237	47460		ORA	MASK,5
  5570	13656	056742	47470		STA	STOPO,6
  5571	13657	011322	47480		LDA	IRING1
  5572	13660	041322	47490		INR	IRING1
  5573	13661	041321	47500		INR	ICNT1
  5574	13662	151147	47510		ANA	=77
  5575	13663	004241	47520		LRLA	1
  5576	13664	121174	47530		ADD	=50000
  5577	13665	005014	47540		TAX
  5578	13666	020764	47550		LDB	W3
  5579	13667	004050	47560		LRLB	10
  5580	13670	011104	47570		LDA	=7
  5581	13671	001000	47580		JMP	DV4A
  5582	13672	013507	
  5583	13673	121124	47590	DVT1B	ADD	=2
  5584	13674	001010	47600		JAZ	DVT1C
  5585	13675	013744	
  5586	13676	001002	47610		JAP	DVT1D
  5587	13677	013754	
  5588	      	      	47620	* SPECIAL CHARACTER PAIR WHICH MUST BE SENT TOGETHER
  5589	13700	010775	47630		LDA	W12
  5590	13701	050765	47640		STA	W4
  5591	13702	011323	47650		LDA	ORING1
  5592	13703	041323	47660		INR	ORING1
  5593	13704	151234	47670		ANA	=177
  5594	13705	004241	47680		LRLA	1
  5595	13706	121235	47690		ADD	=50200
  5596	13707	002000	47700		JMPM	OUUT
  5597	13710	014300	
  5598	13711	001004	47710		JAN	DVTEL+.
  5599	13712	113425	
  5600	      	      	47720	* CHECK FOR TYPE 1
  5601	13713	005311	47730		DAR
  5602	13714	001010	47740		JAZ	*+6
PAGE 01  BSYM.VCD  06-APR-73  09:34:04.516

  5603	13715	013722	
  5604	13716	002000	47750		JMPM	CR941
  5605	13717	014124	
  5606	13720	001000	47760		JMP	DVTEL+.
  5607	13721	113425	
  5608	      	      	47770	* CHECK FOR SAME PORT NUMBER
  5609	13722	010775	47780		LDA	W12
  5610	13723	004350	47790		LSRA	10
  5611	13724	130764	47800		ERA	W3
  5612	13725	001010	47810		JAZ	*+6
  5613	13726	013733	
  5614	13727	002000	47820		JMPM	CR941
  5615	13730	014124	
  5616	13731	001000	47830		JMP	DVTEL+.
  5617	13732	113425	
  5618	13733	010764	47840		LDA	W3
  5619	13734	004241	47850		LRLA	1
  5620	13735	121127	47860		ADD	=BUFERS+1
  5621	13736	005014	47870		TAX
  5622	13737	010765	47880		LDA	W4
  5623	13740	002000	47890		JMPM	WCI
  5624	13741	056661	
  5625	13742	001000	47900		JMP	DVT1A+4
  5626	13743	013635	
  5627	      	      	47910	* CHARACTER GOBBLER   CLEAR BUFFER AND SET RSBF AND BR
  5628	13744	010764	47920	DVT1C	LDA	W3
  5629	13745	004241	47930		LRLA	1
  5630	13746	121127	47940		ADD	=BUFERS+1
  5631	13747	005014	47950		TAX
  5632	13750	002000	47960		JMPM	RT8
  5633	13751	000000	
  5634	13752	001000	47970		JMP	DVT1A+4
  5635	13753	013635	
  5636	      	      	47980	* CIRCUIT ZAPPER
  5637	13754	002000	47990	DVT1D	JMPM	ZAP
  5638	13755	000000	
  5639	13756	001000	48000		JMP	DV7
  5640	13757	013564	
  5641	      	      	48010	* SEND TO SUPERVISOR
  5642	13760	011304	48020	DVT1S	LDA	SCOUNT
  5643	13761	001002	48030		JAP	DVT1A+4
  5644	13762	013635	
  5645	13763	010775	48040		LDA	W12
  5646	13764	151237	48050		ANA	=370
  5647	13765	001010	48060		JAZ	DVT1A+4
  5648	13766	013635	
  5649	13767	041304	48070		INR	SCOUNT
  5650	13770	010775	48080		LDA	W12
  5651	13771	050765	48090		STA	W4
  5652	13772	151234	48100		ANA	=177
  5653	13773	141240	48110		SUB	=55
  5654	13774	001010	48120		JAZ	DVTS2
  5655	13775	000000	
  5656	13776	005041	48130	DVTS1	TXA
PAGE 01  BSYM.VCD  06-APR-73  09:34:24.116

  5657	13777	141125	48140		SUB	=BUFERS
  5658	14000	050764	48150		STA	W3
  5659	14001	011075	48160		LDA	=10000
  5660	14002	002000	48170		JMPM	LEPSEN
  5661	14003	000000	
  5662	14004	001000	48180		JMP	DV7
  5663	14005	013564	
  5664	14006	005301	48190	DVTS2	DEC	,A
  5665	14007	051305	48200		STA	SPORT
  5666	14010	001000	48210		JMP	DVTS1
  5667	14011	013776	
  5668	      	      	48220	* TYPE 2   ALL DONE
  5669	14012	011323	48230	DVT2	LDA	ORING1
  5670	14013	005311	48240		DAR
  5671	14014	051323	48250		STA	ORING1
  5672	14015	001000	48260		JMP	DVTEL+.
  5673	14016	113425	
  5674	      	      	48270	* TYPE 5 SUPERVISOR REQUEST
  5675	14017	011122	48280	DVT5	LDA	=5
  5676	14020	001000	48290		JMP	DVT6A
  5677	14021	014037	
  5678	      	      	48300	* TYPE 6 HOST STATUS
  5679	14022	010775	48310	DVT6	LDA	W12
  5680	14023	151101	48320		ANA	=377
  5681	14024	001010	48330		JAZ	*+6
  5682	14025	014032	
  5683	14026	010110	48340		LDA	110
  5684	14027	110256	48350		ORA	MASK+17
  5685	14030	001000	48360		JMP	*+4
  5686	14031	014034	
  5687	14032	010110	48370		LDA	110
  5688	14033	150276	48380		ANA	CMSK+17
  5689	14034	050110	48390		STA	110
  5690	14035	050764	48400		STA	W3
  5691	14036	011134	48410		LDA	=6
  5692	14037	020775	48420	DVT6A	LDB	W12
  5693	14040	004050	48430		LRLB	10
  5694	14041	004450	48440		LLRL	10
  5695	14042	050765	48450		STA	W4
  5696	14043	011174	48460		LDA	=50000
  5697	14044	002000	48470		JMPM	LEPSEN
  5698	14045	000000	
  5699	14046	001000	48480		JMP	DV7
  5700	14047	013564	
  5701	      	      	48490	* TYPE 7   STOP INPUTING
  5702	14050	010764	48500	DVT7	LDA	W3
  5703	14051	002000	48510		JMPM	BITADD
  5704	14052	013116	
  5705	14053	005211	48520		COM	A,A
  5706	14054	156206	48530		ANA	STOPIN,6
  5707	14055	056206	48540		STA	STOPIN,6
  5708	14056	001000	48550		JMP	DV7
  5709	14057	013564	
  5710	      	      	48560	* TYPE 10   CANCEL TYPE 7
PAGE 01  BSYM.VCD  06-APR-73  09:34:33.933

  5711	14060	010764	48570	DVT10	LDA	W3
  5712	14061	002000	48580		JMPM	BITADD
  5713	14062	013116	
  5714	14063	116206	48590		ORA	STOPIN,6
  5715	14064	056206	48600		STA	STOPIN,6
  5716	14065	001000	48610		JMP	DV7
  5717	14066	013564	
  5718	      	      	48620	* UNIMPLEMENTED TYPE
  5719	14067	002000	48630	DVTNG	JMPM	CR941
  5720	14070	014124	
  5721	14071	001000	48640		JMP	DVTEL+.
  5722	14072	113425	
  5723	      	      	48650	* DISPATCH TABLE
  5724	14073	014067	48660	DVT	+DVTNG; +DVT1; +DVT2; +DVTNG; +DVTNG; +DVT5; +DVT6; +DVT7; +DVT10
  5725	14074	013620	
  5726	14075	014012	
  5727	14076	014067	
  5728	14077	014067	
  5729	14100	000000	
  5730	14101	014022	
  5731	14102	014050	
  5732	14103	014060	
  5733	      	      	48670	* CLEAR THE MIC AND ATTEMPT TO CRASH THE 941
  5734	14104	000000	48680	CR941A	0
  5735	14105	100330	48690		EXC	330
  5736	14106	031241	48700		LDX	=74
  5737	14107	011242	48710		LDA	=21
  5738	14110	021243	48720		LDB	=100214
  5739	14111	002000	48730		JMPM	INN
  5740	14112	014320	
  5741	14113	031244	48740		LDX	=216
  5742	14114	024007	48750		LDB	CR941
  5743	14115	002000	48760		JMPM	INN
  5744	14116	014320	
  5745	14117	031232	48770		LDX	=212
  5746	14120	002000	48780		JMPM	INN
  5747	14121	014320	
  5748	14122	001000	48790		JMP	CR941A+.
  5749	14123	114104	
  5750	14124	000000	48800	CR941	0
  5751	14125	010111	48810		LDA	UPDN1
  5752	14126	001004	48820		JAN	CR941+.
  5753	14127	114124	
  5754	14130	002000	48830		JMPM	CR941A
  5755	14131	014104	
  5756	14132	002000	48840		JMPM	DOWN91
  5757	14133	000000	
  5758	14134	001000	48850		JMP	CR941+.
  5759	14135	114124	
  5760	      	      	48860	* READS WORD ADDRESSED BY A
  5761	      	      	48870	* RETURNS WORD RIGHT JUSTIFIED IN AB
  5762	      	      	48880	* IF REJECTED BY MIC, AB=0
  5763	14136	103132	48890	LOOOK1	OAR	32
  5764	14137	103031	48900		OME	31,RD940
PAGE 01  BSYM.VCD  06-APR-73  09:34:45.233

  5765	14140	001341	
  5766	14141	005003	48910		COP	,AB
  5767	14142	004456	48920		LLRL	16
  5768	14143	101133	48930		SEN	133,LOOOK2
  5769	14144	014153	
  5770	14145	101133	48940		SEN	133,LOOOK2
  5771	14146	014153	
  5772	14147	101133	48950		SEN	133,LOOOK2
  5773	14150	014153	
  5774	14151	001000	48960		JMP	LOOOK+.
  5775	14152	114156	
  5776	14153	102531	48970	LOOOK2	CIA	31
  5777	14154	102633	48980		CIB	33
  5778	14155	001000	48990		1000
  5779	14156	000000	49000	LOOOK	0
  5780	14157	101133	49010		SEN	133,LOOOK1
  5781	14160	014136	
  5782	14161	005003	49020		COP	,AB
  5783	14162	001000	49030		JMP	LOOOK+.
  5784	14163	114156	
  5785	      	      	49040	* GETS 2 WORDS OUUT OF THE 941 AND STORES THE SECOND ONE INTO
  5786	      	      	49050	* A AND W12   LOW ORDER 16 BITS IN W12
  5787	      	      	49060	* REQUIRES ADDRESS IN A
  5788	      	      	49070	* WILL TRY 4 TIMES IF REJECTED BY MIC AFTER WHICH MICRJ2
  5789	      	      	49080	* WILL BE BUMPED
  5790	      	      	49090	* IF FIRST WORD IS NOT LOGICAL COMPLEMENT OF SECOND, MICER2
  5791	      	      	49100	* WILL BE BUMPED
  5792	      	      	49110	* ON BOTH ERRORS, 941 WILL BE CRASHED, UPDN1 AND STAYDN SET
  5793	      	      	49120	* TO -1, AND A WILL BE NEGATIVE ON RETURN
  5794	14164	005112	49130	OUUT91	INC	A,B
  5795	14165	103232	49140		OBR	32
  5796	14166	103031	49150		OME	31,RD940
  5797	14167	001341	
  5798	14170	050773	49160		STA	W10
  5799	14171	005202	49170		COM	,B
  5800	14172	101133	49180		SEN	133,OUUT92
  5801	14173	014202	
  5802	14174	002000	49190		JMPM	DELAY
  5803	14175	013313	
  5804	14176	101133	49200		SEN	133,OUUT92
  5805	14177	014202	
  5806	14200	001000	49210		JMP	OUUT93
  5807	14201	000000	
  5808	14202	103132	49220	OUUT92	OAR	32
  5809	14203	102531	49230		CIA	31
  5810	14204	102033	49240		IME	33,W12
  5811	14205	000775	
  5812	14206	103031	49250		OME	31,RD940
  5813	14207	001341	
  5814	14210	050774	49260		STA	W11
  5815	14211	141124	49270		SUB	=2
  5816	14212	001010	49280		JAZ	OUUT-2
  5817	14213	014276	
  5818	14214	101133	49290		SEN	133,OUUT5
PAGE 01  BSYM.VCD  06-APR-73  09:34:49.966

  5819	14215	014235	
  5820	14216	002000	49300		JMPM	DELAY
  5821	14217	013313	
  5822	14220	101133	49310		SEN	133,OUUT5
  5823	14221	014235	
  5824	14222	010773	49320	OUUT93	LDA	W10
  5825	14223	040772	49330		INR	W9
  5826	14224	020772	49340		LDB	W9
  5827	14225	004142	49350		LSRB	2
  5828	14226	001020	49360		JBZ	OUUT+3
  5829	14227	014303	
  5830	14230	041325	49370		INR	MICRJ2
  5831	14231	002000	49380	OUUT94	JMPM	CR941
  5832	14232	014124	
  5833	14233	001000	49390		JMP	OUUT+.
  5834	14234	114300	
  5835	14235	102531	49400	OUUT5	CIA	31
  5836	14236	130774	49410		ERA	W11
  5837	14237	131101	49420		ERA	=377
  5838	14240	005014	49430		TAX
  5839	14241	102533	49440		CIA	33
  5840	14242	103233	49450		OBR	33
  5841	14243	020773	49460		LDB	W10
  5842	14244	103232	49470		OBR	32
  5843	14245	103031	49480		OME	31,OUUTN
  5844	14246	014307	
  5845	14247	005122	49490		IBR
  5846	14250	130775	49500		ERA	W12
  5847	14251	005111	49510		IAR
  5848	14252	001050	49520		JIF	AXZERO,OUUT6
  5849	14253	014257	
  5850	14254	041326	49530		INR	MICER2
  5851	14255	001000	49540		JMP	OUUT94
  5852	14256	014231	
  5853	14257	101133	49550	OUUT6	SEN	133,OUUT7
  5854	14260	014267	
  5855	14261	002000	49560		JMPM	DELAY
  5856	14262	013313	
  5857	14263	101133	49570		SEN	133,OUUT7
  5858	14264	014267	
  5859	14265	001000	49580		JMP	OUUT94-1
  5860	14266	014230	
  5861	14267	103232	49590	OUUT7	OBR	32
  5862	14270	103133	49600		OAR	33
  5863	14271	103031	49610		OME	31,OUUTP
  5864	14272	014310	
  5865	14273	010775	49620		LDA	W12
  5866	14274	111100	49630		ORA	=40000
  5867	14275	050775	49640		STA	W12
  5868	14276	010774	49650		LDA	W11
  5869	14277	001000	49660		1000
  5870	14300	000000	49670	OUUT	0
  5871	14301	005002	49680		TZB
  5872	14302	060772	49690		STB	W9
PAGE 01  BSYM.VCD  06-APR-73  09:34:50.450

  5873	14303	101133	49700		SEN	133,OUUT91
  5874	14304	014164	
  5875	14305	001000	49710		JMP	OUUT93+1
  5876	14306	000001	
  5877	14307	001375	49720	OUUTN	1375
  5878	14310	001002	49730	OUUTP	1002
  5879	      	      	49740	* INPUT THE 24 BIT WORD RIGHT JUSTIFIED IN AB INTO THE
  5880	      	      	49750	* 941 AT THE ADDRESS CONTAINED IN X
  5881	      	      	49760	* IF MIC IS BUSY, A IS NEGATIVE ON RETURN
  5882	14311	103233	49770	INN91	OBR	33
  5883	14312	005042	49780		TXB
  5884	14313	103232	49790		OBR	32
  5885	14314	151101	49800		ANA	=377
  5886	14315	110250	49810		ORA	MASK+11
  5887	14316	103131	49820		OAR	31
  5888	14317	001000	49830		1000
  5889	14320	000000	49840	INN	0
  5890	14321	101133	49850		SEN	133,INN91
  5891	14322	014311	
  5892	14323	005201	49860		COM	,A
  5893	14324	001000	49870		JMP	INN+.
  5894	14325	114320	
  5895	      	      	49880	* INNPUTS THE 24 BIT WORD RIGHT JUSTIFIED INN AB INNTO THE 941
  5896	      	      	49890	* AT (X)+1 AND ITS COMPLEMENT AT (X)
  5897	      	      	49900	* IF REJECTED BY THE MIC, WILL TRY 4 TIMES AFTER WHICH 941 WILL
  5898	      	      	49910	* BE CRASHED, MICRJ2 WILL BE BUMPED, AND A WILL BE NEGATIVE ON RETURN
  5899	14326	000000	49920	INN941	0
  5900	14327	050774	49930		STA	W11
  5901	14330	005001	49940		TZA
  5902	14331	050773	49950		STA	W10
  5903	14332	005021	49960		TBA
  5904	14333	141100	49970		SUB	=40000
  5905	14334	005012	49980		TAB
  5906	14335	060775	49990		STB	W12
  5907	14336	010774	50000		LDA	W11
  5908	14337	005211	50010		COM	A,A
  5909	14340	005222	50020		COM	B,B
  5910	14341	002000	50030		JMPM	INN
  5911	14342	014320	
  5912	14343	005144	50040		IXR
  5913	14344	001004	50050		JAN	IN941A
  5914	14345	014354	
  5915	14346	010774	50060		LDA	W11
  5916	14347	020775	50070		LDB	W12
  5917	14350	002000	50080		JMPM	INN
  5918	14351	014320	
  5919	14352	001002	50090		JAP	INN941+.
  5920	14353	114326	
  5921	14354	040773	50100	IN941A	INR	W10
  5922	14355	020773	50110		LDB	W10
  5923	14356	004142	50120		LSRB	2
  5924	14357	001020	50130		JBZ	*+7
  5925	14360	014366	
  5926	14361	041325	50140		INR	MICRJ2
PAGE 01  BSYM.VCD  06-APR-73  09:34:54.766

  5927	14362	002000	50150		JMPM	CR941
  5928	14363	014124	
  5929	14364	001000	50160		JMP	INN941+.
  5930	14365	114326	
  5931	14366	005344	50170		DXR
  5932	14367	020775	50180		LDB	W12
  5933	14370	001000	50190		JMP	INN941+5
  5934	14371	014333	
  5935	      	      	50200	* CHECKS NEXT QUARTER OF 941 INNPUT RINNG TO SEE IF
  5936	      	      	50210	* IT CAN UPDT1 ICNT1. IF UNSUCCESSFUL AFTER ONE QUARTER SECOND
  5937	      	      	50220	* IT WILL CRASH 941
  5938	14372	000000	50230	UUPDT1	0
  5939	14373	011322	50240		LDA	IRING1
  5940	14374	121151	50250		ADD	=20
  5941	14375	151153	50260		ANA	=60
  5942	14376	004241	50270		LRLA	1
  5943	14377	121245	50280		ADD	=50001
  5944	14400	050773	50290		STA	W10
  5945	14401	002000	50300		JMPM	LOOOK
  5946	14402	014156	
  5947	14403	141124	50310		SUB	=2
  5948	14404	001010	50320		JAZ	UUP2
  5949	14405	014431	
  5950	14406	011312	50330		LDA	TIMEL
  5951	14407	050772	50340		STA	W9
  5952	14410	041327	50350		INR	FULL1
  5953	14411	100230	50360	UUP1	EXC	230
  5954	14412	010773	50370		LDA	W10
  5955	14413	002000	50380		JMPM	LOOOK
  5956	14414	014156	
  5957	14415	141124	50390		SUB	=2
  5958	14416	001010	50400		JAZ	UUP2
  5959	14417	014431	
  5960	14420	011312	50410		LDA	TIMEL
  5961	14421	140772	50420		SUB	W9
  5962	14422	141246	50430		SUB	=TICKSPS/4
  5963	14423	001004	50440		JAN	UUP1
  5964	14424	014411	
  5965	14425	002000	50450		JMPM	CR941
  5966	14426	014124	
  5967	14427	001000	50460		JMP	UUPDT1+.
  5968	14430	114372	
  5969	14431	011321	50470	UUP2	LDA	ICNT1
  5970	14432	141151	50480		SUB	=20
  5971	14433	051321	50490		STA	ICNT1
  5972	14434	001000	50500		JMP	UUPDT1+.
  5973	14435	114372	
  5974	      	      	50520	* WARNING! IOTABLES MUST BE MULTIPLE OF 16 IN LENGTH
  5975	      	      	50530	* FIRST CHANNEL SHOULD BE HIGH SPEED FOR EFFICIENCY
  5976	      	      	50540	* SECOND CHANNEL MUST BE HIGH SPEED TO AVOID
  5977	      	      	50550	* LOOPING BUG IN RMAKE CAUSED BY COUNTDOWN OF BR
  5978	      	      	50560	*
  5979	      	000401	50570	X	E	-(DUALBASE)*401-(#DUALBASE)*301
  5980	      	000421	50580	Y	E	-(DUALBASE)*421-(#DUALBASE)*313
PAGE 01  BSYM.VCD  06-APR-73  09:34:55.733

  5981	      	      	50590	*
  5982	14436	100401	50600	IOTAB0	+X+.; +Y+.
  5983	14437	100421	
  5984	      	000056	50610		RPT1	20*NGRPS0-2
  5985	14440	177777	50620		-1
  5986	14441	177777	
  5987	14442	177777	
  5988	14443	177777	
  5989	14444	177777	
  5990	14445	177777	
  5991	14446	177777	
  5992	14447	177777	
  5993	14450	177777	
  5994	14451	177777	
  5995	14452	177777	
  5996	14453	177777	
  5997	14454	177777	
  5998	14455	177777	
  5999	14456	177777	
  6000	14457	177777	
  6001	14460	177777	
  6002	14461	177777	
  6003	14462	177777	
  6004	14463	177777	
  6005	14464	177777	
  6006	14465	177777	
  6007	14466	177777	
  6008	14467	177777	
  6009	14470	177777	
  6010	14471	177777	
  6011	14472	177777	
  6012	14473	177777	
  6013	14474	177777	
  6014	14475	177777	
  6015	14476	177777	
  6016	14477	177777	
  6017	14500	177777	
  6018	14501	177777	
  6019	14502	177777	
  6020	14503	177777	
  6021	14504	177777	
  6022	14505	177777	
  6023	14506	177777	
  6024	14507	177777	
  6025	14510	177777	
  6026	14511	177777	
  6027	14512	177777	
  6028	14513	177777	
  6029	14514	177777	
  6030	14515	177777	
  6031	      	      	50630	*
  6032	14516	100403	50650		+X+2+.; +Y+2+.
  6033	14517	100423	
  6034	      	000056	50660		RPT1	20*NGRPS1-2
PAGE 01  BSYM.VCD  06-APR-73  09:34:56.516

  6035	14520	177777	50670		-1
  6036	14521	177777	
  6037	14522	177777	
  6038	14523	177777	
  6039	14524	177777	
  6040	14525	177777	
  6041	14526	177777	
  6042	14527	177777	
  6043	14530	177777	
  6044	14531	177777	
  6045	14532	177777	
  6046	14533	177777	
  6047	14534	177777	
  6048	14535	177777	
  6049	14536	177777	
  6050	14537	177777	
  6051	14540	177777	
  6052	14541	177777	
  6053	14542	177777	
  6054	14543	177777	
  6055	14544	177777	
  6056	14545	177777	
  6057	14546	177777	
  6058	14547	177777	
  6059	14550	177777	
  6060	14551	177777	
  6061	14552	177777	
  6062	14553	177777	
  6063	14554	177777	
  6064	14555	177777	
  6065	14556	177777	
  6066	14557	177777	
  6067	14560	177777	
  6068	14561	177777	
  6069	14562	177777	
  6070	14563	177777	
  6071	14564	177777	
  6072	14565	177777	
  6073	14566	177777	
  6074	14567	177777	
  6075	14570	177777	
  6076	14571	177777	
  6077	14572	177777	
  6078	14573	177777	
  6079	14574	177777	
  6080	14575	177777	
  6081	      	      	50690	*
  6082	14576	100405	50710		+X+4+.; +Y+4+.
  6083	14577	100425	
  6084	      	000056	50720		RPT1	20*NGRPS2-2
  6085	14600	177777	50730		-1
  6086	14601	177777	
  6087	14602	177777	
  6088	14603	177777	
PAGE 01  BSYM.VCD  06-APR-73  09:34:57.166

  6089	14604	177777	
  6090	14605	177777	
  6091	14606	177777	
  6092	14607	177777	
  6093	14610	177777	
  6094	14611	177777	
  6095	14612	177777	
  6096	14613	177777	
  6097	14614	177777	
  6098	14615	177777	
  6099	14616	177777	
  6100	14617	177777	
  6101	14620	177777	
  6102	14621	177777	
  6103	14622	177777	
  6104	14623	177777	
  6105	14624	177777	
  6106	14625	177777	
  6107	14626	177777	
  6108	14627	177777	
  6109	14630	177777	
  6110	14631	177777	
  6111	14632	177777	
  6112	14633	177777	
  6113	14634	177777	
  6114	14635	177777	
  6115	14636	177777	
  6116	14637	177777	
  6117	14640	177777	
  6118	14641	177777	
  6119	14642	177777	
  6120	14643	177777	
  6121	14644	177777	
  6122	14645	177777	
  6123	14646	177777	
  6124	14647	177777	
  6125	14650	177777	
  6126	14651	177777	
  6127	14652	177777	
  6128	14653	177777	
  6129	14654	177777	
  6130	14655	177777	
  6131	      	      	50750	*
  6132	14656	100407	50770		+X+6+.; +Y+6+.
  6133	14657	100427	
  6134	      	000056	50780		RPT1	20*NGRPS3-2
  6135	14660	177777	50790		-1
  6136	14661	177777	
  6137	14662	177777	
  6138	14663	177777	
  6139	14664	177777	
  6140	14665	177777	
  6141	14666	177777	
  6142	14667	177777	
PAGE 01  BSYM.VCD  06-APR-73  09:34:57.433

  6143	14670	177777	
  6144	14671	177777	
  6145	14672	177777	
  6146	14673	177777	
  6147	14674	177777	
  6148	14675	177777	
  6149	14676	177777	
  6150	14677	177777	
  6151	14700	177777	
  6152	14701	177777	
  6153	14702	177777	
  6154	14703	177777	
  6155	14704	177777	
  6156	14705	177777	
  6157	14706	177777	
  6158	14707	177777	
  6159	14710	177777	
  6160	14711	177777	
  6161	14712	177777	
  6162	14713	177777	
  6163	14714	177777	
  6164	14715	177777	
  6165	14716	177777	
  6166	14717	177777	
  6167	14720	177777	
  6168	14721	177777	
  6169	14722	177777	
  6170	14723	177777	
  6171	14724	177777	
  6172	14725	177777	
  6173	14726	177777	
  6174	14727	177777	
  6175	14730	177777	
  6176	14731	177777	
  6177	14732	177777	
  6178	14733	177777	
  6179	14734	177777	
  6180	14735	177777	
  6181	      	      	50810	*
  6182	14736	100411	50830		+X+10+.; +Y+10+.
  6183	14737	100431	
  6184	      	000056	50840		RPT1	20*NGRPS4-2
  6185	14740	177777	50850		-1
  6186	14741	177777	
  6187	14742	177777	
  6188	14743	177777	
  6189	14744	177777	
  6190	14745	177777	
  6191	14746	177777	
  6192	14747	177777	
  6193	14750	177777	
  6194	14751	177777	
  6195	14752	177777	
  6196	14753	177777	
PAGE 01  BSYM.VCD  06-APR-73  09:34:57.733

  6197	14754	177777	
  6198	14755	177777	
  6199	14756	177777	
  6200	14757	177777	
  6201	14760	177777	
  6202	14761	177777	
  6203	14762	177777	
  6204	14763	177777	
  6205	14764	177777	
  6206	14765	177777	
  6207	14766	177777	
  6208	14767	177777	
  6209	14770	177777	
  6210	14771	177777	
  6211	14772	177777	
  6212	14773	177777	
  6213	14774	177777	
  6214	14775	177777	
  6215	14776	177777	
  6216	14777	177777	
  6217	15000	177777	
  6218	15001	177777	
  6219	15002	177777	
  6220	15003	177777	
  6221	15004	177777	
  6222	15005	177777	
  6223	15006	177777	
  6224	15007	177777	
  6225	15010	177777	
  6226	15011	177777	
  6227	15012	177777	
  6228	15013	177777	
  6229	15014	177777	
  6230	15015	177777	
  6231	      	      	50870	*
  6232	      	      	50930	*
  6233	      	      	50990	*
  6234	      	      	51050	*
  6235	      	      	51060	* INTERNAL TABLE FOR INTERNAL CIRCUITS
  6236	      	000020	51070	IOTABI	RPT1	20
  6237	15016	177777	51080		-1
  6238	15017	177777	
  6239	15020	177777	
  6240	15021	177777	
  6241	15022	177777	
  6242	15023	177777	
  6243	15024	177777	
  6244	15025	177777	
  6245	15026	177777	
  6246	15027	177777	
  6247	15030	177777	
  6248	15031	177777	
  6249	15032	177777	
  6250	15033	177777	
PAGE 01  BSYM.VCD  06-APR-73  09:34:58.250

  6251	15034	177777	
  6252	15035	177777	
  6253	      	015036	51090	BR	E	*
  6254	      	      	51100	* THE FOLLOWING IS A DUMMY STATEMENT TO CAUSE
  6255	      	      	51110	* THE ASSEMBLER TO ISSUE A MULTIPLY DEFINED CELL
  6256	      	      	51120	* DIAGNOSTIC IF NOT ENOUGH ROOM HAS BEEN RESERVED FOR
  6257	      	      	51130	* THE BUFFER RESTRICTION COUNTS BETWEEN BR AND OSEC
  6258	15036	      	51140		R	*+(ENDCODE-BR)-(BR-IOTAB0)+20
  6259	      	000314	51150	SLACK	E	*-BR	ROOM LEFT IN THIS ASSEMBLY


INDIRECT POOL
  6260	00030	052156	
  6261	00031	056671	
  6262	00032	056625	
  6263	00033	100000	
  6264	00034	053521	
  6265	00035	034546	
  6266	00036	033400	
  6267	00037	056631	
  6268	00040	030400	
  6269	00041	132142	
  6270	00042	053441	
  6271	00043	034552	
  6272	00044	034553	
  6273	00045	051546	
  6274	00046	034550	
  6275	00047	034551	
  6276	00050	056621	
  6277	00051	032400	

LITERAL POOL
  6278	01067	001047	
  6279	01070	020000	
  6280	01071	005253	
  6281	01072	000041	
  6282	01073	000003	
  6283	01074	000040	
  6284	01075	010000	
  6285	01076	000037	
  6286	01077	100000	
  6287	01100	040000	
  6288	01101	000377	
  6289	01102	001057	
  6290	01103	004540	
  6291	01104	000007	
  6292	01105	004000	
  6293	01106	074000	
  6294	01107	000004	
  6295	01110	140000	
  6296	01111	001007	
  6297	01112	001017	
  6298	01113	001702	
  6299	01114	000740	
PAGE 01  BSYM.VCD  06-APR-73  09:35:02.966

  6300	01115	001341	
  6301	01116	000051	
  6302	01117	000777	
  6303	01120	000463	
  6304	01121	000017	
  6305	01122	000005	
  6306	01123	000076	
  6307	01124	000002	
  6308	01125	000000	
  6309	01126	000012	
  6310	01127	000001	
  6311	01130	000220	
  6312	01131	000400	
  6313	01132	015036	
  6314	01133	000100	
  6315	01134	000006	
  6316	01135	000064	
  6317	01136	000066	
  6318	01137	177400	
  6319	01140	000010	
  6320	01141	001700	
  6321	01142	177777	
  6322	01143	177776	
  6323	01144	000737	
  6324	01145	000200	
  6325	01146	002000	
  6326	01147	000077	
  6327	01150	001644	
  6328	01151	000020	
  6329	01152	177401	
  6330	01153	000060	
  6331	01154	000244	
  6332	01155	177740	
  6333	01156	000211	
  6334	01157	000030	
  6335	01160	055500	
  6336	01161	000776	
  6337	01162	000763	
  6338	01163	000765	
  6339	01164	007777	
  6340	01165	000412	
  6341	01166	001776	
  6342	01167	001777	
  6343	01170	000011	
  6344	01171	100001	
  6345	01172	030000	
  6346	01173	000102	
  6347	01174	050000	
  6348	01175	060000	
  6349	01176	070000	
  6350	01177	177774	
  6351	01200	000644	
  6352	01201	001000	
  6353	01202	001130	
PAGE 01  BSYM.VCD  06-APR-73  09:35:03.100

  6354	01203	000215	
  6355	01204	030400	
  6356	01205	100003	
  6357	01206	015035	
  6358	01207	000742	
  6359	01210	015016	
  6360	01211	100002	
  6361	01212	000176	
  6362	01213	000376	
  6363	01214	000161	
  6364	01215	000171	
  6365	01216	177770	
  6366	01217	000210	
  6367	01220	100010	
  6368	01221	100004	
  6369	01222	100005	
  6370	01223	000050	
  6371	01224	000144	
  6372	01225	100007	
  6373	01226	100006	
  6374	01227	003777	
  6375	01230	100011	
  6376	01231	000213	
  6377	01232	000212	
  6378	01233	177775	
  6379	01234	000177	
  6380	01235	050200	
  6381	01236	113064	
  6382	01237	000370	
  6383	01240	000055	
  6384	01241	000074	
  6385	01242	000021	
  6386	01243	100214	
  6387	01244	000216	
  6388	01245	050001	
  6389	01246	000454	
  6390	01247	114104	

SYMBOL CROSS REFERENCE

ABZERO	    43#	  3187	  3261	  3274	  3918	  4609	  4616	  4644	  4651
ACTPRT	   279#	  2093	  3638	  3652	  3653	  4240	  4249	  4291	  4327	  4778	  5030	  5032	  5420
ASDW	   263#	   474	   484	   494	   504	   514	   524	   534	   544	   815	   837	   860	   919	   924
	   933	   948	   964
AXZERO	    44#	  3211	  4627	  4662	  5267	  5848
BAUD12	    38#
BAUD48	    39#
BAUD96	    40#
BC	  2020#	  2021	  2063	  2289	  2294	  2314	  2324	  2480	  2483	  2752	  2779	  2786	  2800	  2813
	  2817	  2839	  2865	  2880	  2891	  2917	  2974	  2985	  2989	  2998	  3009	  3026	  3060	  3092
	  3142	  3143	  3144	  3145	  3146	  3147	  3148	  3149	  3432	  3510	  3517	  3532	  3964	  4032
	  4084	  4100	  4116	  4138	  4183	  4267	  4318	  4507	  4914	  5554
BF	  2021#
BID	  2435	  3350	  3952	  4020	  4155	  4742#	  4744	  4750	  4782	  5424
BITADD	  2307	  2315	  2787	  3518	  3524	  3627	  4920	  5026	  5114	  5123	  5171#	  5177	  5560	  5703
	  5712
BORI	   172#	   863
BORO	   171#	  2571
BP	  2019#	  2780	  2782	  2820	  2821	  2867	  2869	  2915	  2916	  2936	  2959	  2961	  2972	  2973
	  3025	  3052	  3054
BR	  2095	  2096	  2299	  2302	  2305	  2463	  2475	  2528	  2530	  3127	  4461	  6253#	  6258	  6259
BUFADD	   309#	  1026	  1028	  1029	  1030	  1031	  1032	  1033	  1034	  1035	  1036	  1037	  1038	  1039
	  1040	  1041	  1042	  1043	  1044	  1045	  1046	  1047	  1048	  1049	  1050	  1051	  1052	  1053
	  1054	  1055	  1056	  1057	  1058	  1059	  1060	  1061	  1062	  1063	  1064	  1065	  1066	  1067
	  1068	  1069	  1070	  1071	  1072	  1073	  1074	  1075	  1076	  1077	  1078	  1079	  1080	  1081
	  1082	  1083	  1084	  1085	  1086	  1087	  1088	  1089	  1090	  1091	  1092	  1093	  1094	  1095
	  1096	  1097	  1098	  1099	  1100	  1101	  1102	  1103	  1104	  1105	  1106	  1107	  1108	  1109
	  1110	  1111	  1112	  1113	  1114	  1115	  1116	  1117	  1118	  1119	  1120	  1121	  1122	  1123
	  1124	  1125	  1126	  1127	  1128	  1129	  1130	  1131	  1132	  1133	  1134	  1135	  1136	  1137
	  1138	  1139	  1140	  1141	  1142	  1143	  1144	  1145	  1146	  1147	  1148	  1149	  1150	  1151
	  1152	  1153	  1154	  1155	  1156	  1157	  1158	  1159	  1160	  1161	  1162	  1163	  1164	  1165
	  1166	  1167	  1168	  1169	  1170	  1171	  1172	  1173	  1174	  1175	  1176	  1177	  1178	  1179
	  1180	  1181	  1182	  1183	  1184	  1185	  1186	  1187	  1188	  1189	  1190	  1191	  1192	  1193
	  1194	  1195	  1196	  1197	  1198	  1199	  1200	  1201	  1202	  1203	  1204	  1205	  1206	  1207
	  1208	  1209	  1210	  1211	  1212	  1213	  1214	  1215	  1216	  1217	  1218	  1219	  1220	  1221
	  1222	  1223	  1224	  1225	  1226	  1227	  1228	  1229	  1230	  1231	  1232	  1233	  1234	  1235
	  1236	  1237	  1238	  1239	  1240	  1241	  1242	  1243	  1244	  1245	  1246	  1247	  1248	  1249
	  1250	  1251	  1252	  1253	  1254	  1255	  1256	  1257	  1258	  1259	  1260	  1261	  1262	  1263
	  1264	  1265	  1266	  1267	  1268	  1269	  1270	  1271	  1272	  1273	  1274	  1275	  1276	  1277
	  1278	  1279	  1280	  1281	  1282	  1283	  1284	  1285	  1286	  1287	  1288	  1289	  1290	  1291
	  1292	  1293	  1294	  1295	  1296	  1297	  1298	  1299	  1300	  1301	  1302	  1303	  1304	  1305
	  1306	  1307	  1308	  1309	  1310	  1311	  1312	  1313	  1314	  1315	  1316	  1317	  1318	  1319
	  1320	  1321	  1322	  1323	  1324	  1325	  1326	  1327	  1328	  1329	  1330	  1331	  1332	  1333
	  1334	  1335	  1336	  1337	  1338	  1339	  1340	  1341	  1342	  1343	  1344	  1345	  1346	  1347
	  1348	  1349	  1350	  1351	  1352	  1353	  1354	  1355	  1356	  1357	  1358	  1359	  1360	  1361
	  1362	  1363	  1364	  1365	  1366	  1367	  1368	  1369	  1370	  1371	  1372	  1373	  1374	  1375
	  1376	  1377	  1378	  1379	  1380	  1381	  1382	  1383	  1384	  1385	  1386	  1387	  1388	  1389
	  1390	  1391	  1392	  1393	  1394	  1395	  1396	  1397	  1398	  1399	  1400	  1401	  1402	  1403
	  1404	  1405	  1406	  1407	  1408	  1409	  1410	  1411	  1412	  1413	  1414	  1415	  1416	  1417
	  1418	  1419	  1420	  1421	  1422	  1423	  1424	  1425	  1426	  1427	  1428	  1429	  1430	  1431
	  1432	  1433	  1434	  1435	  1436	  1437	  1438	  1439	  1440	  1441	  1442	  1443	  1444	  1445
	  1446	  1447	  1448	  1449	  1450	  1451	  1452	  1453	  1454	  1455	  1456	  1457	  1458	  1459
	  1460	  1461	  1462	  1463	  1464	  1465	  1466	  1467	  1468	  1469	  1470	  1471	  1472	  1473
	  1474	  1475	  1476	  1477	  1478	  1479	  1480	  1481	  1482	  1483	  1484	  1485	  1486	  1487
SYMBOL CROSS REFERENCE

	  1488	  1489	  1490	  1491	  1492	  1493	  1494	  1495	  1496	  1497	  1498	  1499	  1500	  1501	  1502
	  1503	  1504	  1505	  1506	  1507
BUFEND	   310#	  1508
BUFERS	  1027#	  2063	  2190	  2258	  2339	  2455	  2730	  2751	  2757	  2807	  2859	  2922	  2971	  2984
	  2993	  3090	  3142	  3143	  3144	  3145	  3146	  3147	  3148	  3149	  3159	  3336	  3354	  3395
	  3444	  3490	  3501	  3571	  3644	  3962	  4005	  4030	  4081	  4096	  4127	  4138	  4166	  4170
	  4215	  4265	  4316	  4353	  4486	  4495	  4503	  4790	  4904	  4980	  5004	  5012	  5035	  5045
	  5068	  5432	  5544	  5620	  5630	  5657
BUMPTH	   561	   756#
CAOS	   258#	   850	   978	  2393	  2399	  2554	  2559	  2574	  2575
CARD20	    24#
CDIS	   260#	   846	  2143	  2211	  2212
CFOB	   251#	  2295	  2429	  2663	  2747	  3505	  4151
CHECK9	  4341	  4351	  4368#	  4380	  4382
CIS	   261#	   897	   901	   972
CK92	  4402	  4404
CK9B	  4370	  4378#
CK9B2	  4392
CLENDN	   771	  1011#
CLENIN	   591	   760#	  1008
CLENRT	   573	  1017#
CLNLOK	   375#	   563	   571	  1015	  2080
CLNOUT	   580#	   643	   653	   667	   707	   727	   739
CMSK	   217#	  2191	  2215	  2340	  2439	  2454	  2542	  2731	  2845	  3089	  3164	  3479	  3488	  3954
	  3978	  4022	  4046	  4080	  4139	  4167	  4171	  4189	  4251	  4301	  4485	  4496	  4504	  5031
	  5099	  5688
CNA	   378#	   577	  1011
CNB	   379#	   578	  1012
CNX	   380#	   579	  1013
COMS	    30#
COS	   259#	   670	   687	   749	   849	  2394
CR940	  3223	  3238	  3249	  3296	  3300	  3303	  3928	  4874	  4890	  4964	  4974	  5130	  5153	  5161#
	  5163	  5169	  5250	  5347	  5385
CR940A	  2045	  5145#	  5159	  5165
CR941	  5516	  5530	  5604	  5614	  5719	  5742	  5750#	  5752	  5758	  5831	  5927	  5965
CR941A	  2040	  5734#	  5748	  5754
CRASH	    49	    60	  2033	  2175	  2803	  2853
CRCOPY	  2052#	  2060
CRSAVE	   191#	  2034	  2036
CRSHCT	   113#	  2029	  2030
DAV1	  4759#	  4815	  4829
DAV3	  4764	  4776#	  4858
DAV4	  4801#	  4818	  4825	  4831	  4853
DAV4A	  4812#	  4941
DAV5	  4797	  4817#
DAV5A	  4820	  4834#
DAV6	  4780	  4856#
DAV7	  4861#	  4916	  4925	  5021	  5073	  5110	  5119	  5127
DAVT	  4879	  5135#
DAVT1	  4880	  4897#	  5136
DAVT10	  5122#	  5143
DAVT1A	  4906#	  4985	  5016	  5054	  5058
DAVT1B	  4900	  4943#
DAVT1C	  4944	  5010#
SYMBOL CROSS REFERENCE

DAVT1D	  4946	  5019#
DAVT1S	  4908	  5053#
DAVT2	  5080#	  5137
DAVT5	  5086#	  5140
DAVT6	  5090#	  5141
DAVT6A	  5087	  5103#
DAVT7	  5113#	  5142
DAVTEL	  2121	  4757#	  4760	  4769	  4772	  4848	  4868	  4876	  4892	  4958	  4966	  4976	  5083	  5132
DAVTNG	  5130#	  5135	  5138	  5139
DAVTS1	  5067#	  5077
DAVTS2	  5065	  5075#
DELAY	  5221	  5239	  5274	  5312#	  5315	  5802	  5820	  5855
DLOCK	   111#	  3552	  3556
DOWN9	  4374	  4708#	  4719	  4737	  4740	  5167
DOWN91	  4396	  4677#	  4689	  4703	  5756
DOWN9A	  4727	  4739#
DOWN9B	  4713	  4721#
DRIS	    33#
DSWICH	   112#	  3388
DUALBA	    36#	    41	    92	   117	   133	   141	   150	   159	   167	   192	   249	   278	   280	   307
	   308	   310	   317	   325	   336	   344	   352	   360	   368	   401	   449	   513	   587	   602
	   767	   782	  1024	  1711	  1778	  1790	  1798	  1799	  1814	  2037	  2076	  2121	  3147	  3150
	  3346	  3553	  3594	  3725	  3727	  3941	  4069	  4222	  4336	  4372	  4385	  4414	  4422	  4435
	  4546	  4640	  4709	  4857	  5186	  5221	  5239	  5274	  5311	  5394	  5979	  5980
DV1	  5401#	  5457	  5471
DV3	  5406	  5418#	  5500
DV4	  5443#	  5460	  5467	  5473	  5495
DV4A	  5454#	  5581
DV5	  5439	  5459#
DV5A	  5462	  5476#
DV6	  5422	  5498#
DV7	  5503#	  5556	  5565	  5639	  5662	  5699	  5708	  5716
DVT	  5521	  5724#
DVT1	  5522	  5537#	  5725
DVT10	  5711#	  5732
DVT1A	  5546#	  5625	  5634	  5643	  5647
DVT1B	  5540	  5583#
DVT1C	  5584	  5628#
DVT1D	  5586	  5637#
DVT1S	  5548	  5642#
DVT2	  5669#	  5726
DVT5	  5675#	  5729
DVT6	  5679#	  5730
DVT6A	  5676	  5692#
DVT7	  5702#	  5731
DVTEL	  2125	  5399#	  5402	  5411	  5414	  5490	  5510	  5518	  5532	  5598	  5606	  5616	  5672	  5721
DVTNG	  5719#	  5724	  5727	  5728
DVTS1	  5656#	  5666
DVTS2	  5654	  5664#
DWN9B1	  4685	  4691#
EBCD27	    25#
EMPTY	  2323#	  2325	  2329	  2735	  2794	  3338	  4488
EN	  2107#	  2114
ENDCOD	   311#	  6258
SYMBOL CROSS REFERENCE

EXEC	  2120#	  2131
FLAG	   245#	  2087	  2295	  2747	  2789	  2790	  2844	  2846	  2887	  2889	  3505	  3521	  3522	  3526
	  3527
FULL	   381#	  5372
FULL1	   407#	  5952
GCI	  2327	  2505	  2612	  2805#	  2829	  2833	  3004	  3110	  3359	  3363	  4173	  4199	  4792	  4834
	  5434	  5476
GCI1	  2820#	  2848
GCI2	  2825	  2831#
GCI3	  2818	  2835#
GENBUF	   248#	  3345
GROUPI	   162#	  2444	  2661	  3100	  3504	  4462
GROUPN	   154#	  2659	  3101
HLTG	  2803#	  2808	  2811	  2814
HLTW	  2853#	  2863
HLTWT	  2850#	  2860
HOST0	   115#
HOST0N	     3#	   115
HOST1	   117#
HOST1N	     4#	   117
HSEC2	  3975	  4002	  4035	  4063	  4067
HSEC2A	  4018	  4065#
ICNT1	   401#	  3681	  3712	  3720	  4037	  4042	  4051	  4297	  5405	  5413	  5444	  5494	  5573	  5969
	  5971
ICOUNT	   398#	  3610	  3618	  3668	  3969	  3974	  3983	  4245	  4763	  4771	  4802	  4852	  4933	  5389
	  5391
IIN	   249#	  4261	  4311	  4777	  5419
IN	  3236	  3742	  3782	  3876	  3892	  3902	  4635	  5150	  5154	  5157	  5305#	  5309	  5330	  5337
IN0	    78	   332	   340	   348	   364	   473#	   477	   481	   761
IN1	    82	   333	   341	   349	   365	   483#	   487	   491	   764	   774
IN2	    86	   334	   342	   350	   366	   493#	   497	   501	   765	   778
IN3	    90	   335	   343	   351	   367	   503#	   507	   511	   766	   782
IN4	    94	   336	   344	   352	   368	   513#	   517	   521	   767	   786
IN5	    98	   337	   345	   353	   369	   523#	   527	   531	   768	   790
IN6	   102	   338	   346	   354	   370	   533#	   537	   541	   769	   794
IN7	   106	   339	   347	   355	   371	   543#	   547	   551	   770
IN91	  5298#	  5306
IN940	  3674	  3991	  4812	  4846	  5322#	  5339	  5349	  5353
IN940A	  5333	  5341#
IN941A	  5913	  5921#
INA	   377#	   558	   566	   575
INAD	   348#	  1006
INDATA	   275#	  2221	  4522	  4526	  4533
INIT	  2043
INN	  3744	  4670	  5739	  5743	  5746	  5889#	  5893	  5910	  5917
INN91	  5882#	  5890
INN941	  3687	  4059	  5454	  5488	  5899#	  5919	  5929	  5933
INNORM	   340#	   999
INT	  4125	  4146
INT1	  4151#	  4185	  4191	  4216
INT2	  4181#	  4207	  4220
INT3	  4177	  4193#
INT4	  4197
INT5	  4195	  4213#
SYMBOL CROSS REFERENCE

INTT	   364#	   799
INZD	   332#	   997	   999	  1003	  1006
IOTA	   136#	  2094	  2186	  2449	  3087	  3096	  3475	  4078	  4089	  4459	  4475	  4483
IOTAB0	   136	  2095	  2096	  2299	  2305	  2463	  2475	  2528	  2530	  3127	  4461	  5982#	  6258
IOTAB1	   137	  6032#
IOTAB2	   138	  6082#
IOTAB3	   139	  6132#
IOTAB4	   140	  6182#
IOTAB5	   141	  6232#
IOTAB6	   142	  6233#
IOTAB7	   143	  6234#
IOTABI	   144	  4136	  4145	  4159	  4163	  6236#
IOTABS	   145#	  2713	  3098	  3468	  4091	  4478
IRA	   277#	   904	   946	   947
IRC	   271#	   875	   914	   918	   941	   945	   956
IRING	   399#	  3666	  3667	  3981	  3982	  4247	  4800	  4801	  4839	  4850	  4851	  4931	  4932	  5359
IRING1	   402#	  3679	  3680	  4049	  4050	  4298	  5442	  5443	  5481	  5492	  5493	  5571	  5572	  5939
ISEC	   321#	   899	  2152
ISECAD	   308#	   309	   321	   322	   323	   324	   325	   326	   327	   328
ISF	   257#	   845	   889	   973	   975	  2146	  2218	  2220
K1	   418#	  4626	  4661
K2	   419#	  4623	  4658
K3	   420#	  4619	  4654
KEEY	  4278	  4390	  4640#	  4667	  4673
KEEY1	  4644	  4651	  4665#
KEEY2	  4662
KEY	  4227	  4368	  4605#	  4632	  4638
KEY1	  4609	  4616
KEY2	  4627	  4634#
KL1	  4991	  4998#	  5007
KLUDGE	  4885	  4988#	  4999
LEP	  3083	  3377	  3381	  3399	  3407	  3440	  3453	  3538	  3557	  3561	  3574	  3591	  3616	  3619
	  3649	  3677	  3690	  3718	  3721	  3765	  3776	  3784	  3794	  3827	  3930
LEP0	  3416	  3425#
LEP1	  3417	  3443#
LEP2	  3418	  3457#
LEP2A	  3514	  3531#
LEP2B	  3467#	  3544
LEP2C	  3461	  3540#
LEP2D	  3485
LEP3	  3419	  3549#
LEP4	  3420	  3577#
LEP5	  3421	  3594#
LEP51	  3603	  3607#
LEP52	  3604	  3709#
LEP5A1	  3637#	  3693
LEP5B1	  3635	  3692#
LEP5C1	  3639	  3707
LEP5C2	  3664	  3666#
LEP5C3	  3665
LEP5CT	  3660	  3664#
LEP5D1	  3713	  3723
LEP5T	  3599	  3603#
LEP6	  3422	  3726#
SYMBOL CROSS REFERENCE

LEP61	  3754	  3761#
LEP62	  3755	  3767#
LEP63	  3732	  3738	  3756	  3778#
LEP64	  3734	  3757	  3786#
LEP64A	  3792	  3796#	  3806
LEP64B	  3808#	  3818
LEP6A	  3729	  3740
LEP6B	  3735
LEP6HD	  3770	  3809
LEP6LD	  3762	  3779	  3791	  3801	  3820#
LEP6MD	  3764	  3772	  3774	  3775	  3780	  3790	  3797	  3810	  3821#
LEP6T1	  3731	  3733	  3737	  3739
LEP6TB	  3749	  3753#
LEP7	  3605	  3606	  3824#
LEPA	  3175	  3179#	  3269
LEPA1	  3211
LEPB	  3176	  3178
LEPC	  3177
LEPD	  3157	  3167	  3187	  3276	  3283	  3288	  3293
LEPD1	  3174	  3286#
LEPD1A	  3334
LEPD2	  3312	  3320#
LEPD2A	  3331	  3345#
LEPDIS	  3386	  3410#
LEPE	  3240
LEPRET	  3389	  3392	  3423	  3465	  3469	  3481	  3546	  3567	  3608	  3624	  3698	  3710	  3753	  3758
	  3759	  3760
LEPS	  3550	  3563#
LEPSD	  3878	  3894	  3904
LEPSEN	  3318	  3328	  3405	  3426	  3438	  3536	  3582	  3589	  3804	  3816	  3825	  3830#	  3832	  3839
	  4134	  4257	  4307	  4433	  4455	  4517	  4573	  4594	  4701	  4735	  5048	  5071	  5108	  5660
	  5697
LEPSN	  3379	  3397	  3837	  3842#	  3860	  3865	  3909	  3926
LEPSNA	  3844	  3862#
LEPSTB	  3170	  3174#
LEPTAB	  3412	  3416#
LINER	   192#	   969	  4548	  4549
LINSAT	   274#	  4120	  4531	  4553	  4554
LOOK	  3184	  3195	  3201	  3258	  3272	  3291	  3743	  3788	  3915	  4417	  4607	  4614	  5193	  5198#
	  5202	  5365	  5375
LOOK1	  5182#	  5199
LOOK2	  5187	  5189	  5191	  5195#
LOOOK	  3745	  4439	  4642	  4649	  5774	  5779#	  5783	  5945	  5955
LOOOK1	  5763#	  5780
LOOOK2	  5768	  5770	  5772	  5776#
LRESET	   254#	   847	  4466	  4470
LRR	   262#	   698	   844	   877	  2171
MACH	   128#	   838
MACH12	    29#
MACHNO	    54	   109#	   657	  3286	  3314	  3385	  3834	  4339	  4583	  4827	  4989	  5469
MACHNU	     1#	   109
MARKXV	    26#
MASK	   201#	   675	   689	   890	   974	  2055	  2112	  2147	  2250	  2338	  2403	  2453	  2578	  2623
	  2888	  3500	  3637	  3651	  3728	  3799	  3813	  4093	  4162	  4464	  4494	  4696	  4730	  4929
SYMBOL CROSS REFERENCE

	  5095	  5176	  5302	  5569	  5684	  5886
MAXLIN	    41#	   119	   172	   181	   192	   249	   254	   255	   256	   257	   258	   259	   260	   261
	   262	   263	   264	   265	   266	   267	   268	   269	   270	   271	   272	   273	   274	   275
	   276	   277	   278	   280	   308	   309	  1825	  3540
MGHS	    31#
MICER2	   406#	  5850
MICERR	   416#	  2079	  2080	  5269
MICRJ2	   405#	  5830	  5926
MICRJC	   415#	  5249	  5346
MR	  3213	  3214	  3216	  3218	  3220	  3222	  3242#
N940L	   114#	  3323	  3433
NBUF	  1024#	  1027	  1513	  1825	  2020	  2021	  2063	  2064	  2292	  2751	  2757	  2764	  2784	  2797
	  2810	  2837	  2862	  2878	  2971	  2993	  3333	  3336	  3480	  3512	  3529
NDASW	   264#	   426	   432	   438	   444	   450	   456	   462	   468	   642	   652	   658	   699	   720
	   725	   731	   736
NEIGH0	     7#	   128
NEIGH1	     8#	   129
NEIGH2	     9#	   130
NEIGH3	    10#	   131
NEIGH4	    11#	   132
NEIGH5	    12#	   133
NEIGH6	    13#	   134
NEIGH7	    14#	   135
NGRPS0	    15#	   145	   154	   163	   164	   165	   166	   167	   168	   169	  1782	  1784	  1786	  1788
	  1790	  1792	  1794	  1803	  1806	  1809	  1812	  1815	  1818	  1821	  5984
NGRPS1	    16#	   146	   155	   164	   165	   166	   167	   168	   169	  1784	  1786	  1788	  1790	  1792
	  1794	  1806	  1809	  1812	  1815	  1818	  1821	  6034
NGRPS2	    17#	   147	   156	   165	   166	   167	   168	   169	  1786	  1788	  1790	  1792	  1794	  1809
	  1812	  1815	  1818	  1821	  6084
NGRPS3	    18#	   148	   157	   166	   167	   168	   169	  1788	  1790	  1792	  1794	  1812	  1815	  1818
	  1821	  6134
NGRPS4	    19#	   149	   158	   167	   168	   169	  1790	  1792	  1794	  1815	  1818	  1821	  6184
NGRPS5	    20#	   150	   159	   168	   169	  1792	  1794	  1818	  1821
NGRPS6	    21#	   151	   160	   169	  1794	  1821
NGRPS7	    22#	   152	   161
NLINES	     2#	   114	  1782	  1783	  1784	  1785	  1786	  1787	  1788	  1789	  1790	  1791	  1792	  1793
	  1794	  1795	  1803	  1804	  1806	  1807	  1809	  1810	  1812	  1813	  1815	  1816	  1818	  1819
	  1821	  1822	  2106	  2135	  2374	  3080	  3391	  3395	  3460	  3540	  4071	  4457	  4543	  6032
	  6082	  6132	  6182	  6232	  6233	  6234
NLMS	    37#
NRA	   385#
NRM	   384#
NRSW	   386#
NRW	   382#
NRW1	   383#
NUMGRP	     5#	   170	   251	   252	   253	  4148	  4150	  4151	  4152	  4187	  4190
NUMHOS	     6#	   114
ONLY16	    27#
ORA	   276#	   696	   717	   718
ORC	   272#	   636	   640	   666	   681	   704	   710	   714	   856
ORING	   400#	  4248	  4861	  4862	  4951	  4952	  5080	  5082
ORING1	   403#	  4299	  5503	  5504	  5591	  5592	  5669	  5671
OSEC	   313#	   693	  2411	  2557
OSECAD	   307#	   308	   311	   313	   314	   315	   316	   317	   318	   319	   320
SYMBOL CROSS REFERENCE

OSF	   256#	   673	   688	   690	   744	   848	   993	   995	  2402	  2581	  2583
OSUS	    32#
OT5	  5237	  5241	  5254#
OT6	  5267	  5272#
OT7	  5272	  5276	  5280#
OUT	  4866	  4956	  5235	  5247	  5252	  5286#
OUT0	    76	   356	   425#	   429	   581
OUT1	    80	   357	   431#	   435	   584	   594
OUT2	    84	   358	   437#	   441	   585	   598
OUT3	    88	   359	   443#	   447	   586	   602
OUT4	    92	   360	   449#	   453	   587	   606
OUT5	    96	   361	   455#	   459	   588	   610
OUT6	   100	   362	   461#	   465	   589	   614
OUT7	   104	   363	   467#	   471	   590
OUT91	  5213#	  5289
OUT92	  5219	  5223	  5227#
OUT93	  5225	  5243#	  5291
OUT94	  5250#	  5270	  5278
OUTN	  5262	  5293#
OUTP	  5282	  5294#
OUTT	   356#	   620
OUUT	  5508	  5596	  5816	  5828	  5833	  5870#
OUUT5	  5818	  5822	  5835#
OUUT6	  5848	  5853#
OUUT7	  5853	  5857	  5861#
OUUT91	  5794#	  5873
OUUT92	  5800	  5804	  5808#
OUUT93	  5806	  5824#	  5875
OUUT94	  5831#	  5851	  5859
OUUTN	  5843	  5877#
OUUTP	  5863	  5878#
PAGE0	   412#	  3182	  3257	  3306	  3872	  3914
PCFOB	   252#	  2430	  2438	  2440	  2644
PDP10	    34#	   192	   409	   417	  2045	  2062	  2121	  3166	  3550	  3563	  3725	  3779	  3787	  3843
	  3862	  4069	  4324	  4326	  4327	  4338	  4372	  4384	  4416	  4598	  4725	  4739	  4752
POWFAL	    59	    62#	  2070
PRINTE	    28#
PW1	  2835	  2847	  2857	  2900	  2904	  2906	  2909	  2999	  3014	  3063#
PW10	  3042	  3072#
PW11	  2983	  2986	  2990	  3001	  3002	  3003	  3006	  3007	  3073#
PW12	  2991	  2996	  3000	  3013	  3015	  4123
PW2	  2868	  2892	  2931	  2966	  2968	  3022	  3064#
PW3	  2876	  2890	  2913	  2958	  2979	  3016	  3050	  3059
PW4	  2930	  2938	  2960	  2967	  3021	  3030	  3053	  3066#
PW5	  2934	  2943	  2955	  3024	  3035	  3047	  3067#
PW6	  2935	  2963	  3028	  3056
PW7	  2947	  3069#
PW8	  2950	  3070#
PW9	  3039	  3071#
QIA	   815#	   865
QIB	   811	   835#
QIC	   808	   860#
QICC	   882#	   892
QID	   805	   910#
SYMBOL CROSS REFERENCE

QIDD	   915	   931#
QIDIAG	   270#	   870	   922	   925	   934	   952	   955	   965
QIE	   911	   941#
QIEE	   942	   962#
QIF	   936
QIFRST	   268#	   868	   980
QIG	   982	   995#
QII	   762	   775	   779	   783	   787	   791	   795	   798#
QIO	   582	   595	   599	   603	   607	   611	   615	   619#
QIRN	   857	   884	   908	   928	   938	   959	   970	   986	   996#
QIRZ	   819	   826	   831	   841	   926	   957
QIVERT	   269#	   869	   920	   921	   935	   950	   951	   966	   984	   990
QOA	   641#	   678	   684
QOB	   637	   645#
QOC	   632	   657#
QODIAG	   267#	   701	   723	   726	   735
QOE	   629	   670#	   747
QOF	   676	   687#
QOG	   692#	   751
QOH	   626	   710#
QOI	   715	   730#	   732
QOJ	   661	   711	   735#
QOK	   646	   742#
QOVERT	   266#	   700	   721	   722	   730
QUASIS	    35#
QW	   861	   867	   906	  1010#
R1	  2136	  2138	  2142	  2158	  2185	  2210	  2353#
R2	  2167	  2206	  2269	  2354#
R3	  2161	  2271	  2272	  2355#
R4	  2178	  2202	  2270	  2356#
R5	  2183	  2225	  2357#
R6	  2187	  2248	  2332	  2358#
RBD1	  3082#	  3093	  3138
RBD3	  3109#	  3136
RBD4	  3117#	  3131
RBD5	  3118	  3128#
RBS1	  4010	  4043	  4073#	  4114	  4121
RBS2	  4105	  4112
RBS3	  4103#	  4118
RBS4	  4098	  4116#
RBS5	  4086	  4120#
RD940	   417#	  5183	  5215	  5231	  5764	  5796	  5812
RM1	  2390	  2396	  2406	  2418
RM10	  2510
RM11	  2605	  2629#
RM12	  2423	  2638#
RM13	  2416	  2639	  2668
RM14	  2501	  2514	  2524	  2609	  2675#	  2686	  2695	  2740
RM15	  2486	  2698#
RM16	  2489
RM17	  2601	  2722#
RM18	  2460	  2746#
RM19	  2752#	  2758	  2769
RM2	  2432	  2652
SYMBOL CROSS REFERENCE

RM20	  2754
RM3	  2549
RM3A	  2491#	  2708	  2719
RM4	  2504#	  2518
RM5	  2512#	  2595	  2599	  2620	  2625
RM6	  2635	  2742
RM7	  2466	  2760
RM8	  2536	  2547#
RM9	  2553#	  2650	  2705	  2716
RMAKE	  2123	  2373#	  2378	  2565	  2586
RMERR	  2762	  2771#
RNG	    74	   557#	   568	   572
RNG1	   564	   570#
RSBF	   253#	  2309	  2310	  2431	  2541	  2543	  2664	  3104	  4148	  4150	  4152	  4187	  4190	  4463
	  4465
RSF	   233#	   674	   994
RT1	  2138#	  2148
RT2	  2173#	  2207
RT3	  2194#	  2203
RT3A	  2254	  2259	  2264	  2335	  2351
RT4	  2198	  2224#
RT5	  2226	  2246	  2253#
RT6	  2230	  2257#
RT7	  2173	  2179	  2194	  2239	  2268#	  2280	  2284
RT8	  2261	  2287#	  2312	  2348	  4218	  5014	  5037	  5632
RT8A	  2300	  2311#	  2317	  2321
RT8B	  2296	  2314#
RT9	  2232	  2332#
RTD	  2127	  2134#	  2139	  2222
SACTIV	   396#	  3868	  4001	  4004
SCOUNT	   388#	  3706	  5053	  5060	  5642	  5649
SEC	  2129	  3076#	  3935	  4333	  4411	  4541	  4581	  4585	  4589	  4596
SECD	  3080#
SECP	  3225	  3251	  3263	  3348	  3932#
SECP3	  4229	  4233	  4259#
SECP32	  4280	  4284	  4309#
SECP4	  4153
SECP42	  4223	  4273#
SECP4A	  4074	  4123#
SECT	  4274	  4329#
SECT1	  4386	  4394	  4398	  4408#
SECT2	  4336	  4372	  4376	  4385#
SECT4	  4414	  4422	  4424	  4435#
SECW	  4436	  4444	  4446	  4458#	  4529
SECW1	  4472#	  4535
SECW1A	  4490#	  4514
SECW1B	  4492	  4511#
SECW2	  4467	  4522#
SECW2A	  4520	  4527#
SECW3	  4523	  4531#
SECW4	  4527	  4538#
SECW4A	  4575
SECW5	  4547#	  4560
SECW6	  4551
SYMBOL CROSS REFERENCE

SECW7	  4558
SEN	  2107
SFULL	   413#	  3920
SIRING	   410#	  3253	  3309	  3869	  3906	  3911
SLACK	  6259#
SORING	   411#	  3179	  3192	  3308
SPORT	   389#	  3704	  4907	  5076	  5547	  5665
SPSTAT	   409#	  3169	  3266	  3278	  3321	  3570	  3862	  3923	  4246	  4326	  5003
SS12SE	    45#	  4355	  4587
STIME	   414#	  3245	  3925
STOPIN	   181#	  2319	  2320	  4238	  4289	  4779	  5028	  5029	  5117	  5118	  5125	  5126	  5421	  5706
	  5707	  5714	  5715
STOPO	   278#	  3948	  3979	  3980	  4016	  4047	  4048	  4239	  4290	  4922	  4928	  4930	  5562	  5568
	  5570
SUCUNT	   387#	  3268	  3907	  3908
SUP	  3942	  4001#
SUPBUF	  1778#	  1779	  1825	  3142	  3143	  3144	  3145	  3146	  3147	  3148	  3149	  3159	  3354	  3395
SWTCHI	   273#	   804	   830	   836	   883	   896	   932	   963
SWTCHO	   119#	   625	   650	   659	   664	   683	   706	   738	   743	   854	  2071	  2072	  2073	  2074
	  2075	  2076	  2077	  2078	  4532
TCH	   390#
TICKSP	    42#	   825	  2389	  3246	  3934	  5382	  5962
TIME1	   255#	  2384	  2585
TIMEH	   393#	   756	  3244	  3924
TIMEL	   394#	   559	   560	   821	   851	  2383	  2584	  3932	  3937	  5370	  5380	  5950	  5960
TIMMIN	   392#	  4329	  4330	  4347	  4408	  4538	  4578
TIMSEC	   391#	  3933	  3938
TSLR	   265#	   822	   852
TYP10A	  3950	  3997#
TYPE10	  3945#	  3967	  3995	  3999
UNHAP	   395#	  4420	  4421	  4545
UNHAP1	   404#	  4442	  4443	  4546
UP1	  5373#	  5383
UP2	  5368	  5378	  5389#
UPDATE	  3613	  3972	  4766	  5358#	  5387	  5392
UPDN1	   118#	  2037	  3709	  3717	  4009	  4273	  4296	  4385	  4435	  4694	  5401	  5410	  5751
UPDOWN	   116#	  2042	  3166	  3607	  3615	  3941	  4222	  4244	  4335	  4413	  4724	  4729	  4759	  4768
	  5162
UPDWN	   376#	  4231	  4232	  4631	  4722
UPDWN1	   408#	  4282	  4283	  4666	  4692
USWICH	   397#	  3154	  3279	  3285	  3310	  3322	  3376	  3430	  3831	  4343	  4725	  4739
UUP1	  5953#	  5963
UUP2	  5948	  5958	  5969#
UUPDT1	  3715	  4040	  5408	  5938#	  5967	  5972
W1	   288#	  2236	  2245	  2341	  2347	  2375	  2377	  2381	  2443	  2553	  2570	  2638	  2712	  3081
	  3082	  3086	  3190	  3203	  3215	  3227	  3355	  3428	  3945	  3966	  3977	  3994	  4013	  4034
	  4045	  4062	  4072	  4073	  4077	  4140	  4141	  4157	  4188	  4367	  4378	  4379	  4389	  4400
	  4401	  4776	  4785	  5418	  5427
W10	   297#	  2437	  2540	  2749	  2750	  2753	  3156	  3165	  3347	  3358	  3366	  3367	  3368	  3847
	  3848	  3852	  3855	  3856	  4477	  4490	  4500	  4502	  4511	  5217	  5243	  5260	  5325	  5341
	  5342	  5364	  5374	  5798	  5824	  5841	  5902	  5921	  5922	  5944	  5954
W11	   298#	  2447	  2485	  2593	  4482	  4512	  4513	  5233	  5255	  5284	  5323	  5327	  5335	  5814
	  5836	  5868	  5900	  5907	  5915
W12	   299#	  2450	  2527	  2622	  2624	  2729	  2733	  4679	  4680	  4682	  4710	  4711	  4715	  4882
SYMBOL CROSS REFERENCE

	  4897	  4910	  4949	  4969	  4993	  5056	  5061	  5090	  5103	  5229	  5265	  5326	  5336	  5352	  5524
	  5537	  5550	  5589	  5609	  5645	  5650	  5679	  5692	  5810	  5846	  5865	  5867	  5906	  5916
	  5932
W13	   300#	  2086	  2087
W2	   289#	  2242	  2252	  2408	  2471	  2548	  2561	  2676	  3095	  3109	  3191	  3208	  3217	  3228
	  3230	  3357	  3372	  3402	  3410	  3836	  3846	  3883	  3888	  3900	  3947	  3949	  3955	  3956
	  4015	  4017	  4023	  4024	  4088	  4107	  4160	  4169	  4210	  4611	  4625	  4646	  4660	  4784
	  5426
W3	   290#	  2414	  2496	  2499	  2512	  2513	  2521	  2607	  2608	  2737	  2738	  3097	  3113	  3133
	  3197	  3204	  3219	  3231	  3232	  3316	  3324	  3434	  3443	  3457	  3463	  3472	  3474	  3507
	  3534	  3542	  3549	  3560	  3579	  3585	  3586	  3594	  3621	  3641	  3657	  3700	  3727	  3746
	  3763	  3767	  3800	  3814	  3875	  3884	  3890	  3899	  3961	  3988	  4029	  4056	  4090	  4094
	  4095	  4132	  4164	  4165	  4255	  4305	  4431	  4453	  4472	  4566	  4592	  4612	  4621	  4647
	  4656	  4683	  4699	  4716	  4733	  4788	  4807	  4823	  4836	  4884	  4902	  4906	  4919	  4938
	  4971	  4978	  5010	  5025	  5033	  5043	  5069	  5101	  5113	  5122	  5430	  5449	  5465	  5478
	  5526	  5542	  5546	  5559	  5578	  5611	  5618	  5628	  5658	  5690	  5702	  5711
W4	   291#	  2290	  2311	  2426	  2427	  2534	  2641	  2662	  2746	  3099	  3134	  3135	  3198	  3209
	  3221	  3326	  3369	  3403	  3436	  3446	  3450	  3478	  3497	  3559	  3577	  3580	  3587	  3629
	  3654	  3761	  3768	  3781	  3787	  3802	  3812	  3857	  3874	  3886	  4092	  4110	  4111	  4128
	  4168	  4179	  4203	  4213	  4253	  4303	  4426	  4448	  4473	  4571	  4697	  4731	  4794	  4809
	  4950	  4982	  5046	  5062	  5106	  5436	  5451	  5590	  5622	  5651	  5695
W5	   292#	  2421	  2425	  2643	  2660	  3116	  3130	  3183	  3193	  3199	  3235	  3362	  3365	  3578
	  3584	  4175	  4180	  4193	  4202
W6	   293#	  2456	  2478	  2504	  2611	  2629	  2649	  2658	  2665	  2666	  2722	  3502	  3509	  3528
	  3631	  3673	  3686	  4201	  4206
W7	   294#	  2491	  2522	  2529	  2632	  2634	  2698	  2704	  2727	  2728	  3477	  3496	  3508	  3523
	  3531	  3598	  3659
W8	   295#	  2497	  2523	  3492	  3495
W9	   296#	  2494	  2516	  2517	  2603	  2604	  2725	  4474	  4519	  5244	  5245	  5288	  5371	  5381
	  5825	  5826	  5872	  5951	  5961
WCD	  2630	  2791
WCI	  2200	  2237	  2851	  2855#	  2881	  2902	  2911	  3341	  3448	  3451	  3572	  3647	  3850	  3853
	  4007	  4108	  4181	  4204	  4363	  4509	  4911	  4983	  5005	  5040	  5551	  5623
WCI1	  2872#	  3061
WCI10	  3043#	  3048
WCI11	  3052#	  3057
WCI12	  2969	  3059#
WCI2	  2874	  2891#
WCI3	  2896	  2904#
WCI4	  2870	  2923	  3017
WCI5	  2919	  2927#
WCI6	  2956
WCI7	  2959#	  2964
WCI8	  2925	  2971#	  2980
WCI9	  2976	  3019#
X	  1779#	  1780	  1782	  1784	  1786	  1788	  1790	  1792	  1794	  1797	  1797#	  1800	  1803	  1806
	  1809	  1812	  1815	  1818	  1821	  5979#	  5982	  6032	  6082	  6132	  6182
Y	  1798#	  1801	  1802#	  1802	  1804	  1805#	  1805	  1807	  1808#	  1808	  1810	  1811#	  1811	  1813
	  1814#	  1814	  1816	  1817#	  1817	  1819	  1820#	  1820	  1822	  5980#	  5983	  6033	  6083	  6133
	  6183
Z	  1799#	  1802	  1805	  1808	  1811	  1814	  1817	  1820
ZAP	  4687	  4717	  5019	  5024#	  5050	  5637
ZAPCIR	    52#	  3330	  3344
ZBF	  2345	  2723	  2766	  2793#	  2801	  3493	  4211	  4498
SYMBOL CROSS REFERENCE

ZDET	    64#	   479	   489	   499	   509	   519	   529	   539	   549 @