PAGE 01  DRIPAR.VAS  21-MAR-73  09:19:22.416

      	000040	00100	MACHNUM	E	40	MACHINE NUMBER
      	000070	00300	HOST0NUM E	56D	HOST NUMBER
      	000001	00400	NLINES	E	1	NUMBER OF 201 LINES
      	001041	00500	NEIGH0	E	1041
      	000000	00600	NEIGH1	E	0
      	000000	00700	NEIGH2	E	0
      	000000	00800	NEIGH3	E	0
      	000000	00900	NEIGH4	E	0
      	000002	01000	NGRPS0	E	2
      	000000	01100	NGRPS1	E	0
      	000000	01200	NGRPS2	E	0
      	000000	01300	NGRPS3	E	0
      	000000	01400	NGRPS4	E	0
      	142322	01420	ASCII1	E	142322	DR
      	144600	01460	ASCII2	E	144600	I
      	      	01500	*
      	      	01600	* SWITCH SETTINGS
      	000000	01700	COMS	E	0	COMNET
      	000000	01800	MGHS	E	0	MASS GENERAL HOSP
      	000000	01900	OSUS	E	0	OHIO STATE UNIV
      	177777	02000	DRIS	E	-1	DATA RESOURCES INC.	
      	000000	02100	NLMS	E	0	NATIONAL LIBRARY OF MED
      	000000	02200	BATS	E	0	BATTELLE
      	000000	02300	BAUD12	E	0
      	000000	02400	BAUD24	E	0
      	000000	02450	BAUD48	E	0
      	000000	02500	BAUD96	E	0	**THIS CODE IS COMMENTED OUT**
      	000000	02600	CARD201	E	0
PAGE 01  VERS26.VAS  21-MAR-73  09:19:22.916

      	      	00020	*  TYMCOM-III MASTER FILE - VERSION 26
      	      	00030	*  (INCLUDES NLM XON AND LAROYS NEW BUF SCHEME)
      	      	00032	*  (AND DRI BREAK MODIFICATION)
      	      	00035	*  3/20/73
      	      	00240	
      	      	00260	* DATA RESOURCES, INC.
      	      	00400	* VERSION FOR NO 201 CARD
00000	001100	00440		JSS1	*
00001	000000	
00002	002000	00460		JMPM	CRASH
00003	002633	
00004	000000	00480	LINER	0; 0; 0	LINE ERROR COUNT FOR LINES 0,1, AND 2
00005	000000	
00006	000000	
00007	000000	00500	POWFAL	0	POWER FAILURE COUNT
00010	      	00520		R	10	TRAP LOCATION FOR POWER FAILSAFE
00010	000000	00540		0; 0
00011	000000	
00012	100077	00560		EXC	77
00013	040007	00580		INR	POWFAL
00014	002000	00600		JMPM	CRASH
00015	002633	
00016	      	00620		R	20
00020	002000	01080		JMPM	JTAB+.
00021	103024	
00022	002000	01100		JMPM	IN0
00023	002751	
00024	      	01140		R	100
00100	000040	01160	MACHNO	+MACHNUM	MACHINE(NODE) NUMBER
00101	000026	01180		26	VERSION NUMBER
00102	000000	01200	DLOCK	0	DEBUGGER LOCK
00103	000000	01220	DSWICH	0	DOWNSTREAM SWITCH
00104	000000	01240	CRSHCT	0	CRASH COUNT
00105	000101	01260	N370L	100+NLINES
00106	000070	01280	HOST	+HOST0NUM	****MUST PRECEED 'UPDOWN'****
00107	177777	01300	UPDOWN	-1
00110	000000	01320	SWTCHO	0; 0; 0; 0; 0
00111	000000	
00112	000000	
00113	000000	
00114	000000	
00115	001041	01340	MACH	+NEIGH0; +NEIGH1; +NEIGH2; +NEIGH3; +NEIGH4
00116	000000	
00117	000000	
00120	000000	
00121	000000	
00122	012255	01360	IOTA	+IOTAB0; 0; 0; 0; 0; +INTERN ADDRESS OF IO TABLES
00123	000000	
00124	000000	
00125	000000	
00126	000000	
00127	012315	
00130	177774	01380	IOTABS	-2*NGRPS0; -2*NGRPS1; -2*NGRPS2
00131	000000	
PAGE 01  VERS26.VAS  21-MAR-73  09:19:24.333

00132	000000	
00133	000000	01400		-2*NGRPS3; -2*NGRPS4;-2
00134	000000	
00135	177776	
00136	000002	01420	GROUPN	+NGRPS0; +NGRPS1; +NGRPS2; +NGRPS3; +NGRPS4
00137	000000	
00140	000000	
00141	000000	
00142	000000	
00143	000000	01440	GROUPI	0
00144	000002	01460		0+NGRPS0
00145	000002	01480		0+NGRPS0+NGRPS1
00146	000002	01500		0+NGRPS0+NGRPS1+NGRPS2
00147	000002	01520		0+NGRPS0+NGRPS1+NGRPS2+NGRPS3
00150	000006	01540		+NUMGRP-1
      	000005	01550	MAXLINES E	5
00151	010000	01560	BORO	10000
      	000005	01580	BORI	RPT1	MAXLINES
00152	010000	01600		10000
00153	010000	
00154	010000	
00155	010000	
00156	010000	
00157	142322	01620	ASCII	+ASCII1; +ASCII2
00160	144600	
      	000161	01640	FLAG	E	*
      	      	01660	* GENBUF MUST BE FIRST   UNASSIGNED BUFFERS USE BIT 0 OF GENBUF
00161	000000	01680	GENBUF	0
00162	      	01700	TCW	R	*+1	TERMINAL CHARACTER WAITING
00163	      	01720	TCW2	R	*+1
00164	      	01740	IFT	R	*+2	INPUT FROM TERMINAL
      	      	01760	* RT6 REQUIRES CFOB TO BE LAST GROUP OF FLAGS
      	000007	01780	NUMGRP	E	7
00166	      	01800	CFOB	R	*+NUMGRP	CANDIDATES FOR OUTPUT BUFFER
00175	      	01820	PCFOB	R	*+NUMGRP	PROCESSED CANDIDATES FOR OUTPUT BUFFER
00204	      	01840	RSBF	R	*+NUMGRP	RESTRICTED BUFFER FLAGS
00213	000000	01860	TIMSEC	0	TIME SINCE LAST ONE QUARTER SECOND
00214	000000	01880	TIMMIN	0	TIME SINCE LAST MINUTE
00215	000000	01900	TIMEH	0	HIGH ORDER REAL TIME
00216	000000	01920	TIMEL	0	LOW ORDER REAL TIME
00217	000000	01940	RGX	0
00220	000000	01960	SBX	0
00221	000000	01980	SBA	0
00222	000000	02000	SBA2	0
00223	      	02020	PACTH	R	*+2	PORT ACTIVE HISTORY
00225	      	02040	START	R	*+40	START TIME
00265	      	02060	OCOUNT	R	*+40	OUTPUT CHARACTER COUNT
00325	      	02080	ICOUNT	R	*+40	INPUT CHARACTER COUNT
00365	      	02100	T20M	R	*+40	20 MINUTE TIMEOUT
00425	      	02120	ATIME	R	*+1	TIME TO SEND IN ACCOUNTING
00426	      	02140	ACSTAT	R	*+1	ACCOUNTING STATUS
      	      	02160	* -1 READY TO TRANSMIT
      	      	02180	* 0 INITIAL STATE  NOT LOGGED IN
      	      	02200	* 1 FIRST TYPE 5 SENT
PAGE 01  VERS26.VAS  21-MAR-73  09:19:25.700

      	      	02220	* 2 SECOND TYPE 5 SENT
      	      	02240	* 3 WAITING FOR CONTROL C
00427	      	02260	ACTIMO	R	*+1	TIMEOUT FOR CONTROL C AND TYPE 5
00430	      	02280	APORT	R	*+1	TYMNET PORT FOR ACCOUNTING
00431	      	02300	CCOUNT	R	*+1	CONTROL C COUNT
00432	      	02320	ANAME	R	*+1	MODIFIER FOR ACCOUNTING LOGIN NAME
00433	      	02340	LRESET	R	*+3
00436	      	02360	TIME1	R	*+3	TIME SINCE LAST RECORD MADE
00441	      	02380	OSF	R	*+3	OUTPUT SECTOR FLAGS
00444	      	02400	ISF	R	*+3	INPUT SECTOR FLAGS
00447	      	02420	CAOS	R	*+3	CURRENT ASSEMBLING OUTPUT SECTOR
00452	      	02440	COS	R	*+3	CURRENT OUTPUT SECTOR
00455	      	02460	CDIS	R	*+3	CURRENT DISASSEMBLING INPUT SECTOR
00460	      	02480	CIS	R	*+3	CURRENT INPUT SECTOR
00463	      	02500	LRR	R	*+3	LAST RECORD RECEIVED
00466	      	02520	ASDW	R	*+3	ASSEMBLED WORD
00471	      	02540	NDASW	R	*+3	NEXT DISASSEMBLING WORD
00474	      	02600	ASW	R	*+1	ASSEMBLING WORD
00475	      	02620	DASW	R	*+1	DISASSEMBLING WORD
00476	      	02660	TSLR	R	*+3	TIME SINCE LAST RESET
00501	      	02680	QOVERT	R	*+3	OUTPUT VERTICAL CHECKSUM
00504	      	02700	QODIAG	R	*+3	OUTPUT DIAGONAL CHECKSUM
00507	      	02720	QIFRST	R	*+3	FIRST WORD OF RECORD
00512	      	02740	QIVERT	R	*+3	INPUT VERTICAL CHECKSUM
00515	      	02760	QIDIAG	R	*+3	INPUT DIAGONAL CHECKSUM
00520	      	02780	IRC	R	*+3	INPUT RECORD COUNT
00523	      	02800	ORC	R	*+3	OUTPUT RECORD COUNT
00526	      	02820	INLIST	R	*+3	LIST OF INPUT CLEANUP TO DO
00531	      	02840	OUTLST	R	*+3	LIST OF OUTPUT CLEANUP TO DO
00534	      	02860	SWTCHI	R	*+3	SWITCH FOR INPUT CLEANUP
00537	      	02880	LINSAT	R	*+3	LINE SATURATION COUNTER
00542	      	02900	INDATA	R	*+3	INCOMING DATA FLAG FOR DIAGNOSTICS
00545	      	02920	CLNLOK	R	*+1	CLEANUP LOCK
00546	      	02940	ORA	R	*+3	OUTPUT RECORD ADDRESS
00551	      	02960	IRA	R	*+3	INPUT RECORD ADDRESS
00554	      	02980	INA	R	*+1	A REGISTER SAVE LOCATION FOR INTERRUPT ROUTINES
00555	      	03040	INB	R	*+1
00556	      	03080	RNGA	R	*+1	SAVE LOCATIONS FOR RINGDRIVER
00557	      	03100	RNGX	R	*+1
00560	      	03120	SWI	R	*+1	INDIRECT POINTER FOR 16 SECOND LOGIC
00561	      	03140	USWICH	R	*+1
00562	      	03160	CNA	R	*+1	SAVE LOCATIONS FOR CLEANUP ROUTINE
00563	      	03180	CNB	R	*+1
00564	      	03200	CNX	R	*+1
00565	      	03220	RNG1	R	*+2	OUTPUT BITS FOR RINGDRIVER
00567	177777	03300	TAM	-1
00570	177777	03320	TAM2	-1
00571	000000	03340	PINP	0; 0	PORT IS IN INPUT MODE
00572	000000	
00573	000000	03360	MASD	0; 0	MESSAGE ASSEMBLED
00574	000000	
00575	000000	03660	DED	0;	0	DEDICATED PORT FOR UP/DOWN HANDSHAKE
00576	000000	
00577	000000	03680	T64SI	0; 0	64 SECOND TIMEOUT FOR INPUT
PAGE 01  VERS26.VAS  21-MAR-73  09:19:26.483

00600	000000	
00601	000000	03720	YBT	0;	0; 0; 0	YELLOW BALL TIMEOUT
00602	000000	
00603	000000	
00604	000000	
00605	000000	03740	IGNO	0; 0	IGNORE OUTPUT
00606	000000	
00607	000000	03760	PASD	0; 0	PORT ASSIGNED
00610	000000	
00611	000000	03780	NPORT	0; 0	NEW PORT
00612	000000	
00613	000000	03800	CEXZ	0; 0	CIRCUIT EXTERNALLY ZAPPED
00614	000000	
00615	000000	03840	PACT	0; 0	PORT IS ACTIVE
00616	000000	
00617	000000	03860	CRO	0;	0	INPUT CARRIAGE RETURN ONLY (PLUS CONTROL Z FOR PDP 9)
00620	000000	
00621	000000	03920	RTSFLG	0	REQUEST TO SEND FLAG -	THE 6700 WANTS
00622	000000	03940		0	TO OUTPUT TO THE USER
00623	000000	03960	CTSFLG	0	CLEAR TO SEND FLAG -	THE 6700 HAS IS
00624	000000	03980		0	IN RECEIVE MODE
00625	000000	04000	RTSOUT	0; 0	WE HAVE SENT A 'REQUEST TO SEND'
00626	000000	
      	000005	04020	RTSCHR	E	5	REQUEST TO SEND CHARACTER -	CONTROL E
      	000006	04040	CTSCHR	E	6	CLEAR TO SEND CHARACTER -	CONTROL F
00627	000000	04050	BRKFLG	0; 0	SET WHEN BREAK CHAR RECEIVED FROM USER
00630	000000	
00631	      	04080	MA	R	*+2
00633	      	04100	CRSAVE	R	*+10	ARRAY TO SAVE CRASH INFORMATION
00643	000000	04120	W1	0
00644	000000	04140	W2	0
00645	000000	04160	W3	0
00646	000000	04180	W4	0
00647	000000	04200	W5	0
00650	000000	04220	W6	0
00651	000000	04240	W7	0
00652	000000	04260	W8	0
00653	000000	04280	W9	0
00654	000000	04300	W10	0
00655	000000	04320	W11	0
00656	000000	04340	W12	0
00657	000000	04360	W13	0
00660	      	04380		I	*+3
00663	000001	04400	MASK	1; 2; 4; 10; 20; 40; 100; 200; 400; 1000; 2000; 4000
00664	000002	
00665	000004	
00666	000010	
00667	000020	
00670	000040	
00671	000100	
00672	000200	
00673	000400	
00674	001000	
00675	002000	
PAGE 01  VERS26.VAS  21-MAR-73  09:19:26.966

00676	004000	
00677	010000	04420		10000; 20000; 40000; 100000
00700	020000	
00701	040000	
00702	100000	
00703	177776	04440	CMSK	177776; 177775; 177773; 177767; 177757; 177737; 177677; 177577; 177377
00704	177775	
00705	177773	
00706	177767	
00707	177757	
00710	177737	
00711	177677	
00712	177577	
00713	177377	
00714	176777	04460		176777; 175777; 173777; 167777; 157777; 137777; 77777
00715	175777	
00716	173777	
00717	167777	
00720	157777	
00721	137777	
00722	077777	
00723	000021	04480	RSF	21; 42; 104; 210; 231; 63; 146; 314; 335; 273; 167; 356
00724	000042	
00725	000104	
00726	000210	
00727	000231	
00730	000063	
00731	000146	
00732	000314	
00733	000335	
00734	000273	
00735	000167	
00736	000356	
      	      	04500	* CHECK BR BEFORE CHANGING OSEC
00737	013300	04520	OSEC	13300
00740	013500	04540	ISEC	13500
      	013700	04560	RING	E	13700
      	015700	04580	POINT	E	15700
      	020000	04600	BUF	E	20000
00741	002751	04720	INZD	+IN0
00742	002772	04740	INNORM	+IN0B
00743	000744	04760	INAD	+INS
00744	002751	04780	INS	+IN0
00745	      	04820	CTS	R	*+4
00751	177777	04840	P370	-1; -1; -1; -1; -1; -1; -1; -1
00752	177777	
00753	177777	
00754	177777	
00755	177777	
00756	177777	
00757	177777	
00760	177777	
00761	177777	04860		-1; -1; -1; -1; -1; -1; -1; -1
00762	177777	
PAGE 01  VERS26.VAS  21-MAR-73  09:19:27.366

00763	177777	
00764	177777	
00765	177777	
00766	177777	
00767	177777	
00770	177777	
00771	177777	04880		-1; -1; -1; -1; -1; -1; -1; -1
00772	177777	
00773	177777	
00774	177777	
00775	177777	
00776	177777	
00777	177777	
01000	177777	
01001	177777	04900		-1; -1; -1; -1; -1; -1; -1; -1
01002	177777	
01003	177777	
01004	177777	
01005	177777	
01006	177777	
01007	177777	
01010	177777	
01011	000000	04920	ZAPP	0
01012	000000	04940	LFREE	0
      	000304	04960	NBUF	E	304
01013	      	04980	BUFERS	R	*+NBUF+NBUF
      	      	05000	* 0 IS FOR GATHERING ACCOUNTING
      	      	05020	* 1 HOLDS ACCOUNTING DATA UNTIL ACKNOWLEDGED BY 940
      	      	05040	* 2 OUTPUTS TO DEBUGGER TELETYPE
      	      	05060	* 3 INPUTS FROM DEBUGGER TELETYPE
      	      	05080	* 4 OUTPUTS TO TEST PORT
      	      	05100	* 20 TO 57 USED FOR LOGON INFO
      	      	05120	* 60 TO 177 USED BY SUPERVISOR TO TERMINATE CIRCUITS
      	      	05140	* 200 TO 237 INPUT TO 370
      	      	05160	* 240 TO 277 MESSAGE ASSEMBLY
      	      	05180	* 300 TO 301 SUPERVISOR CHANNELS
      	      	05200	* 302 TO 303 FLOW CONTROL CHANNELS
01623	000017	05220		17; 17; 20; 17; 21; 0; 0; 0
01624	000017	
01625	000020	
01626	000017	
01627	000021	
01630	000000	
01631	000000	
01632	000000	
01633	000000	05240		0; 0;	0; 0; 0; 0; 0; 0
01634	000000	
01635	000000	
01636	000000	
01637	000000	
01640	000000	
01641	000000	
01642	000000	
01643	000017	05260		17; 17; 17; 17; 17; 17; 17; 17
PAGE 01  VERS26.VAS  21-MAR-73  09:19:27.866

01644	000017	
01645	000017	
01646	000017	
01647	000017	
01650	000017	
01651	000017	
01652	000017	
01653	000017	05280		17; 17; 17; 17; 17; 17; 17; 17
01654	000017	
01655	000017	
01656	000017	
01657	000017	
01660	000017	
01661	000017	
01662	000017	
01663	000017	05300		17; 17; 17; 17; 17; 17; 17; 17
01664	000017	
01665	000017	
01666	000017	
01667	000017	
01670	000017	
01671	000017	
01672	000017	
01673	000017	05320		17; 17; 17; 17; 17; 17; 17; 17
01674	000017	
01675	000017	
01676	000017	
01677	000017	
01700	000017	
01701	000017	
01702	000017	
01703	000017	05340		17; 0; 17; 0; 17; 0; 17; 0
01704	000000	
01705	000017	
01706	000000	
01707	000017	
01710	000000	
01711	000017	
01712	000000	
01713	000017	05360		17; 0; 17; 0; 17; 0; 17; 0
01714	000000	
01715	000017	
01716	000000	
01717	000017	
01720	000000	
01721	000017	
01722	000000	
01723	000017	05380		17; 0; 17; 0; 17; 0; 17; 0
01724	000000	
01725	000017	
01726	000000	
01727	000017	
01730	000000	
01731	000017	
PAGE 01  VERS26.VAS  21-MAR-73  09:19:28.133

01732	000000	
01733	000017	05400		17; 0; 17; 0; 17; 0; 17; 0
01734	000000	
01735	000017	
01736	000000	
01737	000017	
01740	000000	
01741	000017	
01742	000000	
01743	000017	05420		17; 0; 17; 0; 17; 0; 17; 0
01744	000000	
01745	000017	
01746	000000	
01747	000017	
01750	000000	
01751	000017	
01752	000000	
01753	000017	05440		17; 0; 17; 0; 17; 0; 17; 0
01754	000000	
01755	000017	
01756	000000	
01757	000017	
01760	000000	
01761	000017	
01762	000000	
01763	000017	05460		17; 0; 17; 0; 17; 0; 17; 0
01764	000000	
01765	000017	
01766	000000	
01767	000017	
01770	000000	
01771	000017	
01772	000000	
01773	000017	05480		17; 0; 17; 0; 17; 0; 17; 0
01774	000000	
01775	000017	
01776	000000	
01777	000017	
02000	000000	
02001	000017	
02002	000000	
02003	000017	05500		17; 0; 17; 0; 17; 0; 17; 0
02004	000000	
02005	000017	
02006	000000	
02007	000017	
02010	000000	
02011	000017	
02012	000000	
02013	000017	05520		17; 0; 17; 0; 17; 0; 17; 0
02014	000000	
02015	000017	
02016	000000	
02017	000017	
PAGE 01  VERS26.VAS  21-MAR-73  09:19:28.650

02020	000000	
02021	000017	
02022	000000	
      	      	05540	* **** CHANGE TO 20 AND 21 IN FINAL VERSION ****
02023	000000	05560		00; 00; 22; 23; 24; 25; 26; 27
02024	000000	
02025	000022	
02026	000023	
02027	000024	
02030	000025	
02031	000026	
02032	000027	
02033	000030	05580		30; 31; 32; 33; 34; 35; 36; 37
02034	000031	
02035	000032	
02036	000033	
02037	000034	
02040	000035	
02041	000036	
02042	000037	
02043	000040	05600		40; 41; 42; 43; 44; 45; 46; 47
02044	000041	
02045	000042	
02046	000043	
02047	000044	
02050	000045	
02051	000046	
02052	000047	
02053	000050	05620		50; 51; 52; 53; 54; 55; 56; 57
02054	000051	
02055	000052	
02056	000053	
02057	000054	
02060	000055	
02061	000056	
02062	000057	
02063	000017	05640		17; 17; 17; 17; 17; 17; 17; 17
02064	000017	
02065	000017	
02066	000017	
02067	000017	
02070	000017	
02071	000017	
02072	000017	
02073	000017	05660		17; 17; 17; 17; 17; 17; 17; 17
02074	000017	
02075	000017	
02076	000017	
02077	000017	
02100	000017	
02101	000017	
02102	000017	
02103	000017	05680		17; 17; 17; 17; 17; 17; 17; 17
02104	000017	
PAGE 01  VERS26.VAS  21-MAR-73  09:19:28.983

02105	000017	
02106	000017	
02107	000017	
02110	000017	
02111	000017	
02112	000017	
02113	000017	05700		17; 17; 17; 17; 17; 17; 17; 17
02114	000017	
02115	000017	
02116	000017	
02117	000017	
02120	000017	
02121	000017	
02122	000017	
02123	000120	05720		120; 1; 121; 2
02124	000001	
02125	000121	
02126	000002	
      	000000	05740	BP	E	0
      	000304	05760	BC	E	NBUF
      	000610	05780	BF	E	BC+NBUF
02127	      	05800		R NBUF+*
02433	      	05820		L	*+200
      	      	05840	* A FATAL ERROR HAS OCCURRED
      	      	05860	* SAVE ERROR NUMBER AND (SOMETIMES) MARK LOCATION
      	      	05880	* OF ROUTINE IN WHICH ERROR WAS DETECTED
02633	000000	05900	CRASH	0
02634	100077	05920		EXC	77
02635	010104	05940		LDA	CRSHCT
02636	040104	05960		INR	CRSHCT
02637	152433	05980		ANA	=3
02640	005014	06000		TAX
02641	022633	06020		LDB	CRASH
02642	065633	06040		STB	CRSAVE,5
02643	016000	06060		LDA	0,6
02644	055637	06080		STA	CRSAVE+4,5
02645	005002	06100	INIT	TZB
02646	032434	06120		LDX	=BUFERS+BC+NBUF
02647	012435	06140		LDA	=NBUF+NBUF-1
02650	005311	06160		DAR
02651	005344	06180		DXR
02652	065000	06200		STB	0,5
02653	001002	06220		JAP	*-3
02654	002650	
02655	012436	06240		LDA	=1777
02656	032437	06260		LDX	=RING+2000
02657	005311	06280		DAR
02660	005344	06300		DXR
02661	065000	06320		STB	0,5
02662	001002	06340		JAP	*-3
02663	002657	
02664	032440	06360		LDX	=RNG1
02665	012441	06380		LDA	=RNG1-FLAG-1
02666	005344	06400		DXR
PAGE 01  VERS26.VAS  21-MAR-73  09:19:29.600

02667	005311	06420		DAR
02670	065000	06440		STB	0,5
02671	001002	06460		JAP	*-3
02672	002666	
02673	060110	06480		STB	SWTCHO
02674	060111	06500		STB	SWTCHO+1
02675	060112	06520		STB	SWTCHO+2
02676	030122	06540		LDX	IOTA
02677	012442	06560		LDA	=BR-IOTAB0-1
02700	065060	06580		STB	BR-IOTAB0,5
02701	005144	06600		IXR
02702	005311	06620		DAR
02703	001002	06640		JAP	*-3
02704	002700	
02705	050565	06780		STA	RNG1
02706	050566	06800		STA	RNG1+1
02707	050567	06820		STA	TAM
02710	050570	06840		STA	TAM2
02711	005102	06860		INC	,B
02712	061012	06880		STB	LFREE
02713	032437	06900		LDX	=POINT
02714	005122	06920		IBR
02715	065001	06940		STB	1,5
02716	005145	06960		INC	X,AX
02717	142443	06980		SUB	=POINT+1776
02720	001004	07000		JAN	*-4
02721	002714	
02722	005001	07020		TZA
02723	055001	07040		STA	1,5
02724	050621	07080		STA	RTSFLG
02725	050622	07100		STA	RTSFLG+1
02726	050623	07120		STA	CTSFLG
02727	050624	0714A	CTSFLG+1
02730	050625	07160		STA	RTSOUT
02731	050626	07180		STA	RTSOUT+1
02732	050627	07190		STA	BRKFLG
02733	050630	07195		STA	BRKFLG+1
02734	100377	07640	EN3	EXC	377
02735	002000	07660	EXEC	JMPM	SBOD
02736	005036	
02737	002000	07680		JMPM	RMAKE
02740	004260	
02741	002000	07700		JMPM	SBOD
02742	005036	
02743	002000	07720		JMPM	RTD
02744	003705	
02745	002000	07740		JMPM	SEC
02746	006361	
02747	001000	07760		JMP	EXEC
02750	002735	
02751	000000	09180	IN0	0
02752	050554	09200		STA	INA
02753	102561	09220		CIA	61
02754	001002	09240		JAP	IN0A
PAGE 01  VERS26.VAS  21-MAR-73  09:19:32.866

02755	002762	
02756	010554	09260		LDA	INA
02757	100177	09280		EXC	177
02760	001000	09300		JMP	IN0+.
02761	102751	
02762	010664	09320	IN0A	LDA	MASK+1
02763	050474	09340		STA	ASW
02764	010742	09360		LDA	INNORM
02765	050023	09380		STA	23
02766	010554	09400		LDA	INA
02767	100177	09420		EXC	177
02770	001000	09440		JMP	IN0+.
02771	102751	
02772	000000	09460	IN0B	0
02773	060555	09480		STB	INB
02774	102661	09500		CIB	61
02775	050554	09520		STA	INA
02776	010474	09540		LDA	ASW
02777	001004	09560		JAN	IN0C
03000	003010	
03001	004441	09580		LLRL	1
03002	050474	09600		STA	ASW
03003	010554	09620		LDA	INA
03004	020555	09640		LDB	INB
03005	100177	09660		EXC	177
03006	001000	09680		JMP	IN0B+.
03007	102772	
03010	004441	09700	IN0C	LLRL	1
03011	050466	09720		STA	ASDW
03012	010744	09740		LDA	INS
03013	050023	09760		STA	23
03014	005101	09780		INC	,A
03015	050474	09800		STA	ASW
03016	040526	09820		INR	INLIST
03017	010554	09840		LDA	INA
03020	020555	09860		LDB	INB
03021	100177	09880		EXC	177
03022	001000	09900		JMP	IN0B+.
03023	102772	
03024	003076	09920	JTAB	+RNG; +N201; +RNG; +N201; +RNG; +N201; +RNG; +N201
03025	003061	
03026	003076	
03027	003061	
03030	003076	
03031	003061	
03032	003076	
03033	003061	
03034	003076	09940		+RNG;	+N201; +RNG; +N201; +RNG; +N201; +RNG; +S201
03035	003061	
03036	003076	
03037	003061	
03040	003076	
03041	003061	
03042	003076	
PAGE 01  VERS26.VAS  21-MAR-73  09:19:34.200

03043	003044	
03044	000000	09960	S201	0
03045	103061	10120		OME	61,DASW
03046	000475	
03047	050554	10140		STA	INA
03050	012444	10180		LDA	=JTAB+.
03051	050021	10200		STA	21
03052	010471	10220		LDA	NDASW
03053	050475	10240		STA	DASW
03054	040531	10260		INR	OUTLST
03055	010554	10280		LDA	INA
03056	100177	10300		EXC	177
03057	001000	10320		JMP	S201+.
03060	103044	
03061	000000	10340	N201	0
03062	050554	10360		STA	INA
03063	010475	10380		LDA	DASW
03064	103161	10520		OAR	61
03065	004241	10560		LRLA	1
03066	050475	10580		STA	DASW
03067	010554	10600		LDA	INA
03070	040021	10620		INR	21
03071	100177	10640		EXC	177
03072	001000	10660		JMP	N201+.
03073	103061	
      	      	10680	* RING DRIVER
      	      	10700	* SERIALIZES AND DESERIALIZES FOR 103 DATA SETS
03074	002000	10720	RNGH	JMPM	CRASH	START BAUD SCANNER BEHIND
03075	002633	
03076	000000	10740	RNG	0
03077	050556	10760		STA	RNGA
03100	010475	10780		LDA	DASW
03101	103161	10920		OAR	61
03102	004241	10960		LRLA	1
03103	050475	10980		STA	DASW
03104	040021	11000		INR	21
03105	070557	11020		STX	RNGX
03106	010217	11040		LDA	RGX
03107	120665	11060		ADD	MASK+2
03110	152445	11080		ANA	=1774
03111	050217	11100		STA	RGX
03112	005014	11120		TAX
03113	140220	11140		SUB	SBX
03114	001010	11160		JAZ	RNGH
03115	003074	
03116	005041	11180		TXA
03117	122446	11200		ADD	=RING
03120	005014	11220		TAX
03121	010565	11240		LDA	RNG1
03122	135000	11260		ERA	0,5
03123	103160	11280		OAR	60
03124	050565	11300		STA	RNG1
03125	102560	11320		CIA	60
03126	055000	11340		STA	0,5
PAGE 01  VERS26.VAS  21-MAR-73  09:19:35.416

03127	010566	11360		LDA	RNG1+1
03130	135002	11380		ERA	2,5
03131	103162	11400		OAR	62
03132	050566	11420		STA	RNG1+1
03133	102562	11440		CIA	62
03134	055002	11480		STA	2,5
03135	010567	11500		LDA	TAM
03136	115001	11520		ORA	1,5
03137	050567	11540		STA	TAM
03140	010570	11560		LDA	TAM2
03141	115003	11580		ORA	3,5
03142	050570	11600		STA	TAM2
03143	005001	11620		TZA
03144	055001	11640		STA	1,5
03145	055003	11660		STA	3,5
03146	005041	11760		TXA
03147	030557	11780		LDX	RNGX
03150	150665	11800		ANA	MASK+2
03151	110545	11820		ORA	CLNLOK
03152	001010	11980		JAZ	RNGC
03153	003160	
03154	010556	12020		LDA	RNGA
03155	100377	12040		EXC	377
03156	001000	12060		JMP	RNG+.
03157	103076	
03160	005201	12080	RNGC	COM	,A
03161	050545	12100		STA	CLNLOK
03162	013076	12120		LDA	RNG
03163	053704	12140		STA	CLENRT+1
03164	010556	12260		LDA	RNGA
03165	100377	12280		EXC	377
      	      	12300	* CLEANUP FOR 201 INTERRUPTS
03166	050562	12320		STA	CNA
03167	060563	12340		STB	CNB
03170	070564	12360		STX	CNX
03171	010531	12380	CLNOUT	LDA	OUTLST
03172	001002	12400		JAP	BUMPT
03173	003366	
03174	001000	12420		JMP	CLENIN
03175	003377	
      	      	12440	* OUTPUT INTERRUPT CLEANUP ROUTINE  LINE NUMBER IN X
03176	005201	12460	QIO	COM	,A
03177	055531	12480		STA	OUTLST,5
03200	015110	12500		LDA	SWTCHO,5
03201	001004	12520		JAN	QOH
03202	003316	
03203	004241	12540		LRLA	1
03204	001004	12560		JAN	QOE
03205	003250	
03206	004241	12580		LRLA	1
03207	001004	12600		JAN	QOC
03210	003234	
      	      	12620	* OUTPUT ONES, AFTER WHICH CHECK BIT 3 OF SWITCH
      	      	12640	* TO SEE WHETHER TO OUTPUT RESET PATTERN OR RETRANSMIT
PAGE 01  VERS26.VAS  21-MAR-73  09:19:36.116

03211	025523	12660		LDB	ORC,5
03212	001020	12680		JBZ	QOB
03213	003222	
03214	005322	12700		DBR
03215	065523	12720		STB	ORC,5
03216	005201	12740	QOA	COM	,A
03217	055471	12760		STA	NDASW,5
03220	001000	12780		JMP	CLNOUT
03221	003171	
03222	004241	12800	QOB	LRLA	1
03223	001004	12820		JAN	QOK
03224	003353	
03225	004343	12840		LSRA	3
03226	110700	12860		ORA	MASK+15
03227	055110	12880		STA	SWTCHO,5
03230	012447	12900		LDA	=5253
03231	055471	12920		STA	NDASW,5
03232	001000	12940		JMP	CLNOUT
03233	003171	
      	      	12960	* TRANSMIT SECOND HALF OF RESET PATTERN, THEN CHECK BIT 4 OF SWITCH
      	      	12980	* TO SEE WHETHER TO OUTPUT ONES OR LOOK FOR NEW RECORD
03234	010100	13000	QOC	LDA	MACHNO
03235	055471	13020		STA	NDASW,5
03236	015110	13040		LDA	SWTCHO,5
03237	004244	13060		LRLA	4
03240	001004	13080		JAN	QOJ+2
03241	003347	
03242	005001	13100		TZA
03243	055110	13120		STA	SWTCHO,5
03244	012450	13140		LDA	=41
03245	055523	13160		STA	ORC,5
03246	001000	13180		JMP	CLNOUT
03247	003171	
      	      	13200	* LOOK FOR NEW RECORD TO OUTPUT
03250	015452	13220	QOE	LDA	COS,5
03251	152433	13240		ANA	=3
03252	005012	13260		TAB
03253	015441	13280		LDA	OSF,5
03254	156723	13300		ANA	RSF,6
03255	146663	13320		SUB	MASK,6
03256	001010	13340		JAZ	QOF
03257	003270	
03260	001004	13360		JAN	QOA
03261	003216	
03262	010670	13380		LDA	MASK+5
03263	055523	13400		STA	ORC,5
03264	010677	13420		LDA	MASK+14
03265	055110	13440		STA	SWTCHO,5
03266	001000	13460		JMP	QOA
03267	003216	
      	      	13480	* NEW RECORD FOUND   SEND IT OUT
03270	045452	13500	QOF	INR	COS,5
03271	015441	13520		LDA	OSF,5
03272	116667	13540		ORA	MASK+4,6
PAGE 01  VERS26.VAS  21-MAR-73  09:19:36.700

03273	055441	13560		STA	OSF,5
03274	005021	13580		TBA
03275	004245	13600	QOG	LRLA	5
03276	125737	13620		ADD	OSEC,5
03277	005012	13640		TAB
03300	005111	13660		IAR
03301	055546	13680		STA	ORA,5
03302	016000	13700		LDA	0,6
03303	115463	13720		ORA	LRR,5
03304	055471	13740		STA	NDASW,5
03305	055501	13760		STA	QOVERT,5
03306	055504	13780		STA	QODIAG,5
03307	004346	13800		LSRA	6
03310	152451	13820		ANA	=37
03311	055523	13840		STA	ORC,5
03312	010702	13860		LDA	MASK+17
03313	055110	13880		STA	SWTCHO,5
03314	001000	13900		JMP	CLNOUT
03315	003171	
      	      	13920	* OUTPUT NEXT WORD OF RECORD
03316	015523	13940	QOH	LDA	ORC,5
03317	001010	13960		JAZ	QOJ
03320	003345	
03321	005311	13980		DAR
03322	055523	14000		STA	ORC,5
03323	001010	14020		JAZ	QOI
03324	003341	
03325	025546	14040		LDB	ORA,5
03326	045546	14060		INR	ORA,5
03327	016000	14080		LDA	0,6
03330	055471	14100		STA	NDASW,5
03331	135501	14120		ERA	QOVERT,5
03332	055501	14140		STA	QOVERT,5
03333	015504	14160		LDA	QODIAG,5
03334	004241	14180		LRLA	1
03335	135471	14200		ERA	NDASW,5
03336	055504	14220		STA	QODIAG,5
03337	001000	14240		JMP	CLNOUT
03340	003171	
      	      	14260	* SECOND TO LAST WORD OF RECORD
03341	015501	14280	QOI	LDA	QOVERT,5
03342	055471	14300		STA	NDASW,5
03343	001000	14320		JMP	QOI-6
03344	003333	
      	      	14340	* LAST WORD OF RECORD
03345	015504	14360	QOJ	LDA	QODIAG,5
03346	055471	14380		STA	NDASW,5
03347	010701	14400		LDA	MASK+16
03350	055110	14420		STA	SWTCHO,5
03351	001000	14440		JMP	CLNOUT
03352	003171	
      	      	14460	* CHECK FOR RETRANSMIT
03353	010701	14480	QOK	LDA	MASK+16
03354	055110	14500		STA	SWTCHO,5
PAGE 01  VERS26.VAS  21-MAR-73  09:19:37.450

03355	015441	14520		LDA	OSF,5
03356	132452	14540		ERA	=377
03357	005311	14560		DAR
03360	001002	14580		JAP	QOE
03361	003250	
03362	015452	14600		LDA	COS,5
03363	152433	14620		ANA	=3
03364	001000	14640		JMP	QOG
03365	003275	
      	      	14660	* USE IF SWITCH 2 IF LINE 0 IS 4800 BPS, SWITCH 3 IF 9600 BPS,
      	      	14680	* SWITCH 4 IF 1200 BPS, NO SWITCH IF 2400 BPS
03366	010216	14700	BUMPT	LDA	TIMEL
03367	120665	14860		ADD	MASK+2
03370	050216	14900		STA	TIMEL
03371	003010	14920		XAZ	BUMPTH
03372	003376	
03373	005004	14940		TZX
03374	001000	14960		JMP	QIO
03375	003176	
03376	040215	14980	BUMPTH	INR	TIMEH
      	      	15000	* 201 INPUT INTERRUPT CLEANUP
03377	005004	15020	CLENIN	TZX
03400	010526	15040		LDA	INLIST
03401	001004	15060		JAN	CLENDN
03402	003675	
03403	005201	15080	QII	COM	,A
03404	055526	15100		STA	INLIST,5
03405	015534	15120		LDA	SWTCHI,5
03406	001004	15140		JAN	QID
03407	003544	
03410	004241	15160		LRLA	1
03411	001004	15180		JAN	QIC
03412	003467	
03413	004241	15200		LRLA	1
03414	001004	15220		JAN	QIB
03415	003437	
      	      	15240	* SWITCH A IS SET BY INIT
      	      	15260	* LOOK FOR FIRST HALF OF RESET PATTERN
03416	015466	15280	QIA	LDA	ASDW,5
03417	132447	15300		ERA	=5253
03420	001010	15320		JAZ	*+4
03421	003424	
03422	001000	15340		JMP	QIRZ
03423	003667	
03424	010216	15360		LDA	TIMEL
03425	145476	15380		SUB	TSLR,5
03426	001004	15400		JAN	*+5
03427	003433	
03430	140675	15420		SUB	MASK+12
03431	001004	15440		JAN	QIRZ
03432	003667	
      	      	15460	* SET B SWITCH
03433	010700	15480		LDA	MASK+15
03434	055534	15500		STA	SWTCHI,5
PAGE 01  VERS26.VAS  21-MAR-73  09:19:38.266

03435	001000	15520		JMP	QIRZ
03436	003667	
      	      	15540	* LOOK FOR SECOND HALF OF RESET PATTERN
      	      	15560	* SET C SWITCH
03437	010701	15580	QIB	LDA	MASK+16
03440	055534	15600		STA	SWTCHI,5
03441	015466	15620		LDA	ASDW,5
03442	135115	15640		ERA	MACH,5
03443	001010	15660		JAZ	*+4
03444	003447	
03445	001000	15680		JMP	QIRZ
03446	003667	
03447	022453	15700		LDB	=7
03450	065463	15720		STB	LRR,5
03451	055444	15740		STA	ISF,5
03452	055455	15760		STA	CDIS,5
03453	045433	15780		INR	LRESET,5
03454	055441	15800		STA	OSF,5
03455	055452	15820		STA	COS,5
03456	055447	15840		STA	CAOS,5
03457	010216	15860		LDA	TIMEL
03460	055476	15880		STA	TSLR,5
03461	010676	15900		LDA	MASK+13
03462	055110	15920		STA	SWTCHO,5
03463	012450	15940		LDA	=41
03464	055523	15960		STA	ORC,5
03465	001000	15980		JMP	QIRN
03466	003664	
      	      	16000	* LOOK FOR FIRST WORD OF RECORD
03467	015466	16020	QIC	LDA	ASDW,5
03470	053674	16040		STA	QW
03471	152454	16060		ANA	=74000
03472	135152	16080		ERA	BORI,5
03473	005311	16100		DAR
03474	001002	16120		JAP	QIA
03475	003416	
03476	013674	16140		LDA	QW
03477	055507	16160		STA	QIFRST,5
03500	055512	16180		STA	QIVERT,5
03501	055515	16200		STA	QIDIAG,5
03502	004343	16220		LSRA	3
03503	005012	16240		TAB
03504	004343	16260		LSRA	3
03505	152451	16280		ANA	=37
03506	055520	16300		STA	IRC,5
03507	005321	16320		DEC	B,A
03510	145463	16340		SUB	LRR,5
03511	150665	16360		ANA	MASK+2
03512	001010	16380		JAZ	*+6
03513	003520	
      	      	16400	* SET D SWITCH
03514	010702	16420	QICC	LDA	MASK+17
03515	055534	16440		STA	SWTCHI,5
03516	001000	16460		JMP	QIRN
PAGE 01  VERS26.VAS  21-MAR-73  09:19:42.750

03517	003664	
03520	005021	16480		TBA
03521	152433	16500		ANA	=3
03522	005012	16520		TAB
03523	015444	16540		LDA	ISF,5
03524	156663	16560		ANA	MASK,6
03525	005311	16580		DAR
03526	001002	16600		JAP	QICC
03527	003514	
      	      	16620	* SET E SWITCH
03530	012455	16640		LDA	=140000
03531	055534	16660		STA	SWTCHI,5
03532	065460	16680		STB	CIS,5
03533	005021	16700		TBA
03534	004245	16720		LRLA	5
03535	125740	16740		ADD	ISEC,5
03536	055551	16760		STA	IRA,5
03537	005012	16780		TAB
03540	013674	16800		LDA	QW
03541	056000	16820		STA	0,6
03542	001000	16840		JMP	QIRN
03543	003664	
03544	004241	16860	QID	LRLA	1
03545	001004	16880		JAN	QIE
03546	003600	
      	      	16900	* INPUT RECORD WITHOUT STORING IT IN SECTOR
03547	015520	16920		LDA	IRC,5
03550	001010	16940		JAZ	QIDD
03551	003567	
03552	005313	16960		DEC	A,AB
03553	055520	16980		STA	IRC,5
03554	015466	17000		LDA	ASDW,5
03555	135512	17020		ERA	QIVERT,5
03556	055512	17040		STA	QIVERT,5
03557	015515	17060		LDA	QIDIAG,5
03560	004241	17080		LRLA	1
03561	135466	17100		ERA	ASDW,5
03562	055515	17120		STA	QIDIAG,5
03563	001020	17140		JBZ	QIRZ
03564	003667	
03565	001000	17160		JMP	QIRN
03566	003664	
      	      	17180	* LAST WORD OF RECORD   SET C SWITCH
03567	010701	17200	QIDD	LDA	MASK+16
03570	055534	17220		STA	SWTCHI,5
03571	015466	17240		LDA	ASDW,5
03572	135515	17260		ERA	QIDIAG,5
03573	115512	17280		ORA	QIVERT,5
03574	001010	17300		JAZ	QIF
03575	003642	
03576	001000	17320		JMP	QIRN
03577	003664	
      	      	17340	* INPUT RECORD AND STORE IN SECTOR
03600	015520	17360	QIE	LDA	IRC,5
PAGE 01  VERS26.VAS  21-MAR-73  09:19:43.616

03601	001010	17380		JAZ	QIEE
03602	003624	
03603	005311	17400		DAR
03604	055520	17420		STA	IRC,5
03605	045551	17440		INR	IRA,5
03606	025551	17460		LDB	IRA,5
03607	015466	17480		LDA	ASDW,5
03610	056000	17500		STA	0,6
03611	135512	17520		ERA	QIVERT,5
03612	055512	17540		STA	QIVERT,5
03613	015515	17560		LDA	QIDIAG,5
03614	004241	17580		LRLA	1
03615	136000	17600		ERA	0,6
03616	055515	17620		STA	QIDIAG,5
03617	015520	17640		LDA	IRC,5
03620	001010	17660		JAZ	QIRZ
03621	003667	
03622	001000	17680		JMP	QIRN
03623	003664	
      	      	17700	* LAST WORD OF RECORD   SET C SWITCH
03624	010701	17720	QIEE	LDA	MASK+16
03625	055534	17740		STA	SWTCHI,5
03626	015466	17760		LDA	ASDW,5
03627	135515	17780		ERA	QIDIAG,5
03630	115512	17800		ORA	QIVERT,5
03631	001010	17820		JAZ	*+5
03632	003636	
03633	045004	17840		INR	LINER,5
03634	001000	17860		JMP	QIRN
03635	003664	
03636	025460	17880		LDB	CIS,5
03637	015444	17900		LDA	ISF,5
03640	116663	17920		ORA	MASK,6
03641	055444	17940		STA	ISF,5
      	      	17960	* PHYSICAL RECORD HAS GOOD CHECKSUMS
      	      	17980	* CHECK ACKNOWLEDGEMENT AND SEE WHICH OUTPUT SECTORS CAN BE CLEARED
03642	015447	18000	QIF	LDA	CAOS,5
03643	005313	18020		DEC	A,AB
03644	145507	18040		SUB	QIFRST,5
03645	152453	18060		ANA	=7
03646	001010	18080		JAZ	QIG
03647	003663	
03650	055512	18100		STA	QIVERT,5
03651	140665	18120		SUB	MASK+2
03652	001002	18140		JAP	QIRN
03653	003664	
03654	005021	18160		TBA
03655	004542	18180		LLSR	2
03656	015512	18200		LDA	QIVERT,5
03657	004442	18220		LLRL	2
03660	005012	18240		TAB
03661	015441	18260		LDA	OSF,5
03662	156717	18280		ANA	RSF-4,6
03663	055441	18300	QIG	STA	OSF,5
PAGE 01  VERS26.VAS  21-MAR-73  09:19:44.283

03664	015742	18320	QIRN	LDA	INNORM,5
03665	001000	18340		JMP	*+3
03666	003670	
03667	015741	18360	QIRZ	LDA	INZD,5
03670	025743	18380		LDB	INAD,5
03671	056000	18400		STA	0,6
03672	001000	18420		JMP	CLENIN
03673	003377	
03674	000000	18440	QW	0
03675	010562	18460	CLENDN	LDA	CNA
03676	020563	18480		LDB	CNB
03677	030564	18500		LDX	CNX
03700	100077	18520		EXC	77
03701	040545	18540		INR	CLNLOK
03702	100377	18560		EXC	377
03703	001000	18580	CLENRT	JMP	*
03704	003703	
      	      	18600	* RECORD TEARDOWN   PROCESSES PHYSICAL RECORDS FROM 201 LINES
      	      	18620	* USES SPECIAL WORKING CELLS TO AVOID CONFLICT WITH SBOD
      	      	18640	* AND DEVICE DRIVERS WHICH MAY RUN CONCURRENTLY TO PREVENT
      	      	18660	* SBOD FROM GETTING BEHIND (APPLIES TO REMOTES ONLY).
03705	000000	18680	RTD	0
03706	012456	18700		LDA	=NLINES
03707	054340	18720		STA	R1
      	      	18740	* CHECK EACH LINE FOR SOMETHING TO DO
03710	024337	18760	RT1	LDB	R1
03711	001020	18780		JBZ	RTD+.
03712	103705	
03713	005322	18800		DBR
03714	064333	18820		STB	R1
03715	016455	18840		LDA	CDIS,6
03716	152433	18860		ANA	=3
03717	005014	18880		TAX
03720	016444	18900		LDA	ISF,6
03721	155663	18920		ANA	MASK,5
03722	001010	18940		JAZ	RT1
03723	003710	
      	      	18960	* RECORD FOUND   GET SECTOR ADDRESS
03724	005041	18980		TXA
03725	004245	19000		LRLA	5
03726	126740	19020		ADD	ISEC,6
03727	005014	19040		TAX
03730	005111	19060		IAR
03731	004241	19080		LRLA	1
03732	054317	19100		STA	R3
03733	015000	19120		LDA	0,5
03734	004345	19140		LSRA	5
03735	152457	19160		ANA	=76
03736	005211	19180		COM	A,A
03737	120665	19200		ADD	MASK+2
03740	054310	19220		STA	R2
03741	015000	19240		LDA	0,5
03742	004343	19260		LSRA	3
03743	152453	19280		ANA	=7
PAGE 01  VERS26.VAS  21-MAR-73  09:19:44.966

03744	056463	19300		STA	LRR,6
      	      	19320	* PROCESS LOGICAL RECORD
03745	002000	19340	RT2	JMPM	RT7
03746	004074	
03747	002010	19360		JAZM	CRASH
03750	002633	
03751	005211	19380		COM	A,A
03752	054300	19400		STA	R4
03753	002000	19420		JMPM	RT7
03754	004074	
03755	005012	19440		TAB
03756	142460	19460		SUB	=2
03757	054274	19480		STA	R5
03760	005021	19500		TBA
03761	024266	19520		LDB	R1
03762	126122	19540		ADD	IOTA,6
03763	054272	19560		STA	R7
03764	005012	19580		TAB
03765	016000	19600		LDA	0,6
03766	122461	19620		ADD	=BUFERS
03767	150722	19640		ANA	CMSK+17
03770	005014	19660		TAX
      	      	19680	* COPY OUT CHARACTERS FROM LOGICAL RECORD TO BUFFER
03771	002000	19700	RT3	JMPM	RT7
03772	004074	
03773	005012	19720		TAB
03774	004142	19740		LSRB	2
03775	001020	19760		JBZ	RT4
03776	004024	
03777	002000	19780	RT3A	JMPM	WCI
04000	006122	
04001	014251	19800		LDA	R4
04002	001004	19820		JAN	RT3
04003	003771	
      	      	19840	* DONE WITH LOGICAL RECORD
04004	014244	19860		LDA	R2
04005	001004	19880		JAN	RT2
04006	003745	
      	      	19900	* DONE WITH SECTOR
04007	024240	19920		LDB	R1
04010	016455	19940		LDA	CDIS,6
04011	046455	19960		INR	CDIS,6
04012	152433	19980		ANA	=3
04013	005014	20000		TAX
04014	015703	20020		LDA	CMSK,5
      	      	20040	* DISABLE INTERRUPTS TO PREVENT INTERFERENCE FROM QII
04015	100077	20060		EXC	77
04016	156444	20080		ANA	ISF,6
04017	100377	20100		EXC	377
04020	056444	20120		STA	ISF,6
04021	046542	20140		INR	INDATA,6
04022	001000	20160		JMP	RTD+.
04023	103705	
04024	005012	20180	RT4	TAB
PAGE 01  VERS26.VAS  21-MAR-73  09:19:45.900

04025	014226	20200		LDA	R5
04026	001004	20220		JAN	RT5
04027	004060	
04030	005021	20240		TBA
04031	142460	20260		SUB	=2
04032	001010	20280		JAZ	RT6
04033	004063	
04034	001002	20300		JAP	RT9
04035	004223	
      	      	20320	* CHARACTER PAIR   MUST NOT BE SPLIT UP
04036	064220	20340		STB	R8
04037	002000	20360		JMPM	RT7
04040	004074	
04041	050643	20380		STA	W1
04042	014214	20400		LDA	R8
04043	002000	20420		JMPM	WCI
04044	006122	
      	      	20440	* CHECK FOR CIRCUIT GOUGER
04045	010643	20460		LDA	W1
04046	004342	20480		LSRA	2
04047	132462	20500		ERA	=12
04050	144206	20520		SUB	R8
04051	001002	20540		JAP	RT5-1
04052	004057	
04053	024202	20560		LDB	R7
04054	016000	20580		LDA	0,6
04055	110702	20600		ORA	MASK+17
04056	056000	20620		STA	0,6
04057	020643	20640		LDB	W1
04060	005021	20660	RT5	TBA
04061	001000	20680		JMP	RT3A
04062	003777	
      	      	20700	* CHARACTER GOBBLER
04063	005041	20720	RT6	TXA
04064	142461	20740		SUB	=BUFERS
04065	001004	20760		JAN	RT3A
04066	003777	
04067	002000	20780		JMPM	RT8
04070	004134	
04071	012460	20800		LDA	=2
04072	001000	20820		JMP	RT3A
04073	003777	
      	      	20840	* RT7 BUMPS R2, R3, AND R4 AND RETURNS CHARACTER FROM SECTOR
      	      	20860	* IN A
      	      	20880	* IN REMOTES, CALL SBOD TO MAKE SURE IT DOES NOT GET BEHIND
04074	000000	20900	RT7	0
04075	044153	20920		INR	R2
04076	044154	20940		INR	R4
04077	014152	20960		LDA	R3
04100	150663	20980		ANA	MASK
04101	001010	21000		JAZ	*+11
04102	004112	
04103	024146	21020		LDB	R3
04104	044145	21040		INR	R3
PAGE 01  VERS26.VAS  21-MAR-73  09:19:46.333

04105	004141	21060		LSRB	1
04106	016000	21080		LDA	0,6
04107	152452	21100		ANA	=377
04110	001000	21120		JMP	RT7+.
04111	104074	
04112	010217	21140		LDA	RGX
04113	140220	21160		SUB	SBX
04114	150674	21180		ANA	MASK+11
04115	001010	21200		JAZ	*+6
04116	004123	
04117	074135	21220		STX	R6
04120	002000	21240		JMPM	SBOD
04121	005036	
04122	034132	21260		LDX	R6
04123	024126	21280		LDB	R3
04124	044125	21300		INR	R3
04125	004141	21320		LSRB	1
04126	016000	21340		LDA	0,6
04127	004350	21360		LSRA	10
04130	001000	21380		JMP	RT7+.
04131	104074	
      	      	21400	* SPEED ZAPPER OR GOBBLER ON ITS WAY
04132	002000	21420	RT8A	JMPM	CRASH
04133	002633	
04134	000000	21440	RT8	0
04135	002000	21460		JMPM	EMPTY
04136	004164	
04137	070646	21480		STX	W4
04140	015610	21500		LDA	BF,5
      	000005	21520	RT8T	E	CFOB-FLAG
      	000050	21540	RT8T2	E	RT8T+RT8T+RT8T+RT8T+RT8T+RT8T+RT8T+RT8T
04141	142463	21560		SUB	=RT8T2+RT8T2
04142	001004	21580		JAN	RT8+.
04143	104134	
04144	005012	21600		TAB
04145	122464	21620		ADD	=IOTAB0
04146	005014	21640		TAX
04147	142465	21660		SUB	=BR
04150	001002	21680		JAP	RT8A
04151	004132	
04152	012466	21700		LDA	=40
04153	055060	21720		STA	BR-IOTAB0,5
04154	005021	21740		TBA
04155	002000	21760		JMPM	BITADD
04156	012233	
04157	116204	21780		ORA	RSBF,6
04160	056204	21800		STA	RSBF,6
04161	030646	21820		LDX	W4
04162	001000	21840		JMP	RT8+.
04163	104134	
04164	000000	21860	EMPTY	0
04165	015000	21880		LDA	BP,5
04166	152436	21900		ANA	=1777
04167	001010	21920		JAZ	EMPTY+.
PAGE 01  VERS26.VAS  21-MAR-73  09:19:46.950

04170	104164	
04171	074030	21940		STX	EMP2
04172	021012	21960	EMP1	LDB	LFREE
04173	051012	21980		STA	LFREE
04174	122437	22000		ADD	=POINT
04175	005014	22020		TAX
04176	015000	22040		LDA	0,5
04177	065000	22060		STB	0,5
04200	152436	22080		ANA	=1777
04201	001010	22100		JAZ	*+4
04202	004205	
04203	001000	22120		JMP	EMP1
04204	004172	
04205	034014	22140		LDX	EMP2
04206	015610	22160		LDA	BF,5
04207	005002	22180		TZB
04210	065000	22200		STB	BP,5
04211	065304	22220		STB	BC,5
04212	002000	22240		JMPM	BITADD
04213	012233	
04214	005211	22260		COM	A,A
04215	156161	22280		ANA	FLAG,6
04216	056161	22300		STA	FLAG,6
04217	034002	22320		LDX	EMP2
04220	001000	22340		JMP	EMPTY+.
04221	104164	
04222	000000	22360	EMP2	0
      	      	22380	* CIRCUIT ZAPPER
04223	024032	22400	RT9	LDB	R7
04224	016000	22420		LDA	0,6
04225	005111	22440		IAR
04226	001010	22460		JAZ	RT3A
04227	003777	
04230	005311	22480		DAR
04231	130663	22500		ERA	MASK
04232	122461	22520		ADD	=BUFERS
04233	150722	22540		ANA	CMSK+17
04234	070643	22560		STX	W1
04235	005014	22580		TAX
04236	005201	22600		COM	,A
04237	056000	22620		STA	0,6
04240	002000	22640		JMPM	ZBF
04241	006305	
04242	030643	22660		LDX	W1
04243	002000	22680		JMPM	RT8
04244	004134	
04245	012433	22700		LDA	=3
04246	001000	22720		JMP	RT3A
04247	003777	
04250	000000	22740	R1	0	LINE NUMBER
04251	000000	22760	R2	0	APPROXIMATE NUMBER OF CHARACTERS IN PHYSICAL RECORD
04252	000000	22780	R3	0	CHARACTER ADDRESS IN SECTOR
04253	000000	22800	R4	0	COUNT DOWN FOR LOGICAL RECORD
04254	000000	22820	R5	0	VIRTUAL CHANNEL SWITCH (FIRST 2 CHANNELS DO NOT GET CHECKED)
PAGE 01  VERS26.VAS  21-MAR-73  09:19:47.400

04255	000000	22840	R6	0	SAVE X BOX
04256	000000	22860	R7	0	IOTAB ADDRESS
04257	000000	22880	R8	0	FIRST HALF OF CHARACTER PAIR
      	      	22900	* RECORD MAKER   MAKES PHYSICAL RECORDS FOR 201 LINES
      	      	22920	* W1 LINE NUMBER
      	      	22940	* W2 NUMBER OF CHARACTERS IN PHYSICAL RECORD
      	      	22960	* W3 CHARACTER ADDRESS IN SECTOR
      	      	22980	* W4 GROUP INDEX
      	      	23000	* W5 NUMBER OF GROUPS
      	      	23020	* W6 BUFFER NUMBER   ALSO ACCUMULATER FOR RM13
      	      	23040	* W7 LOGICAL RECORD SIZE
      	      	23060	* W8 ADDRESS OF BEGINNING OF LOGICAL RECORD
      	      	23080	* W9 COUNT DOWN FOR LOGICAL RECORD
      	      	23100	* W10 BIT POSITION NUMBER
      	      	23120	* W11 CHANNEL NUMBER
      	      	23140	* W12 ADDRESS OF IOTAB ENTRY
      	      	23160	* W13 FIRST HALF OF CHAR PAIR
04260	000000	23180	RMAKE	0
04261	012456	23200		LDA	=NLINES
04262	050643	23220		STA	W1
      	      	23240	* CHECK EACH LINE FOR SOMETHING TO DO
04263	020643	23260	RM1	LDB	W1
04264	001020	23280		JBZ	RMAKE+.
04265	104260	
04266	005322	23300		DBR
04267	060643	23320		STB	W1
      	      	23340	* HOW LONG SINCE LAST RECORD MADE ON THIS LINE
04270	010216	23360		LDA	TIMEL
04271	146436	23380		SUB	TIME1,6
      	      	23400	* FOR 9600 BPS LINE, SUBTRACT 20 INSTEAD OF 40
      	      	23420	* THIS CODING ASSUMES THAT ONLY ONE 9600 BPS LINE IS USED
04272	001004	23560		JAN	*+5
04273	004277	
04274	142466	23580		SUB	=40
04275	001004	23620		JAN	RM1
04276	004263	
      	      	23640	* DO NOT LET CAOS GET TOO FAR AHEAD OF COS
04277	016447	23660		LDA	CAOS,6
04300	146452	23680		SUB	COS,6
04301	140664	23700		SUB	MASK+1
04302	001002	23720		JAP	RM1
04303	004263	
      	      	23740	* IS THIS SECTOR OCCUPIED
04304	016447	23760		LDA	CAOS,6
04305	152433	23780		ANA	=3
04306	005014	23800		TAX
04307	016441	23820		LDA	OSF,6
04310	155663	23840		ANA	MASK,5
04311	050644	23860		STA	W2
04312	005311	23880		DAR
04313	001002	23900		JAP	RM1
04314	004263	
04315	005041	23920		TXA
04316	004245	23940		LRLA	5
PAGE 01  VERS26.VAS  21-MAR-73  09:19:47.966

04317	126737	23960		ADD	OSEC,6
04320	005111	23980		IAR
04321	004241	24000		LRLA	1
04322	050645	24020		STA	W3
      	      	24040	* ARE THERE ANY CHARACTERS READY
04323	002000	24060		JMPM	RM13
04324	004661	
04325	001010	24080		JAZ	RM1
04326	004263	
      	      	24100	* PROCEED TO BUILD RECORD
04327	010647	24120	RM2	LDA	W5
04330	005311	24140		DAR
04331	001004	24160		JAN	RM12
04332	004641	
04333	050647	24180		STA	W5
04334	020646	24200		LDB	W4
04335	040646	24220		INR	W4
      	      	24240	* ANY LIVE ONES IN THIS GROUP?
04336	016166	24260	RM3	LDA	CFOB,6
04337	156175	24280		ANA	PCFOB,6
04340	156204	24300		ANA	RSBF,6
04341	001010	24320		JAZ	RM2
04342	004327	
      	      	24340	* WE MAY HAVE ONE
04343	002000	24360		JMPM	BID
04344	012243	
04345	070654	24380		STX	W10
04346	016175	24400		LDA	PCFOB,6
04347	155703	24420		ANA	CMSK,5
04350	056175	24440		STA	PCFOB,6
      	      	24460	* COMPUTE CHANNEL NUMBER
04351	005021	24480		TBA
04352	020643	24500		LDB	W1
04353	146143	24520		SUB	GROUPI,6
04354	004244	24540		LRLA	4
04355	005051	24560		COP	AX,A
04356	050655	24580		STA	W11
      	      	24600	* LOOK UP BUFFER NUMBER
04357	126122	24620		ADD	IOTA,6
04360	050656	24640		STA	W12
04361	005014	24660		TAX
04362	015000	24680		LDA	0,5
04363	130663	24700		ERA	MASK
04364	122461	24720		ADD	=BUFERS
04365	150722	24740		ANA	CMSK+17
04366	050650	24760		STA	W6
      	      	24780	* CHECK FOR NULL ENTRY
04367	015000	24800		LDA	0,5
04370	005111	24820		IAR
04371	001010	24840		JAZ	RM18
04372	005004	
      	      	24860	* IS BUFFER RESTRICTION COUNT AT LEAST 6?
04373	015060	24880		LDA	BR-IOTAB0,5
04374	005012	24900		TAB
PAGE 01  VERS26.VAS  21-MAR-73  09:19:48.416

04375	142467	24920		SUB	=6
04376	001004	24940		JAN	RM7
04377	004466	
      	      	24960	* FIND SIZE OF LOGICAL RECORD
      	      	24980	* HOW MUCH ROOM LEFT IN SECTOR
04400	142470	25000		SUB	=52D
04401	120644	25020		ADD	W2
04402	001004	25040		JAN	*+5
04403	004407	
04404	005211	25060		COM	A,A
04405	125060	25080		ADD	BR-IOTAB0,5
04406	005112	25100		INC	A,B
      	      	25120	* HOW MANY CHARACTERS IN BUFFER
04407	030650	25140		LDX	W6
04410	005021	25160		TBA
04411	145304	25180		SUB	BC,5
04412	001004	25200		JAN	*+3
04413	004415	
04414	025304	25220		LDB	BC,5
      	      	25240	* TEST FOR SUPERVISORY OR FLOW RESTRICTION CHANNEL
04415	030655	25260		LDX	W11
04416	001040	25280		JXZ	RM15
04417	004730	
04420	005341	25300		DEC	X,A
04421	001010	25320		JAZ	RM16
04422	004744	
04423	060651	25340	RM3A	STB	W7
04424	005222	25360		COM	B,B
04425	005122	25380		INC	B,B
04426	060653	25400		STB	W9
      	      	25420	* BUILD LOGICAL RECORD
04427	010645	25440		LDA	W3
04430	050652	25460		STA	W8
04431	005111	25480		IAR
04432	050645	25500		STA	W3
      	      	25520	* STORE CHANNEL NUMBER
04433	002000	25540		JMPM	RM14
04434	004702	
      	      	25560	* COPY CHARACTERS INTO SECTOR
04435	030650	25580	RM4	LDX	W6
04436	002000	25600		JMPM	GCI
04437	005717	
04440	005014	25620		TAX
      	      	25640	* TEST FOR SPECIAL CHARACTER PAIRS OR CIRCUIT ZAPPER
04441	004342	25660		LSRA	2
04442	001010	25680		JAZ	RM10
04443	004540	
04444	040645	25700	RM5	INR	W3
04445	010645	25720		LDA	W3
04446	002000	25740		JMPM	RM14
04447	004702	
04450	040653	25760		INR	W9
04451	010653	25780		LDA	W9
04452	001004	25800		JAN	RM4
PAGE 01  VERS26.VAS  21-MAR-73  09:19:49.050

04453	004435	
      	      	25820	* DONE COPYING. NOW PLACE SIZE AT BEGINNING OF RECORD
04454	040645	25840	RM6	INR	W3
04455	030651	25860		LDX	W7
04456	010652	25880		LDA	W8
04457	002000	25900		JMPM	RM14
04460	004702	
      	      	25920	* ADJUST BUFFER RESTRICTION COUNT
04461	030656	25940		LDX	W12
04462	015060	25960		LDA	BR-IOTAB0,5
04463	140651	25980		SUB	W7
04464	055060	26000		STA	BR-IOTAB0,5
04465	142467	26020		SUB	=6
      	      	26040	* RM7 IS ENTERED FROM MIDDLE OF RM3 SECTION
      	      	26060	* ALSO ENTERED FROM RM19
04466	020646	26080	RM7	LDB	W4
04467	005322	26100		DBR
04470	001002	26120		JAP	RM8
04471	004476	
      	      	26140	* BUFFER RESTRICTION COUNT LESS THAN 6. TURN OFF RSBF
      	      	26160	* THE NUMBER 6 IS SELECTED FOR EFFICIENCY AND TO AVOID BUG IN RM15
04472	030654	26180		LDX	W10
04473	016204	26200		LDA	RSBF,6
04474	155703	26220		ANA	CMSK,5
04475	056204	26240		STA	RSBF,6
      	      	26260	* IS THERE ROOM IN THE SECTOR FOR ANOTHER RECORD
      	      	26280	* NOTE- SUBTLE INEFFICIENCY BUG CAUSED BY RM10
      	      	26300	* IF 54D IS CHANGED TO 55D
04476	012471	26320	RM8	LDA	=54D
04477	140644	26340		SUB	W2
04500	001002	26360		JAP	RM3
04501	004336	
      	      	26380	* FINISH PHYSICAL RECORD
      	      	26400	* FIND ADDRESS OF FIRST WORD OF SECTOR
04502	020643	26420	RM9	LDB	W1
04503	016447	26440		LDA	CAOS,6
04504	152433	26460		ANA	=3
04505	004245	26480		LRLA	5
04506	126737	26500		ADD	OSEC,6
04507	005014	26520		TAX
04510	016447	26540		LDA	CAOS,6
04511	004543	26560		LLSR	3
04512	010644	26580		LDA	W2
      	      	26600	* NOTE- RSBF MAY HAVE BEEN TURNED ON WHEN INAPPROPRIATE,
      	      	26620	* POSSIBLY RESULTING IN NO LOGICAL RECORDS BEING BUILT.
      	      	26640	* IF SO, WE ABORT THIS PHYSICAL RECORD
04513	001010	26660		JAZ	RMAKE+.
04514	104260	
04515	122433	26680		ADD	=3
04516	004341	26700		LSRA	1
04517	004446	26720		LLRL	6
04520	020643	26740		LDB	W1
04521	110151	26760		ORA	BORO
04522	055000	26780		STA	0,5
PAGE 01  VERS26.VAS  21-MAR-73  09:19:49.766

      	      	26800	* RMAKE IS NOW DONE WITH THIS PHYSICAL RECORD
04523	016447	26820		LDA	CAOS,6
04524	046447	26840		INR	CAOS,6
04525	152433	26860		ANA	=3
04526	005014	26880		TAX
04527	015663	26900		LDA	MASK,5
      	      	26920	* DISABLE INTERRUPTS TO PREVENT INTERFERENCE FROM QII AND QIO
04530	100077	26940		EXC	77
04531	116441	26960		ORA	OSF,6
04532	100377	26980		EXC	377
04533	056441	27000		STA	OSF,6
04534	010216	27020		LDA	TIMEL
04535	056436	27040		STA	TIME1,6
04536	001000	27060		JMP	RMAKE+.
04537	104260	
      	      	27080	* SPECIAL CHARACTER PAIR
      	      	27100	* THE FIRST CHARACTER MAY NOT GO IF THERE IS NOT ROOM
      	      	27120	* FOR THE SECOND TO GO WITH IT. THIS PAIR OF CHARACTERS
      	      	27140	* MUST NOT BE SPLIT UP
      	      	27160	* THE FIRST 2 CHANNELS DO NOT HAVE THESE CHARACTER PAIRS
04540	010655	27180	RM10	LDA	W11
04541	142460	27200		SUB	=2
04542	001004	27220		JAN	RM5
04543	004444	
04544	005041	27240		TXA
04545	142460	27260		SUB	=2
04546	001010	27280		JAZ	RM5
04547	004444	
04550	001002	27300		JAP	RM17
04551	004756	
04552	040653	27320		INR	W9
04553	010653	27340		LDA	W9
04554	001002	27360		JAP	RM11
04555	004601	
04556	040645	27380		INR	W3
04557	010645	27400		LDA	W3
04560	002000	27420		JMPM	RM14
04561	004702	
04562	030650	27440		LDX	W6
04563	002000	27460		JMPM	GCI
04564	005717	
04565	005014	27480		TAX
      	      	27500	* CHECK FOR CIRCUIT GOUGER
04566	004342	27520		LSRA	2
04567	132462	27540		ERA	=12
04570	001010	27560		JAZ	*+4
04571	004574	
04572	001000	27580		JMP	RM5
04573	004444	
04574	017656	27600		LDA	W12,7
04575	110702	27620		ORA	MASK+17
04576	057656	27640		STA	W12,7
04577	001000	27660		JMP	RM5
04600	004444	
PAGE 01  VERS26.VAS  21-MAR-73  09:19:50.300

      	      	27680	* NO ROOM FOR SECOND CHARACTER
      	      	27700	* PUT THE FIRST ONE BACK
04601	030650	27720	RM11	LDX	W6
04602	015000	27740		LDA	BP,5
04603	122437	27760		ADD	=POINT
04604	005012	27780		TAB
04605	016000	27800		LDA	0,6
04606	152472	27820		ANA	=160000
04607	001010	27840		JAZ	RM11B
04610	004622	
04611	016000	27860		LDA	0,6
04612	142473	27880		SUB	=20000
04613	056000	27900		STA	0,6
04614	010651	27920	RM11A	LDA	W7
04615	005311	27940		DAR
04616	050651	27960		STA	W7
04617	045304	27980		INR	BC,5
04620	001000	28000		JMP	RM6
04621	004454	
04622	011012	28020	RM11B	LDA	LFREE
04623	122437	28040		ADD	=POINT
04624	005012	28060		TAB
04625	016000	28080		LDA	0,6
04626	051012	28100		STA	LFREE
04627	015000	28120		LDA	BP,5
04630	002010	28140		JAZM	CRASH
04631	002633	
04632	112472	28160		ORA	=160000
04633	056000	28180		STA	0,6
04634	005021	28200		TBA
04635	142437	28220		SUB	=POINT
04636	055000	28240		STA	BP,5
04637	001000	28260		JMP	RM11A
04640	004614	
      	      	28280	* GO AROUND AGAIN IF ANY BUSINESS LEFT
04641	020643	28300	RM12	LDB	W1
04642	002000	28320		JMPM	RM13
04643	004661	
04644	020646	28340		LDB	W4
04645	005205	28360		COM	,AX
04646	120647	28380		ADD	W5
04647	076175	28400		STX	PCFOB,6
04650	005122	28420		IBR
04651	005311	28440		DAR
04652	001002	28460		JAP	*-3
04653	004647	
04654	010650	28480		LDA	W6
04655	001010	28500		JAZ	RM9
04656	004502	
04657	001000	28520		JMP	RM2
04660	004327	
      	      	28540	* INITIALIZE W4 AND W5
      	      	28560	* ALSO SEE IF THERE ARE ANY POSSIBILITIES FOR BUILDING LOGICAL RECORDS
04661	000000	28580	RM13	0
PAGE 01  VERS26.VAS  21-MAR-73  09:19:50.766

04662	005001	28600		TZA
04663	050650	28620		STA	W6
04664	036136	28640		LDX	GROUPN,6
04665	070647	28660		STX	W5
04666	026143	28680		LDB	GROUPI,6
04667	060646	28700		STB	W4
04670	016166	28720		LDA	CFOB,6
04671	156204	28740		ANA	RSBF,6
04672	110650	28760		ORA	W6
04673	050650	28780		STA	W6
04674	005344	28800		DXR
04675	001040	28820		JXZ	RM13+.
04676	104661	
04677	005122	28840		IBR
04700	001000	28860		JMP	*-10
04701	004670	
      	      	28880	* STORE THE CHARACTER IN THE X BOX AT THE CHARACTER ADDRESS
      	      	28900	* IN THE A BOX   ALSO BUMP W2
04702	000000	28920	RM14	0
04703	040644	28940		INR	W2
04704	005012	28960		TAB
04705	004141	28980		LSRB	1
04706	150663	29000		ANA	MASK
04707	001010	29020		JAZ	*+10
04710	004717	
04711	016000	29040		LDA	0,6
04712	152474	29060		ANA	=177400
04713	005051	29080		COP	AX,A
04714	056000	29100		STA	0,6
04715	001000	29120		JMP	RM14+.
04716	104702	
04717	005041	29140		TXA
04720	004250	29160		LRLA	10
04721	005014	29180		TAX
04722	016000	29200		LDA	0,6
04723	152452	29220		ANA	=377
04724	005051	29240		COP	AX,A
04725	056000	29260		STA	0,6
04726	001000	29280		JMP	RM14+.
04727	104702	
      	      	29300	* SUPERVISORY CHANNEL MAY SEND ONLY MULTIPLE OF 6 CHARACTER RECORDS
04730	060651	29320	RM15	STB	W7
04731	005221	29340		COM	B,A
04732	122467	29360		ADD	=6
04733	001004	29380		JAN	*-1
04734	004732	
04735	142475	29400		SUB	=5
04736	120651	29420		ADD	W7
04737	001010	29440		JAZ	RM9
04740	004502	
04741	005012	29460		TAB
04742	001000	29480		JMP	RM3A
04743	004423	
      	      	29500	* RESTRICTION CHANNEL MAY SEND ONLY FIXED LENGTH RECORD
PAGE 01  VERS26.VAS  21-MAR-73  09:19:51.316

04744	005021	29520	RM16	TBA
04745	030643	29540		LDX	W1
04746	125130	29560		ADD	IOTABS,5
04747	001010	29580		JAZ	*+4
04750	004753	
04751	001000	29600		JMP	RM9
04752	004502	
04753	005104	29620		INC	,X
04754	001000	29640		JMP	RM3A
04755	004423	
      	      	29660	* CIRCUIT ZAPPER
04756	030650	29680	RM17	LDX	W6
04757	002000	29700		JMPM	ZBF
04760	006305	
04761	010653	29720		LDA	W9
04762	005111	29740		IAR
04763	120651	29760		ADD	W7
04764	050651	29780		STA	W7
04765	017656	29800		LDA	W12,7
04766	005202	29820		COM	,B
04767	067656	29840		STB	W12,7
04770	122461	29860		ADD	=BUFERS
04771	150722	29880		ANA	CMSK+17
04772	005014	29900		TAX
04773	002000	29920		JMPM	EMPTY
04774	004164	
04775	040645	29940		INR	W3
04776	010645	29960		LDA	W3
04777	032433	29980		LDX	=3
05000	002000	30000		JMPM	RM14
05001	004702	
05002	001000	30020		JMP	RM6
05003	004454	
      	      	30040	* A POINTER TO A NULL ENTRY HAS BEEN FOUND
      	      	30060	* DEASSIGN ALL BUFFERS WITH SUCH A POINTER
05004	010646	30080	RM18	LDA	W4
05005	122476	30100		ADD	=CFOB-FLAG-1
05006	004244	30120		LRLA	4
05007	110654	30140		ORA	W10
05010	050654	30160		STA	W10
05011	032477	30180		LDX	=BUFERS+NBUF
05012	015304	30200	RM19	LDA	BC,5
05013	140654	30220		SUB	W10
05014	001010	30240		JAZ	RM20
05015	005024	
05016	005145	30260		INC	X,AX
05017	142434	30280		SUB	=BUFERS+NBUF+NBUF
05020	001004	30300		JAN	RM19
05021	005012	
05022	001000	30320		JMP	RM7
05023	004466	
05024	044010	30340	RM20	INR	RMERR
05025	005041	30360		TXA
05026	142500	30380		SUB	=NBUF
PAGE 01  VERS26.VAS  21-MAR-73  09:19:51.950

05027	005014	30400		TAX
05030	002000	30420		JMPM	ZBF
05031	006305	
05032	005024	30440		TBX
05033	001000	30460		JMP	RM19
05034	005012	
05035	000000	30480	RMERR	0
05036	000000	30500	SBOD	0
05037	010217	30520		LDA	RGX
05040	140220	30540		SUB	SBX
05041	004246	30560		LRLA	6
05042	001004	30580		JAN	SB1
05043	005074	
05044	142501	30600		SUB	=56400
05045	001002	30620		JAP	SB1
05046	005074	
05047	010162	30640		LDA	TCW
05050	150567	30660		ANA	TAM
05051	001010	30680		JAZ	SB0
05052	005061	
05053	002000	30700		JMPM	BID
05054	012243	
05055	005042	30720		TXB
05056	012446	30740		LDA	=RING
05057	001000	30760		JMP	TRAN
05060	005470	
05061	010163	30780	SB0	LDA	TCW2
05062	150570	30800		ANA	TAM2
05063	001010	30820		JAZ	SBOD+.
05064	105036	
05065	002000	30840		JMPM	BID
05066	012243	
05067	010667	30860		LDA	MASK+4
05070	005052	30880		COP	AX,B
05071	012502	30900		LDA	=RING+2
05072	001000	30920		JMP	TRAN
05073	005470	
05074	010220	30940	SB1	LDA	SBX
05075	122446	30960		ADD	=RING
05076	005014	30980		TAX
05077	010220	31000		LDA	SBX
05100	120665	31020		ADD	MASK+2
05101	152445	31040		ANA	=1774
05102	050643	31060		STA	W1
05103	122446	31080		ADD	=RING
05104	005012	31100		TAB
05105	010221	31120		LDA	SBA
05106	115000	31140		ORA	0,5
05107	116000	31160		ORA	0,6
05110	005211	31180		5211
05111	001010	31200		JAZ	SB2
05112	005124	
05113	002000	31220		JMPM	BID
05114	012243	
PAGE 01  VERS26.VAS  21-MAR-73  09:19:52.716

05115	015663	31240		LDA	MASK,5
05116	050643	31260		STA	W1
05117	110221	31280		ORA	SBA
05120	050221	31300		STA	SBA
05121	012446	31320		LDA	=RING
05122	001000	31340		JMP	RECEVR
05123	005170	
05124	010222	31360	SB2	LDA	SBA2
05125	115002	31380		ORA	2,5
05126	116002	31400		ORA	2,6
05127	005211	31420		5211
05130	001010	31440		JAZ	SB3
05131	005145	
05132	002000	31460		JMPM	BID
05133	012243	
05134	015663	31480		LDA	MASK,5
05135	050643	31500		STA	W1
05136	110222	31520		ORA	SBA2
05137	050222	31540		STA	SBA2
05140	010667	31560		LDA	MASK+4
05141	005054	31580		COP	AX,X
05142	012502	31600		LDA	=RING+2
05143	001000	31620		JMP	RECEVR
05144	005170	
05145	055000	31640	SB3	STA	0,5
05146	055002	31660		STA	2,5
05147	010643	31680		LDA	W1
05150	050220	31700		STA	SBX
05151	142503	31720		SUB	=44
05152	152445	31740		ANA	=1774
05153	122446	31760		ADD	=RING
05154	005014	31780		TAX
05155	010221	31800		LDA	SBA
05156	135001	31820		ERA	1,5
05157	050221	31840		STA	SBA
05160	010222	31860		LDA	SBA2
05161	135003	31880		ERA	3,5
05162	050222	31900		STA	SBA2
05163	005001	31920		TZA
05164	055001	31940		STA	1,5
05165	055003	31960		STA	3,5
05166	001000	31980		JMP	SBOD+1
05167	005037	
      	      	32000	* RECIEVER TO GET CHARACTERS FROM RING DRIVER
      	      	32020	* W1 MASK
      	      	32040	* W2 PORT NUMBER
      	      	32060	* W3 RING BASE ADDRESS
      	      	32080	* W4 BAUD SIZE
05170	070644	32100	RECEVR	STX	W2
05171	050645	32120		STA	W3
05172	005041	32140		TXA
05173	001010	32160		JAZ	RECI
05174	005433	
05175	005311	32180		DAR
PAGE 01  VERS26.VAS  21-MAR-73  09:19:53.183

05176	001010	32200		JAZ	RECJ
05177	005437	
05200	012504	32220		LDA	=164
05201	022505	32240		LDB	=20
05202	120220	32260	RECA	ADD	SBX
05203	152445	32280		ANA	=1774
05204	120645	32300		ADD	W3
05205	005014	32320		TAX
05206	015001	32340		LDA	1,5
05207	110643	32360		ORA	W1
05210	055001	32380		STA	1,5
05211	060646	32400		STB	W4
05212	005021	32420		TBA
05213	004341	32440		LSRA	1
05214	020674	32460		LDB	MASK+11
05215	120220	32480		ADD	SBX
05216	001000	32500		JMP	RECB+1
05217	005221	
05220	010647	32520	RECB	LDA	W5
05221	120646	32540		ADD	W4
05222	152445	32560		ANA	=1774
05223	050647	32580		STA	W5
05224	120645	32600		ADD	W3
05225	005014	32620		TAX
05226	015000	32640		LDA	0,5
05227	150643	32660		ANA	W1
05230	001010	32680		JAZ	*+3
05231	005233	
05232	005201	32700		COM	,A
05233	004541	32720		LLSR	1
05234	005021	32740		TBA
05235	150663	32760		ANA	MASK
05236	001010	32780		JAZ	RECB
05237	005220	
05240	001100	32800		JSS1	*+5
05241	005245	
05242	005021	32820		TBA
05243	001002	32840		JAP	SB1
05244	005074	
05245	004042	32860		LRLB	2
05246	004151	32880		LSRB	11
05247	060647	32900		STB	W5
05250	010644	32920		LDA	W2
05251	004251	32940		LRLA	11
05252	110672	32960		ORA	MASK+7
05253	002000	32980		JMPM	HSTORE
05254	005443	
05255	014376	33000		LDA	RECTSW
05256	001002	33020		JAP	RECB1
05257	005265	
05260	010644	33040		LDA	W2
05261	112506	33060		ORA	=.
05262	020647	33080		LDB	W5
05263	002000	33100		JMPM	TRACE
PAGE 01  VERS26.VAS  21-MAR-73  09:19:53.816

05264	005656	
05265	010644	33120	RECB1	LDA	W2
05266	005016	33140		COP	A,BX
05267	001010	33160		JAZ	RECG
05270	005417	
05271	005311	33180		DAR
05272	001010	33200		JAZ	RECH
05273	005425	
05274	004144	33220		LSRB	4
05275	010643	33260		LDA	W1
      	      	33380	*
      	      	33400	*  SET UP 'PORT ACTIVE'
05276	116223	33540		ORA	PACTH,6
05277	056223	33560		STA	PACTH,6
05300	116615	33580		ORA	PACT,6
05301	056615	33600		STA	PACT,6
      	      	33640	*
      	      	33660	*  FILTER OUT SPECIAL CHARACTERS.
      	      	33700	* CHECK FOR CONTROL Z, 'REQUEST TO SEND', AND 'CLEAR TO SEND'
05302	010647	33720		LDA	W5	GET CHARACTER
05303	142507	33740		SUB	=32	(CONTROL Z)
05304	001010	33760		JAZ	RECF
05305	005355	
05306	122510	33780		ADD	=32-CTSCHR
05307	001010	33800		JAZ	RECCTS
05310	005335	
05311	122456	33820		ADD	=CTSCHR-RTSCHR
05312	001010	33840		JAZ	RECRTS
05313	005350	
05314	016605	34160		LDA	IGNO,6
05315	150643	34180		ANA	W1
05316	005311	34200		DAR
05317	001002	34220		JAP	SB1
05320	005074	
05321	015751	34240	RECC	LDA	P370,5
05322	001004	34260		JAN	SB1
05323	005074	
05324	045265	34280		INR	OCOUNT,5
05325	122511	34300		ADD	=BUFERS+1
05326	005014	34320		TAX
05327	010647	34340		LDA	W5
05330	110672	34360		ORA	MASK+7
05331	002000	34380		JMPM	WCI
05332	006122	
05333	001000	34400		JMP	SB1
05334	005074	
      	      	34440	*
      	      	34460	* WE GOT A CLEAR TO SEND -  6700 IS NOW IN RECEIVE MODE
05335	016625	34480	RECCTS	LDA	RTSOUT,6	ARE WE EXPECTING A CTS?
05336	150643	34500		ANA	W1
05337	001010	34520		JAZ	SB1
05340	005074	
05341	136625	34540		ERA	RTSOUT,6	YES.	WE DON'T NEED ANYMORE.
05342	056625	34560		STA	RTSOUT,6
PAGE 01  VERS26.VAS  21-MAR-73  09:19:54.533

05343	016623	34580		LDA	CTSFLG,6	RECORD WE GOT ONE
05344	110643	34600		ORA	W1
05345	056623	34620		STA	CTSFLG,6
05346	001000	34640		JMP	SB1
05347	005074	
      	      	34660	*
      	      	34680	* WE GOT A REQUEST TO SEND -  6700 WANTS TO OUTPUT TO USER
05350	016621	34700	RECRTS	LDA	RTSFLG,6
05351	110643	34720		ORA	W1
05352	056621	34740		STA	RTSFLG,6
05353	001000	34760		JMP	SB1
05354	005074	
      	      	34780	*
      	      	35160	* CONTROL Z
05355	016607	35180	RECF	LDA	PASD,6
05356	150643	35200		ANA	W1
05357	001010	35220		JAZ	SB1
05360	005074	
05361	016605	35240		LDA	IGNO,6
05362	110643	35260		ORA	W1
05363	056605	35280		STA	IGNO,6
05364	016611	35300		LDA	NPORT,6
05365	150643	35320		ANA	W1
05366	005311	35340		DAR
05367	001002	35360		JAP	SB1
05370	005074	
05371	016603	35380		LDA	YBT+2,6
05372	110643	35400		ORA	W1
05373	056603	35420		STA	YBT+2,6
05374	116601	35440		ORA	YBT,6
05375	056601	35460		STA	YBT,6
05376	010643	35480		LDA	W1
05377	005211	35500		COM	A,A
05400	156573	35680		ANA	MASD,6
05401	056573	35700		STA	MASD,6
05402	015751	35720		LDA	P370,5
05403	002004	35740		JANM	CRASH
05404	002633	
05405	122511	35760		ADD	=BUFERS+1
05406	005014	35780		TAX
05407	005101	35800		INC	,A
05410	002000	35820		JMPM	WCI
05411	006122	
05412	005201	35840		COM	,A
05413	002000	35860		JMPM	WCI
05414	006122	
05415	001000	35880		JMP	SB1
05416	005074	
      	      	35920	* INPUT TO DEBUGGER
05417	032512	35940	RECG	LDX	=BUFERS+3
05420	010647	35960		LDA	W5
05421	002000	35980		JMPM	WCI
05422	006122	
05423	001000	36000		JMP	SB1
PAGE 01  VERS26.VAS  21-MAR-73  09:19:55.816

05424	005074	
      	      	36020	* INPUT FROM TEST PORT
05425	032513	36040	RECH	LDX	=BUFERS+2
05426	010647	36060		LDA	W5
05427	002000	36080		JMPM	WCI
05430	006122	
05431	001000	36100		JMP	SB1
05432	005074	
      	      	36120	* SET PARAMETERS FOR DEBUGGER TTY
05433	012514	36140	RECI	LDA	=564
05434	022515	36160		LDB	=54
05435	001000	36180		JMP	RECA
05436	005202	
      	      	36200	* SET PARAMETERS FOR TEST PORT
05437	012504	36220	RECJ	LDA	=164
05440	022505	36240		LDB	=20
05441	001000	36260		JMP	RECA
05442	005202	
05443	000000	36820	HSTORE	0
05444	005032	36840		COP	AB,B
05445	150712	36860		ANA	CMSK+7
05446	001010	36880		JAZ	HSTORE+.
05447	105443	
05450	001100	36900		JSS1	*+4
05451	005454	
05452	001000	36920		JMP	HSTORE+.
05453	105443	
05454	144012	36940		SUB	HPORT
05455	001010	36960		JAZ	HS1
05456	005461	
05457	001000	36980		JMP	HSTORE+.
05460	105443	
05461	005021	37000	HS1	TBA
05462	032513	37020		LDX	=BUFERS+2
05463	002000	37040		JMPM	WCI
05464	006122	
05465	001000	37060		JMP	HSTORE+.
05466	105443	
05467	000000	37080	HPORT	0
      	      	37100	* TRANSMITTER TO OUTPUT TO RING DRIVER
      	      	37120	* W1 MASK
      	      	37140	* W2 RING BASE ADDRESS
      	      	37160	* W3 CHARACTER SIZE
      	      	37180	* W4 BAUD SIZE
05470	050644	37200	TRAN	STA	W2
05471	015663	37220		LDA	MASK,5
05472	050643	37240		STA	W1
05473	046325	37260		INR	ICOUNT,6
05474	005024	37280		TBX
05475	004144	37300		LSRB	4
05476	005211	37320		COM	A,A
05477	100077	37340		EXC	77
05500	156567	37360		ANA	TAM,6
05501	100377	37380		EXC	377
PAGE 01  VERS26.VAS  21-MAR-73  09:19:56.516

05502	056567	37400		STA	TAM,6
05503	070647	37420		STX	W5
05504	005341	37440		DEC	X,A
05505	001040	37460		JXZ	TRANE
05506	005642	
05507	001010	37480		JAZ	TRANF
05510	005647	
05511	122516	37500		ADD	=BUFERS+201
05512	022505	37520		LDB	=20
05513	032517	37600		LDX	=240
05514	070645	37640	TRANA	STX	W3
05515	060646	37660		STB	W4
05516	005014	37680		TAX
05517	002000	37700		JMPM	GCI
05520	005717	
05521	050651	37720		STA	W7
05522	152520	37740		ANA	=177
05523	005012	37760		TAB
05524	010647	37780		LDA	W5
05525	004251	37800		LRLA	11
05526	002000	37820		JMPM	HSTORE
05527	005443	
05530	014124	37840		LDA	TRNTSW
05531	001002	37860		JAP	TRANA1
05532	005537	
05533	010647	37880		LDA	W5
05534	020651	37900		LDB	W7
05535	002000	37920		JMPM	TRACE
05536	005656	
05537	010651	37940	TRANA1	LDA	W7
05540	112521	37960		ORA	=600
05541	005012	37980		TAB
05542	005001	38000		TZA
05543	050647	38020		STA	W5
05544	010217	38040		LDA	RGX
05545	050650	38060		STA	W6
05546	122505	38080		ADD	=20
05547	152445	38100		ANA	=1774
05550	120644	38120		ADD	W2
05551	005014	38140		TAX
05552	015000	38160		LDA	0,5
05553	110643	38180		ORA	W1
05554	055000	38200		STA	0,5
05555	010651	38240		LDA	W7
05556	001010	38260		JAZ	TBREAK
05557	005622	
05560	001000	38300		JMP	TRANC+3
05561	005576	
05562	005021	38320	TRANB	TBA
05563	130647	38340		ERA	W5
05564	150663	38360		ANA	MASK
05565	001010	38380		JAZ	TRANC
05566	005573	
05567	060647	38400		STB	W5
PAGE 01  VERS26.VAS  21-MAR-73  09:19:57.033

05570	015000	38420		LDA	0,5
05571	110643	38440		ORA	W1
05572	055000	38460		STA	0,5
05573	004141	38480	TRANC	LSRB	1
05574	001020	38500		JBZ	TRAND
05575	005610	
05576	005041	38520		TXA
05577	120646	38540		ADD	W4
05600	005014	38560		TAX
05601	142437	38580		SUB	=RING+2000
05602	001004	38600		JAN	TRANB
05603	005562	
05604	122446	38620		ADD	=RING
05605	005014	38640		TAX
05606	001000	38660		JMP	TRANB
05607	005562	
05610	010650	38680	TRAND	LDA	W6
05611	120645	38700		ADD	W3
05612	152445	38720		ANA	=1774
05613	120644	38740		ADD	W2
05614	005012	38760		TAB
05615	016001	38780		LDA	1,6
05616	110643	38800		ORA	W1
05617	056001	38820		STA	1,6
05620	001000	38840		JMP	SBOD+.
05621	105036	
05622	005041	38880	TBREAK	TXA
05623	122522	38900		ADD	=480D
05624	005014	38920		TAX
05625	142437	38940		SUB	=RING+2000
05626	001004	38960		JAN	*+4
05627	005632	
05630	122446	38980		ADD	=RING
05631	005014	39000		TAX
05632	015000	39020		LDA	0,5
05633	110643	39040		ORA	W1
05634	055000	39060		STA	0,5
05635	015001	39080		LDA	1,5
05636	110643	39100		ORA	W1
05637	055001	39120		STA	1,5
05640	001000	39140		JMP	SBOD+.
05641	105036	
      	      	39180	* SET UP PARAMETERS FOR DEBUGGER TELETYPE
05642	012513	39200	TRANE	LDA	=BUFERS+2
05643	022515	39220		LDB	=54
05644	032522	39240		LDX	=740
05645	001000	39260		JMP	TRANA
05646	005514	
      	      	39280	* SET UP PARAMETERS FOR TEST PORT
05647	012523	39300	TRANF	LDA	=BUFERS+4
05650	022505	39320		LDB	=20
05651	032517	39400		LDX	=240
05652	001000	39440		JMP	TRANA
05653	005514	
PAGE 01  VERS26.VAS  21-MAR-73  09:19:57.600

      	      	39460	*
      	      	39480	*
05654	000000	39500	RECTSW	0
05655	000000	39520	TRNTSW	0
      	      	39540	*
05656	000000	39560	TRACE	0
05657	030561	39580		LDX	USWICH
05660	001040	39600		JXZ	TRACE+.
05661	105656	
05662	054025	39620		STA	TRACT1
05663	150722	39640		ANA	CMSK+17
05664	144025	39660		SUB	TESTP
05665	001010	39680		JAZ	TRACE1
05666	005671	
05667	001000	39700		JMP	TRACE+.
05670	105656	
05671	005021	39720	TRACE1	TBA
05672	112506	39740		ORA	=.
05673	054015	39760		STA	TRACT2
05674	010100	39780		LDA	MACHNO
05675	112455	39800		ORA	=140000
05676	002000	39820		JMPM	PAIR
05677	011215	
05700	014007	39840		LDA	TRACT1
05701	002000	39860		JMPM	PAIR
05702	011215	
05703	014005	39880		LDA	TRACT2
05704	002000	39900		JMPM	PAIR
05705	011215	
05706	001000	39920		JMP	TRACE+.
05707	105656	
      	      	39940	*
05710	000000	39960	TRACT1	0
05711	000000	39980	TRACT2	0
05712	177777	40000	TESTP	-1
      	      	40020	*
      	      	40040	*
05713	002000	40060	HLTG	JMPM	GCIC	SAVE TYPE OF CRASH
05714	006071	
05715	002000	40080		JMPM	CRASH	GCI HALT	BAD BUFER NUMBER OR EMPTY BUFER
05716	002633	
05717	000000	40100	GCI	0
05720	005041	40120		TXA
05721	142461	40140		SUB	=BUFERS
05722	001004	40160		JAN	HLTG
05723	005713	
05724	142500	40180		SUB	=NBUF
05725	001002	40200		JAP	HLTG
05726	005713	
05727	015304	40220		LDA	BC,5
05730	001010	40240		JAZ	HLTG
05731	005713	
05732	005311	40260		DAR
05733	055304	40280		STA	BC,5
PAGE 01  VERS26.VAS  21-MAR-73  09:19:58.133

05734	001010	40300		JAZ	GCI1
05735	006014	
05736	015000	40320		LDA	BP,5
05737	122437	40340		ADD	=POINT
05740	005012	40360		TAB
05741	016000	40380		LDA	0,6
05742	004242	40400		LRLA	2
05743	054333	40420		STA	PW1
05744	152433	40440		ANA	=3
05745	054332	40460		STA	PW2
05746	015000	40480		LDA	BP,5
05747	004242	40500		LRLA	2
05750	122473	40520		ADD	=BUF
05751	124326	40540		ADD	PW2
05752	005012	40560		TAB
05753	014323	40580		LDA	PW1
05754	001002	40600		JAP	*+6
05755	005762	
05756	016000	40620		LDA	0,6
05757	152452	40640		ANA	=377
05760	001000	40660		JMP	*+4
05761	005764	
05762	016000	40680		LDA	0,6
05763	004350	40700		LSRA	10
05764	054312	40720		STA	PW1
05765	015000	40740		LDA	BP,5
05766	122437	40760		ADD	=POINT
05767	005012	40780		TAB
05770	016000	40800		LDA	0,6
05771	122473	40820		ADD	=20000
05772	056000	40840		STA	0,6
05773	152472	40860		ANA	=160000
05774	001010	40880		JAZ	*+5
05775	006001	
05776	014300	40900		LDA	PW1
05777	001000	40920		JMP	GCI+.
06000	105717	
06001	016000	40940		LDA	0,6
06002	152436	40960		ANA	=1777
06003	055000	40980		STA	BP,5
06004	011012	41000		LDA	LFREE
06005	056000	41020		STA	0,6
06006	005021	41040		TBA
06007	142437	41060		SUB	=POINT
06010	051012	41080		STA	LFREE
06011	014265	41100		LDA	PW1
06012	001000	41120		JMP	GCI+.
06013	105717	
06014	074262	41140	GCI1	STX	PW1
06015	015610	41160		LDA	BF,5
06016	005012	41180		TAB
06017	004144	41200		LSRB	4
06020	152524	41220		ANA	=17
06021	005014	41240		TAX
PAGE 01  VERS26.VAS  21-MAR-73  09:19:58.816

06022	016161	41260		LDA	FLAG,6
06023	155703	41280		ANA	CMSK,5
06024	056161	41300		STA	FLAG,6
06025	034251	41320		LDX	PW1
06026	015000	41340		LDA	BP,5
06027	122437	41360		ADD	=POINT
06030	005012	41380		TAB
06031	016000	41400		LDA	0,6
06032	004242	41420		LRLA	2
06033	054243	41440		STA	PW1
06034	152433	41460		ANA	=3
06035	054242	41480		STA	PW2
06036	015000	41500		LDA	BP,5
06037	004242	41520		LRLA	2
06040	124237	41540		ADD	PW2
06041	122473	41560		ADD	=BUF
06042	005012	41580		TAB
06043	014233	41600		LDA	PW1
06044	001002	41620		JAP	*+6
06045	006052	
06046	016000	41640		LDA	0,6
06047	152452	41660		ANA	=377
06050	001000	41680		JMP	*+4
06051	006054	
06052	016000	41700		LDA	0,6
06053	004350	41720		LSRA	10
06054	054222	41740		STA	PW1
06055	015000	41760		LDA	BP,5
06056	122437	41780		ADD	=POINT
06057	005012	41800		TAB
06060	011012	41820		LDA	LFREE
06061	056000	41840		STA	0,6
06062	015000	41860		LDA	BP,5
06063	051012	41880		STA	LFREE
06064	005001	41900		TZA
06065	055000	41920		STA	BP,5
06066	014210	41940		LDA	PW1
06067	001000	41960		JMP	GCI+.
06070	105717	
      	      	41980	*
      	      	42000	* SAVE BUFFER NUMBER AND CURRENT BUFFER ZAP COUNT ON GCI & WCI CRASHES
06071	000000	42020	GCIC	0
06072	010104	42040		LDA	CRSHCT	SAVE RELATIVE TO THE CRASH SAVE
06073	152433	42060		ANA	=3
06074	122525	42080		ADD	=GCITAB
06075	005012	42100		TAB
06076	076000	42120		STX	0,6
06077	014203	42140		LDA	PW11
06100	056004	42160		STA	4,6
06101	001000	42180		JMP	GCIC+.
06102	106071	
06103	      	42200	GCITAB	R	*+10
      	      	42220	*
06113	005111	42240	HLTWT	IAR
PAGE 01  VERS26.VAS  21-MAR-73  09:19:59.600

06114	001010	42260		JAZ	WCI+.
06115	106122	
06116	002000	42280	HLTW	JMPM	GCIC	SAVE TYPE OF CRASH
06117	006071	
06120	002000	42300		JMPM	CRASH	WCI HALT	BAD BUFER NUMBER
06121	002633	
06122	000000	42320	WCI	0
06123	152452	42340		ANA	=377
06124	054152	42360		STA	PW1
06125	005041	42380		TXA
06126	142461	42400		SUB	=BUFERS
06127	001004	42420		JAN	HLTWT
06130	006113	
06131	142500	42440		SUB	=NBUF
06132	001002	42460		JAP	HLTW
06133	006116	
06134	074143	42480		STX PW2
06135	011012	42500		LDA	LFREE
06136	001010	42520		JAZ	WCI8
06137	006253	
06140	015304	42540	WCI1	LDA	BC,5
06141	001010	42560		JAZ	WCI6
06142	006222	
06143	045304	42580		INR	BC,5
06144	005041	42600		TXA; ADD =NBUF; TAX
06145	122500	
06146	005014	
06147	015610	42620		LDA BF,5; JAZM CRASH; ADD =POINT; TAB
06150	002010	
06151	002633	
06152	122437	
06153	005012	
06154	016000	42640		LDA	0,6
06155	152526	42660		ANA	=16000
06156	142526	42680		SUB	=16000
06157	001010	42700		JAZ	WCI5
06160	006214	
06161	016000	42720		LDA	0,6
06162	122527	42740		ADD	=2000
06163	034114	42760	WCI3	LDX PW2
06164	056000	42780		STA	0,6
06165	054112	42800		STA	PW2
06166	004353	42820		LSRA	13
06167	152433	42840		ANA	=3
06170	054110	42860		STA	PW3
06171	005021	42880		TBA
06172	004242	42900		LRLA	2
06173	122530	42920		ADD	=BUF-POINT-POINT-POINT-POINT
06174	124104	42940		ADD	PW3
06175	005012	42960		TAB
06176	014101	42980		LDA	PW2
06177	150675	43000		ANA	MASK+12
06200	001010	43020		JAZ	WCI4
06201	006207	
PAGE 01  VERS26.VAS  21-MAR-73  09:20:00.200

06202	014074	43040		LDA	PW1
06203	116000	43060		ORA	0,6
06204	056000	43080		STA	0,6
06205	001000	43100		JMP	WCI+.
06206	106122	
06207	014067	43120	WCI4	LDA	PW1
06210	004250	43140		LRLA	10
06211	056000	43160		STA	0,6
06212	001000	43180		JMP	WCI+.
06213	106122	
06214	016000	43200	WCI5	LDA	0,6
06215	111012	43220		ORA	LFREE
06216	056000	43240		STA	0,6
06217	011012	43260		LDA	LFREE
06220	001000	43280		JMP	WCI7
06221	006243	
06222	015610	43300	WCI6	LDA	BF,5
06223	001010	43320		JAZ	WCI+.
06224	106122	
06225	045304	43340		INR	BC,5
06226	005012	43360		TAB
06227	004144	43380		LSRB	4
06230	152524	43400		ANA	=17
06231	005014	43420		TAX
06232	016161	43440		LDA	FLAG,6
06233	115663	43460		ORA	MASK,5
06234	056161	43480		STA	FLAG,6
06235	014042	43500		LDA PW2; TAB; ADD =NBUF; TAX
06236	005012	
06237	122500	
06240	005014	
06241	011012	43520		LDA LFREE; STA BP,6
06242	056000	
06243	055610	43540	WCI7	STA BF,5; ADD =POINT
06244	122437	
06245	005012	43560		TAB
06246	016000	43580		LDA	0,6
06247	051012	43600		STA	LFREE
06250	005001	43620		TZA
06251	001000	43640		JMP	WCI3
06252	006163	
06253	032461	43660	WCI8	LDX	=BUFERS
06254	054024	43680		STA	PW3
06255	015304	43700		LDA	BC,5
06256	144022	43720		SUB	PW3
06257	001004	43740		JAN	*+5
06260	006264	
06261	015304	43760		LDA	BC,5
06262	054016	43780		STA	PW3
06263	074020	43800		STX	PW12
06264	005145	43820		INC	X,AX
06265	142477	43840		SUB	=BUFERS+NBUF
06266	001004	43860		JAN	*-11
06267	006255	
PAGE 01  VERS26.VAS  21-MAR-73  09:20:00.850

06270	034013	43880		LDX	PW12
06271	002000	43900		JMPM	EMPTY
06272	004164	
06273	034004	43920		LDX	PW2
06274	044006	43940		INR	PW11
06275	001000	43960		JMP	WCI1
06276	006140	
06277	000000	43980	PW1	0
06300	000000	44000	PW2	0
06301	000000	44020	PW3	0
06302	000000	44040	PW4	0
06303	000000	44060	PW11	0
06304	000000	44080	PW12	0
06305	000000	44100	ZBF	0
06306	002000	44120		JMPM	EMPTY
06307	004164	
06310	005001	44140		TZA
06311	055610	44160		STA	BF,5
06312	001000	44180		JMP	ZBF+.
06313	106305	
06314	044041	44200	IFIX	INR IFIXE1; STX W5; LDA BF,5; STA W6; LDX =BUFERS
06315	070647	
06316	015610	
06317	050650	
06320	032461	
06321	015610	44220	IFIX1	LDA BF,5; SUB W6; JAZ IFIX3
06322	140650	
06323	001010	
06324	006340	
06325	005145	44240	IFIX2	INC X,AX; SUB =BUFERS+NBUF; JAN IFIX1
06326	142477	
06327	001004	
06330	006321	
06331	030645	44260		LDX W3; LDB W4; LDA IFT,6; ANA CMSK,5; STA IFT,6; JMP SECLP
06332	020646	
06333	016164	
06334	155703	
06335	056164	
06336	001000	
06337	006362	
06340	005041	44280	IFIX3	TXA; SUB W5; JAZ IFIX2; INR IFIXE2; STX IFIXE3
06341	140647	
06342	001010	
06343	006325	
06344	044012	
06345	074012	
06346	002000	44300		JMPM EMPTY; TXA; SUB =BUFERS; JMPM ZAP; JMP SECLP
06347	004164	
06350	005041	
06351	142461	
06352	002000	
06353	010311	
06354	001000	
06355	006362	
PAGE 01  VERS26.VAS  21-MAR-73  09:20:01.433

06356	000000	44320	IFIXE1	0
06357	000000	44340	IFIXE2	0
06360	000000	44360	IFIXE3	0
06361	000000	44380	SEC	0
      	      	44400	* INPUT FROM TERMINAL
06362	002000	44420	SECLP	JMPM	SBOD
06363	005036	
06364	005102	44440	SECLP1	INC	,B
      	006365	44460	INPUT	E	*
06365	016573	44500		LDA	MASD,6
06366	005211	44520		COM	A,A
06367	156164	44540		ANA	IFT,6
06370	001010	44620		JAZ	INPUT6
06371	006722	
06372	002000	44640		JMPM	BID
06373	012243	
06374	070645	44660		STX	W3
06375	060646	44680		STB	W4
06376	004044	44700		LRLB	4
06377	005062	44720		COP	BX,B
06400	060643	44740		STB	W1
06401	016751	44760		LDA	P370,6
06402	002004	44780		JANM	CRASH
06403	002633	
06404	122461	44800		ADD	=BUFERS
06405	005014	44820		TAX
06406	015304	44840		LDA BC,5; JAZ IFIX
06407	001010	
06410	006314	
06411	002000	44860		JMPM	GCI
06412	005717	
06413	050644	44880		STA	W2
06414	152531	44900		ANA	=370
06415	001010	44920		JAZ	INPUT5
06416	006566	
      	      	44940	*
      	      	44960	* FILTER SPECIAL CHARACTERS FROM USER -  EG CONTROL Z
      	006417	44980	INPUT1	E	*
      	      	45020	*      FOR DRI -  CONTROL Z, 'REQUEST TO SEND', AND 'CLEAR TO SEND'
06417	010644	45040		LDA	W2	GET CHARACTER
06420	152520	45060		ANA	=177
06421	001010	45080		JAZ	INPT1	NULL TRANSLATES TO BREAK
06422	006526	
06423	142507	45100		SUB	=32	(CONTROL Z)
06424	001010	45120		JAZ	SECLP
06425	006362	
06426	122532	45140		ADD	=32-RTSCHR
06427	001010	45160		JAZ	SECLP
06430	006362	
06431	122533	45180		ADD	=RTSCHR-CTSCHR
06432	001010	45200		JAZ	SECLP
06433	006362	
      	      	45240	*  SKIP CHAR CONVERSIONS ON FIRST 4 CHARS OF NEW LOGIN MSG FROM SUP
06434	020646	45260		LDB	W4	GROUP NUM
PAGE 01  VERS26.VAS  21-MAR-73  09:20:01.966

06435	030645	45280		LDX	W3	BIT POSIT
06436	016611	45300		LDA	NPORT,6	1 = NEW PORT
06437	155663	45320		ANA	MASK,5
06440	001010	45340		JAZ	INPUTC	NO - DO CONVERSION
06441	006452	
06442	020643	45360		LDB	W1	SET UP DESTINATION BUFFER PTR
06443	016751	45380		LDA	P370,6
06444	122534	45400		ADD	=BUFERS+240	MSG ASSEMBLY BUFFER
06445	005014	45420		TAX
06446	012433	45440		LDA	=3	SKIP FIRST 4 CHARS
06447	145304	45460		SUB	BC,5	CHAR CNT IN DEST BUF
06450	001004	45480		JAN	INPUTS	LT 5 CHAR = SKIP CONVERT
06451	006465	
      	006452	45500	INPUTC	E	*
06452	010644	45900		LDA	W2
06453	005311	45920		DAR
06454	152520	45940		ANA	=177
06455	142535	45960		SUB	=172
06456	001002	45980		JAP	SECLP
06457	006362	
06460	122536	46000		ADD	=33
06461	001004	46040		JAN	*+4
06462	006465	
06463	122537	46060		ADD	=300
06464	050644	46080		STA	W2
      	006465	46100	INPUTS	E	*
06465	010643	46260		LDA	W1
06466	122534	46280		ADD	=BUFERS+240
06467	005014	46300		TAX
06470	070647	46320		STX	W5	POINTER TO MSG ASSEMBLY BUFFER
06471	010644	46340		LDA	W2
06472	002000	46360		JMPM	WCI
06473	006122	
06474	010644	46380		LDA	W2
06475	152520	46400		ANA	=177
06476	142540	46420		SUB	=15
06477	001010	46440		JAZ	INPUT3
06500	006517	
06501	030645	46460		LDX	W3
06502	020646	46480		LDB	W4
06503	016611	46500		LDA	NPORT,6
06504	155663	46520		ANA	MASK,5
06505	001010	46600		JAZ	INPUT4
06506	006561	
06507	030647	46640		LDX	W5
06510	015304	46660		LDA	BC,5
06511	142541	46680		SUB	=34
06512	001004	46700	INPUT2	JAN	SECLP
06513	006362	
06514	012540	46720		LDA	=15
06515	002000	46740		JMPM	WCI
06516	006122	
06517	030645	46760	INPUT3	LDX	W3
06520	020646	46780		LDB	W4
PAGE 01  VERS26.VAS  21-MAR-73  09:20:02.566

06521	016573	46900		LDA	MASD,6
06522	115663	46920		ORA	MASK,5
06523	056573	46940		STA	MASD,6
06524	001000	46960		JMP	SECLP1
06525	006364	
06526	030645	47000	INPT1	LDX	W3	BIT POSIT
06527	020646	47001		LDB	W4	GROUP
06530	016627	47002		LDA	BRKFLG,6	1=BREAK RECEIVED
06531	115663	47003		ORA	MASK,5
06532	056627	47004		STA	BRKFLG,6
06533	016605	47005		LDA	IGNO,6	1=IGNORE OUTPUT FROM 6700
06534	115663	47006		ORA	MASK,5
06535	056605	47007		STA	IGNO,6
06536	030643	47100		LDX	W1
06537	015751	47120		LDA	P370,5
06540	002004	47140		JANM	CRASH
06541	002633	
06542	122511	47160		ADD	=BUFERS+1
06543	005014	47180		TAX
06544	002000	47200		JMPM	RT8
06545	004134	
06546	012460	47220		LDA	=2
06547	002000	47240		JMPM	WCI
06550	006122	
06551	005101	47260		INC	,A
06552	002000	47280		JMPM	WCI
06553	006122	
06554	012542	47300		LDA	=13
06555	002000	47320		JMPM	WCI
06556	006122	
06557	001000	47340		JMP	SECLP
06560	006362	
06561	030647	47400	INPUT4	LDX	W5
06562	015304	47420		LDA	BC,5
06563	142543	47440		SUB	=200
06564	001000	47460		JMP	INPUT2
06565	006512	
      	      	47500	* SPECIAL TYMNET CHARACTER
06566	010644	47520	INPUT5	LDA	W2
06567	122544	47540		ADD	=INPUTT+.
06570	054001	47560		STA	*+2
06571	001000	47580		JMP	*
06572	006571	
06573	006603	47600	INPUTT	+INP0; +INP1; +SECLP
06574	006610	
06575	006362	
06576	006645	47680		+INP3
06577	006362	47720		+SECLP
06600	006661	47740		+INP5; +INP6; +SECLP
06601	006661	
06602	006362	
      	      	47760	* ESCAPE CHARACTER
06603	002000	47780	INP0	JMPM	GCI
06604	005717	
PAGE 01  VERS26.VAS  21-MAR-73  09:20:03.383

06605	050644	47800		STA	W2
06606	001000	47820		JMP	INPUT1
06607	006417	
      	      	47840	* PREFIX CHARACTER   CHECK FOR YELLOW BALL
06610	002000	47860	INP1	JMPM	GCI
06611	005717	
06612	110663	47880		ORA	MASK
06613	142452	47900		SUB	=377
06614	001010	47920		JAZ	*+4
06615	006620	
06616	001000	47940		JMP	SECLP
06617	006362	
06620	030645	47960		LDX	W3
06621	020646	47980		LDB	W4
06622	016601	48000		LDA	YBT,6
06623	155663	48020		ANA	MASK,5
06624	001010	48040		JAZ	INP1B
06625	006634	
06626	005101	48060	INP1A	INC	,A
06627	020643	48080		LDB	W1
06630	002000	48100		JMPM	DONE
06631	007344	
06632	001000	48120		JMP	SECLP1
06633	006364	
06634	011011	48140	INP1B	LDA	ZAPP
06635	001010	48160		JAZ	SECLP
06636	006362	
06637	005002	48180		TZB
06640	061011	48200		STB	ZAPP
06641	002000	48220		JMPM	ZAP
06642	010311	
06643	001000	48240		JMP	SECLP
06644	006362	
      	      	48280	* CIRCUIT ZAPPER
06645	030645	48300	INP3	LDX	W3
06646	020646	48320		LDB	W4
06647	016601	48340		LDA	YBT,6
06650	155663	48360		ANA	MASK,5
06651	005311	48380		DAR
06652	001002	48400		JAP	INP1A
06653	006626	
06654	016613	48420		LDA	CEXZ,6
06655	115663	48440		ORA	MASK,5
06656	056613	48460		STA	CEXZ,6
06657	001000	48480		JMP	SECLP1
06660	006364	
      	      	48520	* GREEN BALL
      	006661	48540	INP5	E	*
      	      	48940	* RED BALL (OR ECHOED GREEN BALL)
      	006661	48960	INP6	E	*
06661	020643	49120		LDB	W1
06662	016751	49140		LDA	P370,6
06663	002004	49160		JANM	CRASH
06664	002633	
PAGE 01  VERS26.VAS  21-MAR-73  09:20:04.133

06665	122511	49180		ADD	=BUFERS+1
06666	005014	49200		TAX
06667	010644	49220		LDA	W2
06670	002000	49240		JMPM	WCI
06671	006122	
06672	001000	49260		JMP	SECLP
06673	006362	
06674	010426	49280	BUCK1	LDA	ACSTAT
06675	005111	49300		IAR
06676	004341	49320		LSRA	1
06677	005311	49340		DAR
06700	001010	49360		JAZ	DEB
06701	006777	
06702	012506	49380		LDA	=100000
06703	050645	49400		STA	W3
06704	010430	49420		LDA	APORT
06705	050646	49440		STA	W4
06706	012545	49460		LDA	=30000
06707	002000	49480		JMPM	LEPSEN
06710	010467	
06711	005001	49500		TZA
06712	050430	49520		STA	APORT
06713	050426	49540		STA	ACSTAT
06714	001000	49560		JMP	DEB
06715	006777	
06716	002000	49580	BUCK2	JMPM	GCI
06717	005717	
06720	001000	49600		JMP	BUCKET
06721	006732	
06722	005323	49620	INPUT6	DEC	B,AB
06723	001002	49640		JAP	INPUT
06724	006365	
06725	010430	49660		LDA	APORT
06726	001010	49680		JAZ	DEB
06727	006777	
06730	122461	49700		ADD	=BUFERS
06731	005014	49720		TAX
06732	015304	49740	BUCKET	LDA	BC,5
06733	001010	49760		JAZ	DEB
06734	006777	
06735	002000	49780		JMPM	GCI
06736	005717	
06737	142460	49800		SUB	=2
06740	001004	49820		JAN	BUCK2
06741	006716	
06742	005311	49840		DAR
06743	001010	49860		JAZ	BUCK1
06744	006674	
06745	142543	49880		SUB	=200
06746	001010	49900		JAZ	*+4
06747	006752	
06750	001000	49920		JMP	BUCKET
06751	006732	
06752	010426	49940		LDA	ACSTAT
PAGE 01  VERS26.VAS  21-MAR-73  09:20:04.533

06753	142433	49960		SUB	=3
06754	001010	49980		JAZ	*+6
06755	006762	
06756	002000	50000		JMPM	ACOPY
06757	012026	
06760	001000	50020		JMP	DEB
06761	006777	
06762	032511	50040		LDX	=BUFERS+1
06763	002000	50060		JMPM	EMPTY
06764	004164	
06765	005201	50080		COM	,A
06766	050426	50100		STA	ACSTAT
06767	040431	50120		INR	CCOUNT
06770	010431	50140		LDA	CCOUNT
06771	152524	50160		ANA	=17
06772	001010	50180		JAZ	*+4
06773	006776	
06774	001000	50200		JMP	*+3
06775	006777	
06776	050432	50220		STA	ANAME
      	      	50240	*      DEBUGGER
06777	002000	50260	DEB	JMPM	SBOD
07000	005036	
07001	011322	50280		LDA	BC+BUFERS+3
07002	001010	50300		JAZ	RBD1-2
07003	007250	
07004	032512	50320		LDX	=BUFERS+3
07005	002000	50340		JMPM	GCI
07006	005717	
07007	152520	50360		ANA	=177
07010	050643	50380		STA	W1
07011	142546	50400		SUB	=10
07012	001010	50420		JAZ	DEB8
07013	007135	
07014	005311	50440		DAR
07015	001010	50460		JAZ	DEB9
07016	007142	
07017	001000	50480	DEBMOD	JMP	DEB1
07020	007021	
      	      	50500	*      ADDRESS MODE
07021	142547	50520	DEB1	SUB	=47
07022	001004	50540		JAN	DEB2
07023	007035	
07024	142546	50560		SUB	=10
07025	001002	50580		JAP	DEB2
07026	007035	
07027	004543	50600		LLSR	3
07030	014214	50620		LDA	DEBA
07031	004443	50640		LLRL	3
07032	054212	50660		STA	DEBA
07033	001000	50680		JMP	DEB
07034	006777	
07035	014207	50700	DEB2	LDA	DEBA
07036	002000	50720		JMPM	DEBP
PAGE 01  VERS26.VAS  21-MAR-73  09:20:05.033

07037	007171	
07040	012466	50740		LDA	=40
07041	002000	50760		JMPM	WCI
07042	006122	
07043	024201	50780		LDB	DEBA
07044	016000	50800		LDA	0,6
07045	002000	50820		JMPM	DEBP
07046	007171	
07047	012550	50840		LDA	=DEB3
07050	057660	50860		STA	DEBMOD+1
07051	001000	50880		JMP	DEB
07052	006777	
      	      	50900	*      WAITING FOR DATA
07053	142547	50920	DEB3	SUB	=47
07054	001004	50940		JAN	DEB4
07055	007067	
07056	142546	50960		SUB	=10
07057	001002	50980		JAP	DEB4
07060	007067	
07061	122546	51000		ADD	=10
07062	054163	51020		STA	DEBB
07063	012551	51040		LDA	=DEB6
07064	057660	51060		STA	DEBMOD+1
07065	001000	51080		JMP	DEB
07066	006777	
07067	002000	51100	DEB4	JMPM	DEBCR
07070	007215	
07071	010643	51120		LDA	W1
07072	142466	51140		SUB	=40
07073	001010	51160		JAZ	DEB5
07074	007103	
07075	012552	51180		LDA	=DEB1
07076	057660	51200		STA	DEBMOD+1
07077	005001	51220		TZA
07100	054144	51240		STA	DEBA
07101	001000	51260		JMP	DEB
07102	006777	
07103	044141	51280	DEB5	INR	DEBA
07104	001000	51300		JMP	DEB2
07105	007035	
      	      	51320	*      ASSEMBLING DATA
07106	142547	51340	DEB6	SUB	=47
07107	001004	51360		JAN	DEB7
07110	007122	
07111	142546	51380		SUB	=10
07112	001002	51400		JAP	DEB7
07113	007122	
07114	004543	51420		LLSR	3
07115	014130	51440		LDA	DEBB
07116	004443	51460		LLRL	3
07117	054126	51480		STA	DEBB
07120	001000	51500		JMP	DEB
07121	006777	
07122	032513	51520	DEB7	LDX	=BUFERS+2
PAGE 01  VERS26.VAS  21-MAR-73  09:20:05.483

07123	012466	51540		LDA	=40
07124	002000	51560		JMPM	WCI
07125	006122	
07126	014117	51580		LDA	DEBB
07127	024115	51600		LDB	DEBA
07130	056000	51620		STA	0,6
07131	002000	51640		JMPM	DEBP
07132	007171	
07133	001000	51660		JMP	DEB4
07134	007067	
      	      	51680	*      CONTROL H
07135	054107	51700	DEB8	STA	DEBA
07136	012552	51720		LDA	=DEB1
07137	057660	51740		STA	DEBMOD+1
07140	001000	51760		JMP	DEB
07141	006777	
      	      	51780	*      CONTROL I
07142	012553	51800	DEB9	LDA	=DEB10
07143	057660	51820		STA	DEBMOD+1
07144	001000	51840		JMP	DEB
07145	006777	
      	      	51860	*      PASSTHROUGH MODE
07146	032513	51880	DEB10	LDX	=BUFERS+2
07147	010643	51900		LDA	W1
07150	142540	51920		SUB	=15
07151	001010	51940		JAZ	DEB12
07152	007165	
07153	010643	51960		LDA	W1
07154	002000	51980		JMPM	WCI
07155	006122	
07156	032523	52000	DEB11	LDX	=BUFERS+4
07157	010643	52020		LDA	W1
07160	110672	52040		ORA	MASK+7
07161	002000	52060		JMPM	WCI
07162	006122	
07163	001000	52080		JMP	DEB
07164	006777	
07165	002000	52100	DEB12	JMPM	DEBCR
07166	007215	
07167	001000	52120		JMP	DEB11
07170	007156	
      	      	52140	*      PRINT 16 BIT NUMBER
07171	000000	52160	DEBP	0
07172	004241	52180		LRLA	1
07173	050644	52200		STA	W2
07174	022554	52220		LDB	=-5
07175	060645	52240		STB	W3
07176	032513	52260		LDX	=BUFERS+2
07177	150663	52280		ANA	MASK
07200	122555	52300	DEBP1	ADD	=60
07201	002000	52320		JMPM	WCI
07202	006122	
07203	010645	52340		LDA	W3
07204	040645	52360		INR	W3
PAGE 01  VERS26.VAS  21-MAR-73  09:20:05.916

07205	001002	52380		JAP	DEBP+.
07206	107171	
07207	005001	52400		TZA
07210	020644	52420		LDB	W2
07211	004443	52440		LLRL	3
07212	060644	52460		STB	W2
07213	001000	52480		JMP	DEBP1
07214	007200	
      	      	52500	*      OUTPUT CARRIAGE RETURN, DELAY, LINE FEED
07215	000000	52520	DEBCR	0
07216	032513	52540		LDX	=BUFERS+2
07217	012556	52560		LDA	=215
07220	002000	52580		JMPM	WCI
07221	006122	
07222	002000	52600		JMPM	TDELY
07223	007231	
07224	012557	52620		LDA	=212
07225	002000	52640		JMPM	WCI
07226	006122	
07227	001000	52660		JMP	DEBCR+.
07230	107215	
      	      	52680	*      OUTPUT VARIABLE DELAY IN THE FORM OF RUBOUTS
07231	000000	52700	TDELY	0
07232	014014	52720		LDA	TDELAY
07233	050645	52740		STA	W3
07234	010645	52760	TDELY1	LDA	W3
07235	040645	52780		INR	W3
07236	001002	52800		JAP	TDELY+.
07237	107231	
07240	005201	52820		COM	,A
07241	002000	52840		JMPM	WCI
07242	006122	
07243	001000	52860		JMP	TDELY1
07244	007234	
07245	000000	52880	DEBA	0
07246	000000	52900	DEBB	0
07247	000000	52920	TDELAY	0
      	      	52940	* RESTRICTED BUFFER DESTINATION
      	      	52960	* FOR EACH ONE BIT, RESET RESTRICTED BUFFER COUNT
      	      	52980	* ALSO SET ALL RESTRICTED BUFFER FLAGS
07250	012456	53000		LDA	=NLINES
07251	050643	53020		STA	W1
07252	020643	53040	RBD1	LDB	W1
07253	001020	53060		JBZ	LEP
07254	007610	
07255	005322	53080		DBR
07256	060643	53100		STB	W1
07257	036122	53120		LDX	IOTA,6
07260	015001	53140		LDA	1,5
07261	150722	53160		ANA	CMSK+17
07262	122461	53180		ADD	=BUFERS
07263	005014	53200		TAX
07264	015304	53220		LDA	BC,5
07265	001010	53240		JAZ	RBD1
PAGE 01  VERS26.VAS  21-MAR-73  09:20:06.900

07266	007252	
07267	070644	53260		STX	W2
07270	016122	53280		LDA	IOTA,6
07271	050645	53300		STA	W3
07272	016130	53320		LDA	IOTABS,6
07273	050646	53340		STA	W4
07274	036143	53360		LDX	GROUPI,6
07275	016136	53380		LDA	GROUPN,6
07276	005311	53400		DAR
07277	005202	53420		COM	,B
07300	065204	53440		STB	RSBF,5
07301	005144	53460		IXR
07302	005311	53480		DAR
07303	001002	53500		JAP	*-3
07304	007300	
07305	030644	53520	RBD3	LDX	W2
07306	002000	53540		JMPM	GCI
07307	005717	
07310	004550	53560		LLSR	10
07311	010645	53580		LDA	W3
07312	005014	53600		TAX
07313	122546	53620		ADD	=10
07314	050647	53640		STA	W5
07315	005021	53660	RBD4	TBA
07316	001002	53680		JAP	RBD5
07317	007330	
07320	015000	53700		LDA	0,5
07321	001002	53720		JAP	*+5
07322	007326	
07323	012543	53740		LDA	=200
07324	001000	53760		JMP	*+3
07325	007327	
07326	012466	53780		LDA	=40
07327	055060	53800		STA	BR-IOTAB0,5
07330	004041	53820	RBD5	LRLB	1
07331	005145	53840		INC	X,AX
07332	140647	53860		SUB	W5
07333	001004	53880		JAN	RBD4
07334	007315	
07335	070645	53900		STX	W3
07336	040646	53920		INR	W4
07337	010646	53940		LDA	W4
07340	001004	53960		JAN	RBD3
07341	007305	
07342	001000	53980		JMP	RBD1
07343	007252	
07344	000000	54000	DONE	0
07345	002000	54020		JMPM	ACONTR
07346	007462	
07347	020657	54040		LDB	W13
07350	016751	54060		LDA	P370,6
07351	002004	54080		JANM	CRASH
07352	002633	
07353	122461	54100		ADD	=BUFERS
PAGE 01  VERS26.VAS  21-MAR-73  09:20:07.466

07354	005014	54120		TAX
07355	002000	54140		JMPM	EMPTY
07356	004164	
07357	012524	54160		LDA	=17
07360	055610	54180		STA	BF,5
07361	010657	54200		LDA	W13
07362	122560	54220		ADD	=BUFERS+20
07363	005014	54240		TAX
07364	002000	54260		JMPM	EMPTY
07365	004164	
07366	010657	54280		LDA	W13
07367	122534	54300		ADD	=BUFERS+240
07370	005014	54320		TAX
07371	002000	54340		JMPM	EMPTY
07372	004164	
07373	020657	54360		LDB	W13
07374	016751	54380		LDA	P370,6
07375	122511	54400		ADD	=BUFERS+1
07376	005014	54420		TAX
07377	002000	54440		JMPM	RT8
07400	004134	
07401	012433	54460		LDA	=3
07402	002000	54480		JMPM	WCI
07403	006122	
07404	010657	54500		LDA	W13
07405	002000	54520		JMPM	BITADD
07406	012233	
07407	116747	54560		ORA	CTS+2,6
07410	056747	54580		STA	CTS+2,6
07411	116745	54600		ORA	CTS,6
07412	056745	54620		STA	CTS,6
07413	016621	54640		LDA	RTSFLG,6
07414	155703	54660		ANA	CMSK,5
07415	056621	54680		STA	RTSFLG,6
07416	016623	54700		LDA	CTSFLG,6
07417	155703	54720		ANA	CMSK,5
07420	056623	54740		STA	CTSFLG,6
07421	016625	54760		LDA	RTSOUT,6
07422	155703	54780		ANA	CMSK,5
07423	056625	54800		STA	RTSOUT,6
07424	016627	54801		LDA	BRKFLG,6
07425	156703	54802		ANA	CMSK,6
07426	056627	54803		STA	BRKFLG,6
07427	015703	54980		LDA	CMSK,5
07430	156573	55000		ANA	MASD,6
07431	056573	55020		STA	MASD,6
07432	015703	55040		LDA	CMSK,5
07433	156601	55060		ANA	YBT,6
07434	056601	55080		STA	YBT,6
07435	156603	55100		ANA	YBT+2,6
07436	056603	55120		STA	YBT+2,6
07437	015703	55140		LDA	CMSK,5
07440	156607	55160		ANA	PASD,6
07441	056607	55180		STA	PASD,6
PAGE 01  VERS26.VAS  21-MAR-73  09:20:08.233

07442	016617	55340		LDA	CRO,6
07443	115663	55360		ORA	MASK,5
07444	056617	55380		STA	CRO,6
      	      	55420	* INFORM SUPERVISOR THAT CIRCUIT IS FREE
07445	020657	55440		LDB	W13
07446	016751	55460		LDA	P370,6
07447	005111	55480		IAR
07450	050646	55500		STA	W4
07451	005201	55520		COM	,A
07452	056751	55540		STA	P370,6
07453	012506	55560		LDA	=100000
07454	050645	55580		STA	W3
07455	012545	55600		LDA	=30000
07456	002000	55620		JMPM	LEPSEN
07457	010467	
07460	001000	55640		JMP	DONE+.
07461	107344	
      	      	55660	* ACCOUNTING INFORMATION GENERATOR
      	      	55680	* THIS ROUTINE IS CALLED WITH ACCOUNTING TYPE IN A
      	      	55700	* AND 370 PORT NUMBER IN B
      	      	55720	* IT IS CALLED EVERY 17 MINUTES WITH TYPE 0 FOR TERMINALS LOGGED ON
      	      	55740	* IT IS CALLED WITH TYPE 1 WHEN YBT EXPIRES OR ZAPPER COMES IN
      	      	55760	* WHEN YBT IS ON
      	      	55780	* IT IS CALLED WITH TYPE 2 WHEN CONTROL Z IS INPUT TO 370
      	      	55800	* THE FIRST CHARACTER IN THE RECORD IS ACCOUNTING TYPE (3 BITS)
      	      	55820	* AND 370 PORT (5 BITS). THEN COME CHARACTERS FROM LOGON BUFFER
      	      	55840	* TERMINAL TYPE, REMOTE NUMBER(2 CHARACTERS), REMOTE PORT NUMBER,
      	      	55860	* AND PROJECT CODE(0 TO 12 CHARACTERS). THE LAST OF THESE
      	      	55880	* CHARACTERS HAS BIT 7 OFF. THEN COME 4 PAIR OF CHARACTERS,
      	      	55900	* LOGOFF OR CURRENT TIME, LOGON TIME, OUTPUT CHARACTER COUNT,
      	      	55920	* AND INPUT CHARACTER COUNT.
07462	000000	55940	ACONTR	0
07463	060657	55960		STB	W13
07464	032461	55980		LDX	=BUFERS
07465	004053	56000		LRLB	13
07466	004445	56020		LLRL	5
07467	050643	56040		STA	W1
07470	010657	56060		LDA	W13
07471	122560	56080		ADD	=BUFERS+20
07472	005012	56100		TAB
07473	016304	56120		LDA	BC,6
07474	142476	56140		SUB	=4
07475	001004	56160		JAN	ACONTR+.
07476	107462	
07477	010643	56180		LDA	W1
07500	002000	56200		JMPM	WCI
07501	006122	
07502	002000	56220		JMPM	SBOD
07503	005036	
07504	010657	56240		LDA	W13
07505	122560	56260		ADD	=BUFERS+20
07506	054077	56280		STA	A1
07507	005014	56300		TAX
07510	015304	56320		LDA	BC,5
PAGE 01  VERS26.VAS  21-MAR-73  09:20:08.783

07511	054075	56340		STA	A2
07512	034073	56360	ACR1	LDX	A1
07513	002000	56380		JMPM	GCI
07514	005717	
07515	050645	56400		STA	W3
07516	002000	56420		JMPM	WCI
07517	006122	
07520	010645	56440		LDA	W3
07521	024065	56460		LDB	A2
07522	005322	56480		DBR
07523	001020	56500		JBZ	ACR2
07524	007536	
07525	064061	56520		STB	A2
07526	110672	56540		ORA	MASK+7
07527	032461	56560		LDX	=BUFERS
07530	002000	56580		JMPM	WCI
07531	006122	
07532	002000	56600		JMPM	SBOD
07533	005036	
07534	001000	56620		JMP	ACR1
07535	007512	
07536	032461	56640	ACR2	LDX	=BUFERS
07537	152561	56660		ANA =170; JAZM WCI; LDA W3
07540	002010	
07541	006122	
07542	010645	
07543	152520	56680		ANA	=177
07544	002000	56700		JMPM	WCI
07545	006122	
07546	002000	56720		JMPM	SBOD
07547	005036	
07550	032461	56740		LDX	=BUFERS
07551	100077	56760		EXC	77
07552	010215	56780		LDA	TIMEH
07553	100377	56800		EXC	377
07554	020216	56820		LDB	TIMEL
07555	004443	56840		LLRL	3
07556	002000	56860		JMPM	PAIR
07557	011215	
07560	016225	56880		LDA	START,6
07561	002000	56900		JMPM	PAIR
07562	011215	
07563	016265	56920		LDA	OCOUNT,6
07564	002000	56940		JMPM	PAIR
07565	011215	
07566	002000	56960		JMPM	SBOD
07567	005036	
07570	032461	56980		LDX	=BUFERS
07571	020657	57000		LDB	W13
07572	016325	57020		LDA	ICOUNT,6
07573	002000	57040		JMPM	PAIR
07574	011215	
07575	015304	57060		LDA	BC,5
07576	140673	57080		SUB	MASK+10
PAGE 01  VERS26.VAS  21-MAR-73  09:20:09.250

07577	001004	57100		JAN	ACONTR+.
07600	107462	
07601	010215	57120		LDA	TIMEH
07602	005311	57140		DAR
07603	050425	57160		STA	ATIME
07604	001000	57180		JMP	ACONTR+.
07605	107462	
07606	000000	57200	A1	0
07607	000000	57220	A2	0
      	      	57240	* LEPRECHAUN INPUT PROCESSOR
07610	002000	57260	LEP	JMPM	SBOD
07611	005036	
07612	032562	57280		LDX	=BUFERS+301
07613	015304	57300		LDA	BC,5
07614	001010	57320		JAZ	SECB
07615	010523	
07616	012563	57340		LDA	=W2
07617	050654	57360		STA	W10
07620	002000	57380		JMPM	GCI
07621	005717	
07622	004250	57400		LRLA	10
07623	050647	57420		STA	W5
07624	002000	57440		JMPM	GCI
07625	005717	
07626	110647	57460		ORA	W5
07627	057654	57480		STA	W10,7
07630	010654	57500		LDA	W10
07631	040654	57520		INR	W10
07632	142564	57540		SUB	=W4
07633	001004	57560		JAN	*-13
07634	007620	
07635	010644	57580		LDA	W2
07636	152565	57600		ANA	=107777
07637	130100	57620		ERA	MACHNO
07640	001010	57640		JAZ	LEPDIS
07641	007651	
      	      	57660	* RETURN ILLEGAL DOWNSTREAM RECORD
07642	010644	57680	LEPRET	LDA	W2
07643	050646	57700		STA	W4
07644	012473	57720		LDA	=20000
07645	002000	57740		JMPM	LEPSEN
07646	010467	
07647	001000	57760		JMP	LEP
07650	007610	
      	      	57780	* LEPRECHAUN DISPATCHER TO PROCESS SUPERVISOR COMMANDS
07651	010644	57800	LEPDIS	LDA	W2
07652	004354	57820		LSRA	14
07653	122566	57840		ADD	=LEPTAB+.
07654	054001	57860		STA	*+2
07655	001000	57880		JMP	*
07656	007655	
      	      	57900	* TAKEOVER COMMAND
07657	005001	57920	LEP0	TZA
07660	002000	57940		JMPM	LEPSEN
PAGE 01  VERS26.VAS  21-MAR-73  09:20:10.100

07661	010467	
07662	032567	57960		LDX	=BUFERS+300
07663	070561	57980		STX	USWICH
07664	002000	58000		JMPM	EMPTY
07665	004164	
07666	010105	58020		LDA	N370L
07667	050645	58040		STA	W3
07670	010101	58060		LDA	101
07671	050646	58080		STA	W4
07672	005001	58100		TZA
07673	002000	58120		JMPM	LEPSEN
07674	010467	
07675	001000	58140		JMP	LEP
07676	007610	
      	      	58160	* PLACE 2 CHARACTERS INTO A BUFFER
07677	010645	58180	LEP1	LDA	W3
07700	122461	58200		ADD	=BUFERS
07701	005014	58220		TAX
07702	010646	58240		LDA	W4
07703	004350	58260		LSRA	10
07704	152520	58280		ANA	=177
07705	142540	58300		SUB	=15
07706	001010	58320		JAZ	*+3
07707	007711	
07710	142570	58340		SUB	=56
07711	122571	58360		ADD	=273
07712	002000	58380		JMPM	WCI
07713	006122	
07714	010646	58400		LDA	W4
07715	152520	58420		ANA	=177
07716	001010	58440		JAZ	LEP
07717	007610	
07720	142540	58460		SUB	=15
07721	001010	58480		JAZ	*+3
07722	007724	
07723	142570	58500		SUB	=56
07724	122571	58520		ADD	=273
07725	002000	58540		JMPM	WCI
07726	006122	
07727	001000	58560		JMP	LEP
07730	007610	
      	      	58580	* CHANGE TABLE ENTRY
      	      	58600	* CHECK FOR VALID POINTER
07731	010645	58620	LEP2	LDA	W3
07732	004352	58640		LSRA	12
07733	005012	58660		TAB
07734	142456	58680		SUB	=NLINES
07735	001002	58700		JAP	LEPRET
07736	007642	
07737	010645	58720		LDA	W3
07740	152572	58740		ANA	=1776
07741	001010	58760		JAZ	LEPRET
07742	007642	
07743	004343	58780		LSRA	3
PAGE 01  VERS26.VAS  21-MAR-73  09:20:10.783

07744	126130	58800		ADD	IOTABS,6
07745	001002	58820		JAP	LEPRET
07746	007642	
      	      	58840	* COMPUTE ENTRY ADDRESS
07747	010645	58860		LDA	W3
07750	152436	58880		ANA	=1777
07751	050645	58900		STA	W3
07752	126122	58920		ADD	IOTA,6
07753	005014	58940		TAX
07754	070651	58960		STX	W7
07755	010646	58980		LDA	W4
07756	150722	59000		ANA	CMSK+17
07757	142500	59020		SUB	=NBUF
07760	001002	59040		JAP	LEPRET
07761	007642	
07762	015000	59060		LDA	0,5
07763	005111	59080		IAR
07764	001010	59100		JAZ	LEP2D
07765	007777	
07766	005311	59120		DAR
07767	150722	59140		ANA	CMSK+17
07770	132456	59160		ERA	=1
07771	122461	59180		ADD	=BUFERS
07772	005014	59200		TAX
07773	060652	59220		STB	W8
07774	002000	59240		JMPM	ZBF
07775	006305	
07776	020652	59260		LDB	W8
07777	030651	59280	LEP2D	LDX	W7
10000	010646	59300		LDA	W4
10001	055000	59320		STA	0,5
      	      	59340	* GET BUFFER NUMBER
10002	130663	59360		ERA	MASK
10003	122461	59380		ADD	=BUFERS
10004	050650	59400		STA	W6
      	      	59420	* COMPUTE NEW BF
10005	016143	59440		LDA	GROUPI,6
10006	122475	59460		ADD	=CFOB-FLAG
10007	004244	59480		LRLA	4
10010	120645	59500		ADD	W3
10011	050651	59520		STA	W7
10012	020650	59540		LDB	W6
10013	036304	59560		LDX	BC,6
10014	001040	59580		JXZ	LEP2A
10015	010032	
      	      	59600	* TURN OFF OLD BIT, TURN ON NEW BIT
10016	016610	59620		LDA	BF,6
10017	002000	59640		JMPM	BITADD
10020	012233	
10021	005211	59660		COM	A,A
10022	156161	59680		ANA	FLAG,6
10023	056161	59700		STA	FLAG,6
10024	010651	59720		LDA	W7
10025	002000	59740		JMPM	BITADD
PAGE 01  VERS26.VAS  21-MAR-73  09:20:11.416

10026	012233	
10027	116161	59760		ORA	FLAG,6
10030	056161	59780		STA	FLAG,6
10031	020650	59800		LDB	W6
10032	010651	59820	LEP2A	LDA	W7
10033	056610	59840		STA	BF,6
10034	012573	59860		LDA	=100001
10035	050645	59880		STA	W3
10036	012545	59900		LDA	=30000
10037	002000	59920		JMPM	LEPSEN
10040	010467	
10041	001000	59940		JMP	LEP
10042	007610	
      	      	59960	* CHANGE CELL OR SPECIAL MESSAGE
10043	010645	59980	LEP3	LDA	W3
10044	001004	60000		JAN	LEPRET
10045	007642	
10046	142574	60020		SUB	=DLOCK
10047	004346	60040		LSRA	6
10050	001010	60060		JAZ	*+5
10051	010055	
10052	010102	60080		LDA	DLOCK
10053	001002	60100		JAP	LEP
10054	007610	
10055	010646	60120		LDA	W4
10056	057645	60140		STA	W3,7
10057	001000	60160		JMP	LEP
10060	007610	
      	      	60180	* REQUEST 2 CELLS
10061	010646	60200	LEP4	LDA	W4
10062	050647	60220		STA	W5
10063	017645	60240		LDA	W3,7
10064	050646	60260		STA	W4
10065	012545	60280		LDA	=30000
10066	002000	60300		JMPM	LEPSEN
10067	010467	
10070	010647	60320		LDA	W5
10071	050645	60340		STA	W3
10072	017645	60360		LDA	W3,7
10073	050646	60380		STA	W4
10074	012545	60400		LDA	=30000
10075	002000	60420		JMPM	LEPSEN
10076	010467	
10077	001000	60440		JMP	LEP
10100	007610	
      	      	60460	* INPUT INTO "HOST"
10101	010646	60480	LEP5	LDA	W4
10102	004350	60500		LSRA	10
10103	142475	60520		SUB	=5
10104	001010	60540		JAZ	LEP5D
10105	010333	
10106	142476	60560		SUB	=4
10107	001010	60580		JAZ	LEP5A
10110	010124	
PAGE 01  VERS26.VAS  21-MAR-73  09:20:11.850

10111	005311	60600		DAR
10112	001010	60620		JAZ	*+4
10113	010116	
10114	001000	60640		JMP	LEPRET
10115	007642	
      	      	60660	* TYPE 12  ASSIGN ACCOUNTING PORT
10116	010645	60680		LDA	W3
10117	152452	60700		ANA	=377
10120	004241	60720		LRLA	1
10121	050430	60740		STA	APORT
10122	001000	60760		JMP	LEP
10123	007610	
      	      	60780	* TYPE 11  NEW LOGIN
10124	005002	60800	LEP5A	TZB
10125	010607	61040		LDA	PASD
10126	005211	61060		COM	A,A
10127	150615	61080		ANA	PACT
10130	150575	61100		ANA	DED
10131	001010	61140		JAZ	LEP5C
10132	010240	
10133	002000	61160	LEP5B	JMPM	BID
10134	012243	
10135	016607	61180		LDA	PASD,6
10136	115663	61200		ORA	MASK,5
10137	056607	61220		STA	PASD,6
10140	016611	61240		LDA	NPORT,6
10141	115663	61260		ORA	MASK,5
10142	056611	61280		STA	NPORT,6
10143	016605	61300		LDA	IGNO,6
10144	155703	61320		ANA	CMSK,5
10145	056605	61340		STA	IGNO,6
10146	016573	61460		LDA	MASD,6
10147	155703	61480		ANA	CMSK,5
10150	056573	61500		STA	MASD,6
10151	016164	61520		LDA	IFT,6
10152	115663	61540		ORA	MASK,5
10153	056164	61560		STA	IFT,6
10154	016613	61580		LDA	CEXZ,6
10155	155703	61600		ANA	CMSK,5
10156	056613	61620		STA	CEXZ,6
10157	016621	61920		LDA	RTSFLG,6
10160	155703	61940		ANA	CMSK,5
10161	056621	61960		STA	RTSFLG,6
10162	016623	61980		LDA	CTSFLG,6
10163	155703	62000		ANA	CMSK,5
10164	056623	62020		STA	CTSFLG,6
10165	016625	62040		LDA	RTSOUT,6
10166	155703	62060		ANA	CMSK,5
10167	056625	62080		STA	RTSOUT,6
10170	016627	62081		LDA	BRKFLG,6
10171	155703	62082		ANA	CMSK,5
10172	056627	62083		STA	BRKFLG,6
10173	004044	62120		LRLB	4
10174	005064	62140		COP	BX,X
PAGE 01  VERS26.VAS  21-MAR-73  09:20:12.483

10175	100077	62160		EXC	77
10176	010215	62180		LDA	TIMEH
10177	100377	62200		EXC	377
10200	020216	62220		LDB	TIMEL
10201	004443	62240		LLRL	3
10202	055225	62260		STA	START,5
10203	005001	62280		TZA
10204	055265	62300		STA	OCOUNT,5
10205	055325	62320		STA	ICOUNT,5
10206	010215	62340		LDA	TIMEH
10207	122460	62360		ADD	=2
10210	055365	62380		STA	T20M,5
10211	010645	62400		LDA	W3
10212	152452	62420		ANA	=377
10213	004241	62440		LRLA	1
10214	055751	62460		STA	P370,5
10215	122461	62480		ADD	=BUFERS
10216	005012	62500		TAB
10217	005041	62520		TXA
10220	122555	62540		ADD	=60
10221	056610	62560		STA	BF,6
10222	015751	62580		LDA	P370,5
10223	122511	62600		ADD	=BUFERS+1
10224	005014	62620		TAX
10225	005101	62640		INC	,A
10226	002000	62660		JMPM	WCI
10227	006122	
10230	012542	62680		LDA	=13
10231	002000	62700		JMPM	WCI
10232	006122	
10233	012571	62720		LDA	=273
10234	002000	62740		JMPM	WCI
10235	006122	
10236	001000	62760		JMP	LEP
10237	007610	
10240	005122	62780	LEP5C	IBR
10241	010610	63020		LDA	PASD+1
10242	005211	63040		COM	A,A
10243	150616	63060		ANA	PACT+1
10244	150576	63080		ANA	DED+1
10245	001010	63120		JAZ	*+4
10246	010251	
10247	001000	63140		JMP	LEP5B
10250	010133	
10251	010645	63160		LDA	W3
10252	152452	63180		ANA	=377
10253	004557	63200		LLSR	17
10254	011011	63220		LDA	ZAPP
10255	061011	63240		STB	ZAPP
10256	001010	63260		JAZ	LEP5C1
10257	010262	
10260	002000	63280		JMPM	ZAP
10261	010311	
10262	011011	63300	LEP5C1	LDA	ZAPP
PAGE 01  VERS26.VAS  21-MAR-73  09:20:12.966

10263	122511	63320		ADD	=BUFERS+1
10264	005014	63340		TAX
10265	002000	63360		JMPM	RT8
10266	004134	
10267	012575	63380		LDA	=NOPORT
10270	050643	63400		STA	W1
10271	017643	63420	LEP5C2	LDA	W1,7
10272	001010	63440		JAZ	LEP
10273	007610	
10274	002000	63460		JMPM	PAIR
10275	011215	
10276	040643	63480		INR	W1
10277	001000	63500		JMP	LEP5C2
10300	010271	
10301	147725	63520	NOPORT	ASC	'OUT OF PORTS'
10302	152240	
10303	147706	
10304	120320	
10305	147722	
10306	152323	
10307	000777	63540		1\377; 0
10310	000000	
10311	000000	63560	ZAP	0
10312	122511	63580		ADD	=BUFERS+1
10313	005014	63600		TAX
10314	002000	63620		JMPM	RT8
10315	004134	
10316	012433	63640		LDA	=3
10317	002000	63660		JMPM	WCI
10320	006122	
10321	005041	63680		TXA
10322	142461	63700		SUB	=BUFERS
10323	050646	63720		STA	W4
10324	012506	63740		LDA	=100000
10325	050645	63760		STA	W3
10326	012545	63780		LDA	=30000
10327	002000	63800		JMPM	LEPSEN
10330	010467	
10331	001000	63820		JMP	ZAP+.
10332	110311	
      	      	63840	* TYPE 5
10333	010426	63860	LEP5D	LDA	ACSTAT
10334	005311	63880		DAR
10335	001010	63900		JAZ	LEP5E
10336	010367	
10337	005311	63920		DAR
10340	001010	63940		JAZ	*+4
10341	010344	
10342	001000	63960		JMP LEP5E1
10343	010373	
10344	010646	63980		LDA	W4
10345	152452	64000		ANA	=377
10346	001010	64020		JAZ	*+7
10347	010355	
PAGE 01  VERS26.VAS  21-MAR-73  09:20:13.350

10350	005001	64040	LEP5D1	TZA
10351	050430	64060		STA	APORT
10352	050426	64080		STA	ACSTAT
10353	001000	64100		JMP	LEP
10354	007610	
10355	010430	64120		LDA	APORT
10356	002010	64140		JAZM	CRASH
10357	002633	
10360	122511	64160		ADD	=BUFERS+1
10361	005014	64180		TAX
10362	012556	64200		LDA	=215
10363	002000	64220		JMPM	WCI
10364	006122	
10365	001000	64240		JMP	LEP
10366	007610	
10367	010646	64260	LEP5E	LDA	W4
10370	152452	64280		ANA	=377
10371	001010	64300		JAZ	LEP5E2
10372	010402	
10373	010430	64320	LEP5E1	LDA APORT; JAZ LEP5D1; JMPM ZAP; JMP LEP5D1
10374	001010	
10375	010350	
10376	002000	
10377	010311	
10400	001000	
10401	010350	
10402	005101	64340	LEP5E2	INC	,A
10403	050645	64360		STA	W3
10404	040426	64380		INR	ACSTAT
10405	010157	64400		LDA	ASCII
10406	004350	64420		LSRA	10
10407	002000	64440		JMPM	LEP5F
10410	010450	
10411	010157	64460		LDA	ASCII
10412	002000	64480		JMPM	LEP5F
10413	010450	
10414	010160	64500		LDA	ASCII+1
10415	004350	64520		LSRA	10
10416	002000	64540		JMPM	LEP5F
10417	010450	
10420	012576	64560		LDA	=307
10421	002000	64580		JMPM	LEP5F
10422	010450	
10423	010432	64600		LDA	ANAME
10424	040432	64620		INR	ANAME
10425	152433	64640		ANA	=3
10426	001010	64660		JAZ	*+3
10427	010431	
10430	005311	64680		DAR
10431	122577	64700		ADD	=261
10432	002000	64720		JMPM	LEP5F
10433	010450	
10434	012600	64740		LDA	=255
10435	002000	64760		JMPM	LEP5F
PAGE 01  VERS26.VAS  21-MAR-73  09:20:13.816

10436	010450	
10437	005001	64780		TZA
10440	050645	64800		STA	W3
10441	012601	64820		LDA	=2400
10442	050646	64840		STA	W4
10443	012602	64860		LDA	=50000
10444	002000	64880		JMPM	LEPSEN
10445	010467	
10446	001000	64900		JMP	LEP
10447	007610	
10450	000000	64920	LEP5F	0
10451	050646	64940		STA	W4
10452	012603	64960		LDA	=10000
10453	002000	64980		JMPM	LEPSEN
10454	010467	
10455	001000	65000		JMP	LEP5F+.
10456	110450	
10457	007657	65020	LEPTAB	+LEP0; +LEP1; +LEP2; +LEP3; +LEP4; +LEP5; +LEP; +LEPRET
10460	007677	
10461	007731	
10462	010043	
10463	010061	
10464	010101	
10465	007610	
10466	007642	
      	      	65040	* SEND RECORD UPSTREAM
10467	000000	65060	LEPSEN	0
10470	030561	65080		LDX	USWICH
10471	001040	65100		JXZ	LEPSEN+.
10472	110467	
10473	110100	65120		ORA	MACHNO
10474	112506	65140		ORA	=.
10475	050644	65160		STA	W2
10476	002000	65180		JMPM	LEPSN
10477	010502	
10500	001000	65200		JMP	LEPSEN+.
10501	110467	
      	      	65220	* SEND A RECORD
10502	000000	65240	LEPSN	0
10503	012563	65260		LDA	=W2
10504	050654	65280		STA	W10
10505	017654	65300		LDA	W10,7
10506	004350	65320		LSRA	10
10507	002000	65340		JMPM	WCI
10510	006122	
10511	017654	65360		LDA	W10,7
10512	002000	65380		JMPM	WCI
10513	006122	
10514	010654	65400		LDA	W10
10515	040654	65420		INR	W10
10516	142564	65440		SUB	=W4
10517	001004	65460		JAN	*-12
10520	010505	
10521	001000	65480		JMP	LEPSN+.
PAGE 01  VERS26.VAS  21-MAR-73  09:20:14.500

10522	110502	
10523	010216	65500	SECB	LDA	TIMEL
10524	142604	65520		SUB	=300D
10525	140213	65540		SUB	TIMSEC
10526	001004	65560		JAN	SEC+.
10527	106361	
10530	010216	65580		LDA	TIMEL
10531	050213	65600		STA	TIMSEC
      	      	65620	* HALF SECOND LOGIC STARTS HERE
10532	017661	65621		LDA	PW12
10533	001010	65622		JAZ	SECB1
10534	010545	
10535	050646	65623		STA	W4
10536	005001	65624		TZA
10537	057661	65625		STA	PW12
10540	012605	65626		LDA	=100003
10541	050645	65627		STA	W3
10542	012545	65628		LDA	=30000
10543	002000	65629		JMPM	LEPSEN
10544	010467	
      	      	65630	*
      	010545	65631	SECB1	E	*
      	      	65632	*
      	      	65634	*  IF WE HAVE A MESSAGE ASSEMBLED AND NO CTS, SEND IN A RTS.
10545	002000	65635		JMPM	SBOD
10546	005036	
10547	102064	65636		IME	64,PINP	READ PHYSICAL STATE OF LINE
10550	000571	
10551	102066	65637		IME	66,PINP+1
10552	000572	
      	      	65650	*
      	      	65655	*  PASS ON BREAKS RECEIVED FROM USER DURING OUTPUT ONLY
10553	005102	65665		INC	,B
10554	016571	65670	DRIBK	LDA	PINP,6		0=OUTPUTTING
10555	005211	65675		COM	A,A
10556	156627	65680		ANA	BRKFLG,6	1=BREAK CHAR RECEIVED
10557	001010	65685		JAZ	DRIBK1
10560	010604	
      	      	65690	*  SEND IN THE BREAK
10561	002000	65695		JMPM	BID
10562	012243	
10563	060646	65700		STB	W4		B=GROUP
10564	016627	65705		LDA	BRKFLG,6
10565	155703	65710		ANA	CMSK,5
10566	056627	65715		STA	BRKFLG,6
10567	016605	65720		LDA	IGNO,6
10570	155703	65725		ANA	CMSK,5
10571	056605	65730		STA	IGNO,6
10572	004044	65735		LRLB	4		
10573	005061	65740		COP	BX,A		A=PORT NUM
10574	122606	65745		ADD	=BUFERS+200	INPUT TO 6700 BUFFER
10575	005014	65750		TAX
10576	005001	65755		TZA			NULL(BREAK)=000
10577	002000	65760		JMPM	WCI
PAGE 01  VERS26.VAS  21-MAR-73  09:20:14.983

10600	006122	
10601	020646	65765		LDB	W4
10602	001000	65770		JMP	DRIBK
10603	010554	
10604	005323	65775	DRIBK1	DEC	B,AB
10605	001010	65780		JAZ	DRIBK
10606	010554	
10607	002000	65782		JMPM	SBOD
10610	005036	
      	      	65785	*
10611	005102	65980		INC	,B
10612	016623	66000	DRII1	LDA	CTSFLG,6
10613	005211	66020		COM	A,A	ALL PORTS WE DON'T OWN
10614	156573	66040		ANA	MASD,6	FOR WHICH WE HAVE A MESSAGE
10615	156571	66060		ANA	PINP,6	WHICH WE CAN TALK OVER
10616	156607	66080		ANA	PASD,6	AND ARE ASSIGNED.
10617	054357	66100		STA	DRIT1
10620	064357	66120		STB	DRIT2
10621	001010	66140	DRII2	JAZ	DRIIE
10622	010646	
10623	002000	66160		JMPM	BID
10624	012243	
10625	014351	66180		LDA	DRIT1
10626	155703	66200		ANA	CMSK,5	WE GOT THIS ONE GOING
10627	054347	66220		STA	DRIT1
10630	016625	66240		LDA	RTSOUT,6	SIGNAL RTS SENT
10631	115663	66260		ORA	MASK,5
10632	056625	66280		STA	RTSOUT,6
10633	004044	66300		LRLB	4	CALCULATE PORT NUMBER
10634	005061	66320		COP	BX,A
10635	122606	66340		ADD	=BUFERS+200	BUFFERS 200-237 ARE INPUT TO HOST
10636	005014	66360		TAX
10637	012475	66380		LDA	=RTSCHR	SEND RTS
10640	002000	66400		JMPM	WCI
10641	006122	
10642	014334	66420		LDA	DRIT1
10643	024334	66440		LDB	DRIT2
10644	001000	66460		JMP	DRII2
10645	010621	
10646	005323	66480	DRIIE	DEC	B,AB	LOOP?
10647	001010	66500		JAZ	DRII1
10650	010612	
      	      	66520	*
      	      	66540	*  DRI HAS REVERSE BACKPRESURE.  APPLY IT NOW.
10651	002000	66560		JMPM	SBOD
10652	005036	
10653	005102	66580		INC	,B
10654	016621	66600	DRIB1	LDA	RTSFLG,6	IS HOST WAITING FOR CTS?
10655	156571	66620		ANA	PINP,6	AND CAN WE TALK OVER THIS PORT?
10656	054320	66640		STA	DRIT1
10657	064320	66660		STB	DRIT2
10660	001010	66680	DRIB2	JAZ	DRIBE
10661	010721	
10662	002000	66700		JMPM	BID
PAGE 01  VERS26.VAS  21-MAR-73  09:20:15.483

10663	012243	
10664	074314	66720		STX	DRIT3
10665	014311	66740		LDA	DRIT1
10666	155703	66760		ANA	CMSK,5	WE GOT THIS ONE GOING.
10667	054307	66780		STA	DRIT1
10670	005021	66800		TBA	CALCULATE PORT NUMBER
10671	004244	66820		LRLA	4
10672	005054	66840		COP	AX,X
10673	015751	66860		LDA	P370,5	THIS GIVES US THE BUFFER TO WHICH THE
10674	122511	66880		ADD	=BUFERS+1	HOST IS OUTPUTING
10675	005014	66900		TAX
10676	015304	66920		LDA	BC,5	GET NUMBER OF CHARACTERS IN BUFFER
10677	142517	66940		SUB	=240	>240B ?
10700	001002	66960		JAP	DRIB3
10701	010715	
10702	034276	66980		LDX	DRIT3
10703	016621	67000		LDA	RTSFLG,6	OK.	DROP RTS
10704	155703	67020		ANA	CMSK,5
10705	056621	67040		STA	RTSFLG,6
10706	004044	67060		LRLB	4	GET PORT NUMBER AGAIN
10707	005061	67080		COP	BX,A
10710	122606	67100		ADD	=BUFERS+200	BUFFERS 200-237 ARE INPUT TO HOST
10711	005014	67120		TAX
10712	012467	67140		LDA	=CTSCHR	SEND CTS
10713	002000	67160		JMPM	WCI
10714	006122	
10715	014261	67180	DRIB3	LDA	DRIT1
10716	024261	67200		LDB	DRIT2
10717	001000	67220		JMP	DRIB2
10720	010660	
10721	005323	67240	DRIBE	DEC	B,AB
10722	001010	67260		JAZ	DRIB1
10723	010654	
      	      	67280	*
      	      	67300	*
      	      	67340	* INPUT TO 370
      	      	67360	* W1 MASK OF PROCESSED PORTS
      	      	67380	* W2 BIT NUMBER
      	      	67400	* W3 GROUP NUMBER
      	      	67420	* W4 PORT NUMBER
      	      	67440	* W5 BUFFER NUMBER INPUT TO 370
      	      	67460	* W6 BUFFER NUMBER MESSAGE ASSEMBLY
10724	002000	67480	I370	JMPM	SBOD
10725	005036	
10726	005102	67500		INC	,B
10727	016573	67520	I370A	LDA	MASD,6
10730	156623	67560		ANA	CTSFLG,6
10731	116613	67600		ORA	CEXZ,6
10732	156607	67620		ANA	PASD,6
10733	005014	67640		TAX
10734	016607	67660		LDA	PASD,6
10735	116577	67700		ORA	T64SI,6
10736	005211	67740		COM	A,A
10737	005051	67760		COP	AX,A
PAGE 01  VERS26.VAS  21-MAR-73  09:20:16.050

10740	116617	67800		ORA	CRO,6
10741	156571	67860		ANA	PINP,6
10742	001010	67900		JAZ	I370N
10743	011242	
10744	002000	67920		JMPM	BID
10745	012243	
10746	016571	67940		LDA	PINP,6
10747	155703	67960		ANA	CMSK,5
10750	056571	67980		STA	PINP,6
10751	070644	68000		STX	W2
10752	060645	68020		STB	W3
10753	005021	68040		TBA
10754	004244	68060		LRLA	4
10755	005051	68080		COP	AX,A
10756	050646	68100		STA	W4
10757	122606	68120		ADD	=BUFERS+200
10760	050647	68140		STA	W5
10761	122466	68160		ADD	=40
10762	050650	68180		STA	W6
10763	016617	68220		LDA	CRO,6
10764	155663	68240		ANA	MASK,5
10765	001010	68260		JAZ	I370B
10766	011001	
10767	136617	68280		ERA	CRO,6
10770	056617	68300		STA	CRO,6
10771	030647	68320		LDX	W5
10772	012507	68380		LDA	=32
10773	002000	68400		JMPM	WCI
10774	006122	
10775	002000	68460		JMPM	CR
10776	011202	
10777	001000	68480		JMP	I370
11000	010724	
11001	016607	68520	I370B	LDA	PASD,6
11002	155663	68540		ANA	MASK,5
11003	001010	68620		JAZ	I370M
11004	011164	
11005	016613	68660		LDA	CEXZ,6
11006	155663	68680		ANA	MASK,5
11007	001010	68700		JAZ	I370C
11010	011034	
11011	030647	68720		LDX	W5
11012	002000	68760		JMPM	EMPTY
11013	004164	
11014	012607	68780		LDA	=ZAPM
11015	050650	68800		STA	W6
11016	017650	68820		LDA	W6,7
11017	040650	68840		INR	W6
11020	001010	68860		JAZ	*+6
11021	011026	
11022	002000	68880		JMPM	PAIR
11023	011215	
11024	001000	68900		JMP	*-6
11025	011016	
PAGE 01  VERS26.VAS  21-MAR-73  09:20:16.583

11026	012460	68980		LDA	=2
11027	020646	69000		LDB	W4
11030	002000	69020		JMPM	DONE
11031	007344	
11032	001000	69040		JMP	I370
11033	010724	
11034	015663	69060	I370C	LDA	MASK,5
11035	156611	69080		ANA	NPORT,6
11036	001010	69100		JAZ	I370K
11037	011151	
11040	136611	69120		ERA	NPORT,6
11041	056611	69140		STA	NPORT,6
11042	010646	69160		LDA	W4
11043	122560	69180		ADD	=BUFERS+20
11044	050651	69200		STA	W7
11045	012610	69220		LDA	=-4
11046	050652	69240		STA	W8
      	      	69260	* COPY TERMINAL TYPE, NODE, AND PORT NUMBER
11047	002000	69280	I370D	JMPM IGET
11050	011103	
11051	030651	69300		LDX	W7
11052	002000	69320		JMPM	WCI
11053	006122	
11054	040652	69340		INR	W8
11055	010652	69360		LDA	W8
11056	001004	69380		JAN	I370D
11057	011047	
      	      	69400	* GET RID OF USER NAME
11060	002000	69420	I370E	JMPM IGET
11061	011103	
11062	050652	69440		STA	W8
11063	030651	69460		LDX	W7
11064	002000	69480		JMPM	WCI
11065	006122	
11066	010652	69500		LDA	W8
11067	152520	69520		ANA	=177
11070	142611	69540		SUB	=73
11071	001010	69620		JAZ	I370F
11072	011075	
11073	001000	69660		JMP	I370E
11074	011060	
11075	012540	69700	I370F	LDA	=15
11076	002000	69720		JMPM	WCI
11077	006122	
11100	030650	69740		LDX	W6
11101	002000	69760		JMPM	EMPTY
11102	004164	
11103	000000	70320	IGET	0
11104	030650	70340		LDX W6; LDA BC,5; JAZ IGET1; JMPM GCI; JMP IGET.
11105	015304	
11106	001010	
11107	011114	
11110	002000	
11111	005717	
PAGE 01  VERS26.VAS  21-MAR-73  09:20:17.116

11112	001000	
11113	111103	
11114	030651	70360	IGET1	LDX W7; JMPM EMPTY; LDX W5; JMPM EMPTY
11115	002000	
11116	004164	
11117	030647	
11120	002000	
11121	004164	
11122	020646	70380		LDB W4; JMPM DONE; INR IGETE; JMP I370
11123	002000	
11124	007344	
11125	044002	
11126	001000	
11127	010724	
11130	000000	70400	IGETE	0
11131	002000	70420	I370H	JMPM	CR
11132	011202	
11133	030646	70440		LDX	W4
11134	010215	70460		LDA	TIMEH
11135	122542	70480		ADD	=13
11136	055365	70500		STA	T20M,5
11137	030644	70520		LDX	W2
11140	020645	70540		LDB	W3
11141	016573	70560		LDA	MASD,6
11142	155703	70580		ANA	CMSK,5
11143	056573	70600		STA	MASD,6
11144	016623	70640		LDA	CTSFLG,6	THIS LINE NO LONGER BELONGS TO US
11145	155703	70660		ANA	CMSK,5
11146	056623	70680		STA	CTSFLG,6
11147	001000	70720		JMP	I370
11150	010724	
      	      	70740	* COPY ASSEMBLED MESSAGE
11151	030650	70760	I370K	LDX	W6
11152	002000	70880		JMPM	GCI
11153	005717	
11154	025304	70900		LDB	BC,5
11155	001020	70920		JBZ	I370H
11156	011131	
11157	030647	70960		LDX	W5
11160	002000	70980		JMPM	WCI
11161	006122	
11162	001000	71000		JMP	I370K
11163	011151	
11164	030647	71280	I370M	LDX	W5
11165	012450	71380		LDA	=41
11166	002000	71400		JMPM	WCI
11167	006122	
11170	030644	71500		LDX	W2
11171	020645	71520		LDB	W3
11172	016577	71540		LDA	T64SI,6
11173	115663	71560		ORA	MASK,5
11174	056577	71580		STA	T64SI,6
11175	001000	71600		JMP	I370
11176	010724	
PAGE 01  VERS26.VAS  21-MAR-73  09:20:17.700

      	      	71640	*
11177	000000	71680	DRIT1	0
11200	000000	71700	DRIT2	0
11201	000000	71720	DRIT3	0
      	      	71740	*
11202	000000	71780	CR	0
11203	030647	71800		LDX	W5
11204	012540	71820		LDA	=15
11205	002000	71840		JMPM	WCI
11206	006122	
11207	001000	71940		JMP	CR+.
11210	111202	
      	      	71980	* (BLANK)?ZAP(CONTROL D)
11211	120277	72000	ZAPM	240\277; 332\301; 320\204; 0
11212	155301	
11213	150204	
11214	000000	
      	      	72040	* SEND A PAIR OF CHARACTERS
11215	000000	72060	PAIR	0
11216	050654	72080		STA	W10
11217	004350	72100		LSRA	10
11220	002000	72120		JMPM	WCI
11221	006122	
11222	010654	72140		LDA	W10
11223	002000	72160		JMPM	WCI
11224	006122	
11225	020657	72180		LDB	W13
11226	001000	72200		JMP	PAIR+.
11227	111215	
11230	127714	72220	LOGIN	ASC	'/LOGIN'
11231	147707	
11232	144716	
11233	151731	72240	SDOWN	ASC	'SYSTEM DOWN'; 0
11234	151724	
11235	142715	
11236	120304	
11237	147727	
11240	147200	
11241	000000	
11242	005323	72260	I370N	DEC	B,AB
11243	001002	72280		JAP	I370A
11244	010727	
11245	103064	72320		OME	64,CTS
11246	000745	
11247	103066	72340		OME	66,CTS+1
11250	000746	
      	      	75340	* RESTRICTED BUFFER SOURCE
      	      	75360	* SEND A ONE BIT FOR EACH
      	      	75380	* CHANNEL WHICH MAY RECEIVE
      	      	75400	* MORE CHARACTERS
11251	012456	75420		LDA	=NLINES
11252	050643	75440		STA	W1
11253	020643	75460	RBS1	LDB	W1
11254	001020	75480		JBZ	SECU
PAGE 01  VERS26.VAS  21-MAR-73  09:20:18.600

11255	011333	
11256	005322	75500		DBR
11257	060643	75520		STB	W1
11260	036122	75540		LDX	IOTA,6
11261	015001	75560		LDA	1,5
11262	150722	75580		ANA	CMSK+17
11263	122612	75600		ADD	=BUFERS-1
11264	005014	75620		TAX
      	      	75640	* SEE IF OUTPUT BUFFER IS EMPTY
11265	015304	75660		LDA	BC,5
11266	005311	75680		DAR
11267	001002	75700		JAP	RBS5
11270	011330	
11271	070644	75720		STX	W2
11272	016122	75740		LDA	IOTA,6
11273	050645	75760		STA	W3
11274	016130	75780		LDA	IOTABS,6
11275	050646	75800		STA	W4
11276	020672	75820	RBS2	LDB	MASK+7
11277	017645	75840		LDA	W3,7
11300	040645	75860		INR	W3
11301	122461	75880		ADD	=BUFERS
11302	005014	75900		TAX
11303	001004	75920		JAN	RBS4
11304	011324	
11305	015304	75940		LDA	BC,5
11306	142466	75960		SUB	=40
      	      	75980	* NOTE THAT BUFFER NUMBER MINUS ONE IS ALWAYS EMPTY
11307	004441	76000	RBS3	LLRL	1
11310	005021	76020		TBA
11311	001002	76040		JAP	RBS2+1
11312	011277	
11313	030644	76060		LDX	W2
11314	002000	76080		JMPM	WCI
11315	006122	
11316	040646	76100		INR	W4
11317	010646	76120		LDA	W4
11320	001004	76140		JAN	RBS2
11321	011276	
11322	001000	76160		JMP	RBS1
11323	011253	
11324	015304	76180	RBS4	LDA	BC,5
11325	142543	76200		SUB	=200
11326	001000	76220		JMP	RBS3
11327	011307	
11330	046537	76240	RBS5	INR	LINSAT,6
11331	001000	76260		JMP	RBS1
11332	011253	
      	      	76280	* 8 SECOND LOGIC
11333	040214	76300	SECU	INR	TIMMIN
11334	010214	76320		LDA	TIMMIN
11335	152524	76340		ANA	=17
11336	005311	76360		DAR
11337	001002	76380		JAP	SEC+.
PAGE 01  VERS26.VAS  21-MAR-73  09:20:19.083

11340	106361	
11341	032456	76580		LDX	=NLINES
11342	005344	76600	SECU1	DXR
11343	025122	76620		LDB	IOTA,5
11344	012543	76640		LDA	=200
11345	056061	76660		STA	BR-IOTAB0+1,6
11346	025143	76680		LDB	GROUPI,5
11347	016204	76700		LDA	RSBF,6
11350	110664	76720		ORA	MASK+1
11351	056204	76740		STA	RSBF,6
11352	001040	76760		JXZ	*+4
11353	011356	
11354	001000	76780		JMP	SECU1
11355	011342	
      	      	76800	* 16 SECOND LOGIC
11356	010214	76820		LDA	TIMMIN
11357	152451	76840		ANA	=37
11360	005311	76860		DAR
11361	001002	76880		JAP	SEC+.
11362	106361	
11363	010747	76920		LDA	CTS+2
11364	050745	76940		STA	CTS
11365	010750	76960		LDA	CTS+3
11366	050746	76980		STA	CTS+1
11367	005001	77000		TZA
11370	050747	77020		STA	CTS+2
11371	050750	77040		STA	CTS+3
11372	032456	77080		LDX	=NLINES
11373	005344	77100	SECW	DXR
11374	025122	77120		LDB	IOTA,5
11375	012543	77140		LDA	=200
11376	056061	77160		STA	BR-IOTAB0+1,6
11377	025143	77180		LDB	GROUPI,5
11400	016204	77200		LDA	RSBF,6
11401	110664	77220		ORA	MASK+1
11402	056204	77240		STA	RSBF,6
11403	015433	77260		LDA	LRESET,5
11404	001010	77280		JAZ	SECW2
11405	011476	
11406	005001	77300		TZA
11407	055433	77320		STA	LRESET,5
11410	012613	77340		LDA	=100004
11411	050645	77360	SECW1	STA	W3
11412	070646	77380		STX	W4
11413	074101	77400		STX	SW1
11414	012545	77420		LDA	=30000
11415	002000	77440		JMPM	LEPSEN
11416	010467	
11417	034075	77460		LDX	SW1
11420	015122	77480		LDA	IOTA,5
11421	122460	77500		ADD	=2
11422	050560	77520		STA	SWI
11423	015130	77540		LDA	IOTABS,5
11424	004243	77560		LRLA	3
PAGE 01  VERS26.VAS  21-MAR-73  09:20:19.733

11425	152614	77580		ANA	=-10
11426	122460	77600		ADD	=2
11427	054066	77620		STA	SW2
11430	035122	77640		LDX	IOTA,5
11431	015000	77660		LDA	0,5
11432	150722	77680		ANA	CMSK+17
11433	122612	77700		ADD	=BUFERS-1
11434	005014	77720		TAX
11435	002000	77740		JMPM	EMPTY
11436	004164	
11437	017560	77760	SECW1A	LDA	SWI,7
11440	005112	77780		INC	A,B
11441	001020	77800		JBZ	SECW1B
11442	011466	
11443	130663	77820		ERA	MASK
11444	122461	77840		ADD	=BUFERS
11445	150722	77860		ANA	CMSK+17
11446	005014	77880		TAX
11447	002000	77900		JMPM	ZBF
11450	006305	
11451	017560	77920		LDA	SWI,7
11452	005202	77940		COM	,B
11453	067560	77960		STB	SWI,7
11454	122461	77980		ADD	=BUFERS
11455	150722	78000		ANA	CMSK+17
11456	005014	78020		TAX
11457	002000	78040		JMPM	RT8
11460	004134	
11461	012433	78060		LDA	=3
11462	002000	78080		JMPM	WCI
11463	006122	
11464	002000	78100		JMPM	SBOD
11465	005036	
11466	040560	78120	SECW1B	INR	SWI
11467	044026	78140		INR	SW2
11470	014025	78160		LDA	SW2
11471	001004	78180		JAN	SECW1A
11472	011437	
11473	034021	78200		LDX	SW1
11474	001000	78220		JMP	SECW2A
11475	011503	
11476	015542	78240	SECW2	LDA	INDATA,5
11477	001010	78260		JAZ	SECW3
11500	011507	
11501	005001	78280		TZA
11502	055542	78300		STA	INDATA,5
11503	001040	78320	SECW2A	JXZ	SEC64
11504	011517	
11505	001000	78340		JMP	SECW
11506	011373	
11507	055537	78360	SECW3	STA	LINSAT,5
11510	055110	78380		STA	SWTCHO,5
11511	045542	78400		INR	INDATA,5
11512	012615	78420		LDA	=100005
PAGE 01  VERS26.VAS  21-MAR-73  09:20:20.233

11513	001000	78440		JMP	SECW1
11514	011411	
11515	000000	78460	SW1	0
11516	000000	78480	SW2	0
      	      	78500	* 64 SECOND LOGIC
11517	010214	78520	SEC64	LDA	TIMMIN
11520	152520	78540		ANA	=177
11521	005311	78560		DAR
11522	001002	78580		JAP	SEC+.
11523	106361	
11524	005102	78600	SECH	INC	,B
11525	016615	78640		LDA	PACT,6
11526	005211	78660		COM	A,A
11527	116571	78680		ORA	PINP,6
11530	056571	78700		STA	PINP,6
11531	005001	78720		TZA
11532	056577	78740		STA	T64SI,6
11533	016601	78780		LDA	YBT,6
11534	136603	78800		ERA	YBT+2,6
11535	001010	78820		JAZ	SECI
11536	011553	
11537	002000	78840		JMPM	BID
11540	012243	
11541	016601	78860		LDA	YBT,6
11542	155703	78880		ANA	CMSK,5
11543	056601	78900		STA	YBT,6
11544	004044	78920		LRLB	4
11545	005062	78940		COP	BX,B
11546	005101	78960		INC	,A
11547	002000	78980		JMPM	DONE
11550	007344	
11551	001000	79000		JMP	SECH
11552	011524	
11553	016615	79080	SECI	LDA	PACT,6
11554	116601	79100		ORA	YBT,6
11555	005211	79120		COM	A,A
11556	156607	79140		ANA	PASD,6
11557	001010	79160		JAZ	SECJ
11560	011621	
11561	002000	79180		JMPM	BID
11562	012243	
11563	016603	79200		LDA	YBT+2,6
11564	115663	79220		ORA	MASK,5
11565	056603	79240		STA	YBT+2,6
11566	116601	79260		ORA	YBT,6
11567	056601	79280		STA	YBT,6
11570	012616	79300		LDA	=SDOWN
11571	050643	79320		STA	W1
11572	004044	79340		LRLB	4
11573	005062	79360		COP	BX,B
11574	016751	79380		LDA	P370,6
11575	002004	79400		JANM	CRASH
11576	002633	
11577	122511	79420		ADD	=BUFERS+1
PAGE 01  VERS26.VAS  21-MAR-73  09:20:20.800

11600	005014	79440		TAX
11601	017643	79460		LDA	W1,7
11602	001010	79480		JAZ	*+7
11603	011611	
11604	040643	79500		INR	W1
11605	002000	79520		JMPM	PAIR
11606	011215	
11607	001000	79540		JMP	*-6
11610	011601	
11611	005101	79560		INC	,A
11612	002000	79580		JMPM	WCI
11613	006122	
11614	005201	79600		COM	,A
11615	002000	79620		JMPM	WCI
11616	006122	
11617	001000	79640		JMP	SECH
11620	011524	
11621	005323	79680	SECJ	DEC	B,AB
11622	001002	79700		JAP	SECH+1
11623	011525	
11624	005102	79720		INC	,B
11625	016603	79740	SECK	LDA	YBT+2,6
11626	056601	79760		STA	YBT,6
11627	005001	79780		TZA
11630	056603	79800		STA	YBT+2,6
11631	005323	79820		DEC	B,AB
11632	001002	79840		JAP	SECK
11633	011625	
11634	010223	80120	SECL	LDA	PACTH
11635	110224	80140		ORA	PACTH+1
11636	001010	80180		JAZ	*+3
11637	011641	
11640	005201	80200		COM	,A
11641	005211	80220		COM	A,A
11642	130107	80240		ERA	UPDOWN
11643	001010	80260		JAZ	SECM
11644	011714	
11645	010107	80280		LDA	UPDOWN
11646	005211	80300		COM	A,A
11647	050107	80320		STA	UPDOWN
11650	130106	80340		ERA	UPDOWN-1
11651	150702	80360		ANA	MASK+17
11652	130106	80380		ERA	UPDOWN-1
11653	050646	80400		STA	W4
11654	012617	80420		LDA	=100002
11655	050645	80440		STA	W3
11656	012545	80460		LDA	=30000
11657	002000	80480		JMPM	LEPSEN
11660	010467	
11661	010107	80580		LDA	UPDOWN
11662	001002	80600		JAP	SECL1
11663	011673	
11664	005001	80620		TZA
11665	050615	80640		STA	PACT
PAGE 01  VERS26.VAS  21-MAR-73  09:20:21.300

11666	050616	80660		STA	PACT+1
11667	050575	80680		STA	DED
11670	050576	80700		STA	DED+1
11671	001000	80720		JMP	SECM
11672	011714	
11673	010106	80760	SECL1	LDA	106
11674	110702	80780		ORA	MASK+17
11675	050106	80800		STA	106
11676	050645	80820		STA	W3
11677	012620	80840		LDA	=3001
11700	050646	80860		STA	W4
11701	012602	80880		LDA	=50000
11702	002000	80900		JMPM	LEPSEN
11703	010467	
11704	010430	80920		LDA	APORT
11705	001010	80940		JAZ	SECL2
11706	011711	
11707	002000	80960		JMPM	ZAP
11710	010311	
11711	005001	80980	SECL2	TZA
11712	050426	81000		STA	ACSTAT
11713	050430	81020		STA	APORT
11714	010223	81340	SECM	LDA	PACTH
11715	050615	81360		STA	PACT
11716	010224	81380		LDA	PACTH+1
11717	050616	81400		STA	PACT+1
11720	005001	81420		TZA
11721	050223	81440		STA	PACTH
11722	050224	81460		STA	PACTH+1
11723	010426	81620		LDA	ACSTAT
11724	001002	81640		JAP	SECQ
11725	012125	
11726	010425	81660		LDA	ATIME
11727	140215	81680		SUB	TIMEH
11730	001002	81700		JAP	SECW4
11731	012157	
      	      	81720	* SEND ACCOUNTING
11732	005201	81740		COM	,A
11733	050631	81760		STA	MA
11734	050632	81780		STA	MA+1
11735	005102	81800	SECN	INC	,B
11736	016607	81820		LDA	PASD,6
11737	156631	81840		ANA	MA,6
11740	001010	81860		JAZ	SECO
11741	011756	
11742	002000	81880		JMPM	BID
11743	012243	
11744	016631	81900		LDA	MA,6
11745	155703	81920		ANA	CMSK,5
11746	056631	81940		STA	MA,6
11747	004044	81960		LRLB	4
11750	005062	81980		COP	BX,B
11751	005001	82000		TZA
11752	002000	82020		JMPM	ACONTR
PAGE 01  VERS26.VAS  21-MAR-73  09:20:22.083

11753	007462	
11754	001000	82040		JMP	SECN
11755	011735	
11756	005323	82060	SECO	DEC	B,AB
11757	001002	82080		JAP	SECN+1
11760	011736	
11761	010215	82100		LDA	TIMEH
11762	122546	82120		ADD	=10
11763	050425	82140		STA	ATIME
      	      	82160	* COPY BUFFER 0 TO BUFFER 1
11764	032461	82180		LDX	=BUFERS
11765	005041	82200		TXA; ADD =NBUF; TAB
11766	122500	
11767	005012	
11770	015001	82220		LDA	BP+1,5
11771	001010	82240		JAZ	*+4
11772	011775	
11773	002000	82260		JMPM	CRASH
11774	002633	
11775	015304	82280		LDA	BC,5
11776	055305	82300		STA	BC+1,5
11777	015000	82320		LDA	BP,5
12000	055001	82340		STA	BP+1,5
12001	016610	82360		LDA BF,6; STA BF+1,6
12002	056611	
12003	005001	82380		TZA
12004	055000	82400		STA	BP,5
12005	055304	82420		STA	BC,5; STA BF,6
12006	056610	
12007	002000	82440		JMPM	ACOPY
12010	012026	
12011	001000	82460		JMP	SECW4
12012	012157	
12013	010215	82500	SECK1	LDA	TIMEH
12014	120722	82520		ADD	CMSK+17
12015	055425	82540		STA	T20M+40,5
12016	005041	82560		TXA
12017	122466	82580		ADD	=40
12020	002000	82600		JMPM	BITADD
12021	012233	
12022	116613	82620		ORA	CEXZ,6
12023	056613	82640		STA	CEXZ,6
12024	001000	82660		JMP	SECL
12025	011634	
      	      	82700	* COPY FROM BUFFER 1 TO ACCOUNTING OUTPUT
12026	000000	82720	ACOPY	0
12027	002000	82740		JMPM	SBOD
12030	005036	
12031	010430	82760		LDA	APORT
12032	002010	82780		JAZM	CRASH
12033	002633	
12034	122511	82800		ADD	=BUFERS+1
12035	050656	82820		STA	W12
12036	032511	82840		LDX	=BUFERS+1
PAGE 01  VERS26.VAS  21-MAR-73  09:20:22.850

12037	015304	82860		LDA	BC,5
12040	030656	82880		LDX	W12
12041	050657	82900		STA	W13
12042	002000	82920		JMPM	ACOPY2
12043	012102	
12044	010215	82940		LDA	TIMEH
12045	002000	82960		JMPM	ACOPY2
12046	012102	
12047	012433	82980		LDA	=3
12050	050426	83000		STA	ACSTAT
12051	120215	83020		ADD	TIMEH
12052	050427	83040		STA	ACTIMO
12053	010657	83060	ACOPY1	LDA	W13
12054	001010	83080		JAZ	ACOPY+.
12055	112026	
12056	005311	83100		DAR
12057	050657	83120		STA	W13
12060	002000	83140		JMPM	SBOD
12061	005036	
12062	032511	83160		LDX	=BUFERS+1
12063	002000	83180		JMPM	GCI
12064	005717	
12065	050646	83200		STA	W4
12066	002000	83220		JMPM	WCI
12067	006122	
12070	030656	83240		LDX	W12
12071	010646	83260		LDA	W4
12072	152531	83280		ANA	=370
12073	002010	83300		JAZM	WCI
12074	006122	
12075	010646	83320		LDA	W4
12076	002000	83340		JMPM	WCI
12077	006122	
12100	001000	83360		JMP	ACOPY1
12101	012053	
12102	000000	83380	ACOPY2	0
12103	050643	83400		STA	W1
12104	004350	83420		LSRA	10
12105	152531	83440		ANA	=370
12106	002010	83460		JAZM	WCI
12107	006122	
12110	010643	83480		LDA	W1
12111	004350	83500		LSRA	10
12112	002000	83520		JMPM	WCI
12113	006122	
12114	010643	83540		LDA	W1
12115	152531	83560		ANA	=370
12116	002010	83580		JAZM	WCI
12117	006122	
12120	010643	83600		LDA	W1
12121	002000	83620		JMPM	WCI
12122	006122	
12123	001000	83640		JMP	ACOPY2+.
12124	112102	
PAGE 01  VERS26.VAS  21-MAR-73  09:20:23.583

12125	001010	83660	SECQ	JAZ	SECR
12126	012141	
12127	010427	83680		LDA	ACTIMO
12130	140215	83700		SUB	TIMEH
12131	001002	83720		JAP	SECW4
12132	012157	
12133	010430	83740		LDA	APORT
12134	001010	83760		JAZ	SECR
12135	012141	
12136	002000	83780		JMPM	ZAP
12137	010311	
12140	005001	83800		TZA
12141	050430	83820	SECR	STA	APORT
12142	050645	83840		STA	W3
12143	005101	83860		INC	,A
12144	050426	83880		STA	ACSTAT
12145	010215	83900		LDA	TIMEH
12146	122460	83920		ADD	=2
12147	050427	83940		STA	ACTIMO
12150	012601	83960		LDA	=2400
12151	050646	83980		STA	W4
12152	012602	84000		LDA	=50000
12153	002000	84020		JMPM	LEPSEN
12154	010467	
12155	001000	84040		JMP	SECW4
12156	012157	
      	      	84060	* 256 SECOND LOGIC
12157	010214	84080	SECW4	LDA	TIMMIN
12160	152621	84100		ANA	=777
12161	005311	84120		DAR
12162	001002	84140		JAP	SEC+.
12163	106361	
12164	011011	84160		LDA	ZAPP
12165	001010	84180		JAZ	SECW4A
12166	012173	
12167	005002	84200		TZB
12170	061011	84220		STB	ZAPP
12171	002000	84240		JMPM	ZAP
12172	010311	
12173	032456	84260	SECW4A	LDX	=NLINES
12174	005002	84280		TZB
12175	005344	84300	SECW5	DXR
12176	015004	84320		LDA	LINER,5
12177	065004	84340		STB	LINER,5
12200	142622	84360		SUB	=40D
12201	001002	84380		JAP	SECW6
12202	012217	
12203	015537	84400		LDA	LINSAT,5
12204	065537	84420		STB	LINSAT,5
12205	142623	84440		SUB	=100D
12206	001002	84460		JAP	*+6
12207	012214	
12210	001040	84480		JXZ	SEC+.
12211	106361	
PAGE 01  VERS26.VAS  21-MAR-73  09:20:24.366

12212	001000	84500		JMP	SECW5
12213	012175	
12214	022624	84520		LDB	=100007
12215	001000	84540		JMP	*+3
12216	012220	
12217	022625	84560	SECW6	LDB	=100006
12220	060645	84580		STB	W3
12221	122622	84600		ADD	=40D
12222	152436	84620		ANA	=1777
12223	004246	84640		LRLA	6
12224	005051	84660		COP	AX,A
12225	050646	84680		STA	W4
12226	012545	84700		LDA	=30000
12227	002000	84720		JMPM	LEPSEN
12230	010467	
12231	001000	84740		JMP	SECW5-2
12232	012173	
12233	000000	84760	BITADD	0
12234	005012	84780		TAB
12235	004144	84800		LSRB	4
12236	152524	84820		ANA	=17
12237	005014	84840		TAX
12240	015663	84860		LDA	MASK,5
12241	001000	84880		JMP	BITADD+.
12242	112233	
12243	000000	84900	BID	0	BIT IDENTIFIER
12244	032524	84920		LDX	=17
12245	001004	84940		JAN	BID+.
12246	112243	
12247	004241	84960		LRLA	1
12250	005344	84980		DXR
12251	001002	85000		JAP	*-2
12252	012247	
12253	001000	85020		JMP	BID+.
12254	112243	
      	      	85040	* WARNING! IOTABLES MUST BE MULTIPLES OF 16 IN LENGTH
      	000001	85060	NLINES	E	1
12255	100301	85080	IOTAB0	100301; 100303
12256	100303	
      	000036	85100		RPT1	20*NGRPS0-2
12257	177777	85120		-1
12260	177777	
12261	177777	
12262	177777	
12263	177777	
12264	177777	
12265	177777	
12266	177777	
12267	177777	
12270	177777	
12271	177777	
12272	177777	
12273	177777	
12274	177777	
PAGE 01  VERS26.VAS  21-MAR-73  09:20:25.033

12275	177777	
12276	177777	
12277	177777	
12300	177777	
12301	177777	
12302	177777	
12303	177777	
12304	177777	
12305	177777	
12306	177777	
12307	177777	
12310	177777	
12311	177777	
12312	177777	
12313	177777	
12314	177777	
      	      	85140	* A DUMMY TABLE TO SATISFY SUPERVISOR
12315	000000	85160	INTERN	0; 0; 0; 0; 0; 0; 0; 0
12316	000000	
12317	000000	
12320	000000	
12321	000000	
12322	000000	
12323	000000	
12324	000000	
12325	000000	85180		0; 0;	0; 0; 0; 0; 0; 0
12326	000000	
12327	000000	
12330	000000	
12331	000000	
12332	000000	
12333	000000	
12334	000000	
      	012335	85200	BR	E	*
      	      	85220	* THE FOLLOWING IS A DUMMY DATA STATEMENT TO CAUSE
      	      	85240	* THE ASSEMBLER TO ISSUE A MULTIPLY DEFINED CELL DIAGNOSTIC
      	      	85260	* IF NOT ENOUGH ROOM HAS BEEN RESERVED FOR THE
      	      	85280	* BUFFER RESTRICTION COUNTS BETWEEN BR AND OSEC
12335	      	85300		R	*+13300-BR+IOTAB0-BR
13220	000000	85320		0
13221	000000	85340		0	READ PRECEEDING COMMENT
      	      	85360	*      END


INDIRECT POOL
00660	007020	
00661	006304	

LITERAL POOL
02433	000003	
02434	001623	
02435	000607	
02436	001777	
02437	015700	
PAGE 01  VERS26.VAS  21-MAR-73  09:20:26.800

02440	000565	
02441	000403	
02442	000057	
02443	017676	
02444	103024	
02445	001774	
02446	013700	
02447	005253	
02450	000041	
02451	000037	
02452	000377	
02453	000007	
02454	074000	
02455	140000	
02456	000001	
02457	000076	
02460	000002	
02461	001013	
02462	000012	
02463	000120	
02464	012255	
02465	012335	
02466	000040	
02467	000006	
02470	000064	
02471	000066	
02472	160000	
02473	020000	
02474	177400	
02475	000005	
02476	000004	
02477	001317	
02500	000304	
02501	056400	
02502	013702	
02503	000044	
02504	000164	
02505	000020	
02506	100000	
02507	000032	
02510	000024	
02511	001014	
02512	001016	
02513	001015	
02514	000564	
02515	000054	
02516	001214	
02517	000240	
02520	000177	
02521	000600	
02522	000740	
02523	001017	
02524	000017	
02525	006103	
PAGE 01  VERS26.VAS  21-MAR-73  09:20:26.916

02526	016000	
02527	002000	
02530	130400	
02531	000370	
02532	000025	
02533	177777	
02534	001253	
02535	000172	
02536	000033	
02537	000300	
02540	000015	
02541	000034	
02542	000013	
02543	000200	
02544	106573	
02545	030000	
02546	000010	
02547	000047	
02550	007053	
02551	007106	
02552	007021	
02553	007146	
02554	177773	
02555	000060	
02556	000215	
02557	000212	
02560	001033	
02561	000170	
02562	001314	
02563	000644	
02564	000646	
02565	107777	
02566	110457	
02567	001313	
02570	000056	
02571	000273	
02572	001776	
02573	100001	
02574	000102	
02575	010301	
02576	000307	
02577	000261	
02600	000255	
02601	002400	
02602	050000	
02603	010000	
02604	000454	
02605	100003	
02606	001213	
02607	011211	
02610	177774	
02611	000073	
02612	001012	
02613	100004	
PAGE 01  VERS26.VAS  21-MAR-73  09:20:27.150

02614	177770	
02615	100005	
02616	011233	
02617	100002	
02620	003001	
02621	000777	
02622	000050	
02623	000144	
02624	100007	
02625	100006	
    [TTJ