    P R O G R A M   M A I N 		COBOL (005002,112001)	21-JUL-73  12:49		PAGE 1
    FAA3.CBL    24-JUN-73  10:07

    0001    000001                                                                  FAAFIN  
	    ^

***				FATAL - FIRST WORD NOT 'IDENTIFICATION'
***				FATAL - IMPROPER PARAGRAPH NAME

    0002    000002    P R O G R A M   B B 0 1 A 		COBOL (005001,107001)	 4-JUN-73  1FAAFIN  
    0003    000003-    7:10		PAGE 1                                                 FAAFIN  
    0004    000004    FAA1.CBL    04-JUN-73  14:36                                  FAAFIN  
    0005    000005                                                                  FAAFIN  
    0006    000006    0001    IDENTIFICATION  DIVISION.                             FAAFIN  
    0007    000007    0002    PROGRAM-ID.     "BB01A".                              FAAFIN  
    0008    000008    0003    AUTHOR.          WESTERN REGION PROGRAMMING STAFF.    FAAFIN  
    0009    000009    0004    INSTALLATION.    FAA, WESTERN REGION.                 FAAFIN  
    0010    000010    0005    DATE-WRITTEN.    16 MAR 1972.                         FAAFIN  
    0011    000011    0006    DATE-COMPILED. 04-JUN-73.                             FAAFIN  
    0012    000012    0007    REMARKS.                                              FAAFIN  
    0013    000013    0008        PURPOSE.                                          FAAFIN  
    0014    000014    0009        VALIDATE SIP-6 CARD INPUT AND PREPARE BATCH LISTINFAAFIN  
    0015    000015-    G                                                            FAAFIN  
    0016    000016    0010        SHOWING CODING ERRORS AND TOTALS.                 FAAFIN  
    0017    000017    0011        REVISIONS.                                        FAAFIN  
    0018    000018    0012        01-20-73                                          FAAFIN  
    0019    000019    0013        PROGRAMMER KEN ELSING, FAA WESTERN REGION.        FAAFIN  
    0020    000020    0014        MODIFY EDIT AND CHANGE HEADINGS.                  FAAFIN  
    0021    000021    0015    ENVIRONMENT  DIVISION.                                FAAFIN  
    0022    000022    0016    CONFIGURATION  SECTION.                               FAAFIN  
    0023    000023    0017    SOURCE-COMPUTER. DECsystem-10.                        FAAFIN  
    0024    000024    0018    OBJECT-COMPUTER. PDP-10.                              FAAFIN  
    0025    000025    0019    INPUT-OUTPUT  SECTION.                                FAAFIN  
    0026    000026    0020    FILE-CONTROL.                                         FAAFIN  
    0027    000027    0021        SELECT  TRANS   ASSIGN DSK,                       FAAFIN  
    0028    000028    0022          RECORDING MODE IS ASCII.                        FAAFIN  
    0029    000029    0023                                                          FAAFIN  
    0030    000030    0024        SELECT  PRINT   ASSIGN DSK,                       FAAFIN  
    0031    000031    0025          RECORDING MODE IS ASCII.                        FAAFIN  
    0032    000032    0026                                                          FAAFIN  
    0033    000033    0027    DATA  DIVISION.                                       FAAFIN  
    0034    000034    0028    FILE  SECTION.                                        FAAFIN  
    0035    000035    0029    FD   TRANS                                            FAAFIN  
    0036    000036    0030        RECORD  CONTAINS   80  CHARACTERS                 FAAFIN  
    0037    000037    0031        LABEL   RECORDS   ARE  STANDARD                   FAAFIN  
    0038    000038    0032           VALUE OF IDENTIFICATION IS "TRANS DAT"         FAAFIN  
    0039    000039    0033        DATA    RECORD    IS   REC-IN.                    FAAFIN  
    0040    000040    0034    01   REC-IN          PICTURE X(80).                   FAAFIN  
    0041    000041    0035    FD   PRINT                                            FAAFIN  
    0042    000042    0036        RECORD  CONTAINS  133  CHARACTERS                 FAAFIN  
    0043    000043    0037        LABEL RECORDS ARE STANDARD                        FAAFIN  
    0044    000044    0038           VALUE OF IDENTIFICATION IS "PRINT DAT"         FAAFIN  
    0045    000045    0039           DATA RECORD IS PRINT-LINE.                     FAAFIN  
    0046    000046    0040    01   PRINT-LINE.                                      FAAFIN  
    0047    000047    0041        03  FILLER          PICTURE X.                    FAAFIN  
    0048    000048    0042        03  PRINT-IO        PICTURE X(132).               FAAFIN  
    0049    000049    0043        03  DETAIL-LINE REDEFINES PRINT-IO.               FAAFIN  
    0050    000050    0044            05  FILLER          PICTURE X(3).             FAAFIN  
    0051    000051    0045            05  BATCH-RPT       PICTURE X(3).             FAAFIN      P R O G R A M   M A I N 		COBOL (005002,112001)	21-JUL-73  12:49		PAGE 1-1
    FAA3.CBL    24-JUN-73  10:07

    0052    000052    0046            05  FILLER          PICTURE X(3).             FAAFIN  
    0053    000053    0047            05  REG-RPT         PICTURE X.                FAAFIN  
    0054    000054    0048            05  CST-CEN-RPT     PICTURE X(4).             FAAFIN  
    0055    000055    0049            05  FILLER          PICTURE X(4).             FAAFIN  
    0056    000056    0050            05  LOCATION-RPT    PICTURE X(4).             FAAFIN  
    0057    000057    0051            05  FILLER          PICTURE XX.               FAAFIN  
    0058    000058    0052            05  FAC-TYPE-RPT    PICTURE X(5).             FAAFIN  
    0059    000059    0053            05  FILLER          PICTURE XX.               FAAFIN  
    0060    000060    0054            05  FSNA-RPT        PICTURE X(4).             FAAFIN  
    0061    000061    0055            05  DASH1-RPT       PICTURE X.                FAAFIN  
    0062    000062    0056            05  FSNB-RPT        PICTURE X(3).             FAAFIN  
    0063    000063    P R O G R A M   B B 0 1 A 		COBOL (005001,107001)	 4-JUN-73  1FAAFIN  
    0064    000064-    7:10		PAGE 1-1                                               FAAFIN  
    0065    000065    FAA1.CBL    04-JUN-73  14:36                                  FAAFIN  
    0066    000066                                                                  FAAFIN  
    0067    000067    0057            05  DASH2-RPT       PICTURE X.                FAAFIN  
    0068    000068    0058            05  FSNC-RPT        PICTURE X(3).             FAAFIN  
    0069    000069    0059            05  FSND-RPT        PICTURE X.                FAAFIN  
    0070    000070    0060            05  FILLER          PICTURE X.                FAAFIN  
    0071    000071    0061            05  EXCESS-FLAG-RPT PICTURE X.                FAAFIN  
    0072    000072    0062            05  FILLER          PICTURE XX.               FAAFIN  
    0073    000073    0063            05  EQUIP-RPT       PICTURE X(14).            FAAFIN  
    0074    000074    0064            05  FILLER          PICTURE XX.               FAAFIN  
    0075    000075    0065            05  OWN-RPT         PICTURE X.                FAAFIN  
    0076    000076    0066            05  FILLER          PICTURE X(3).             FAAFIN  
    0077    000077    0067            05  ASS-CODE-RPT    PICTURE XX.               FAAFIN  
    0078    000078    0068            05  FILLER          PICTURE X(3).             FAAFIN  
    0079    000079    0069            05  QUANTITY-RPT    PICTURE XX.               FAAFIN  
    0080    000080    0070            05  FILLER          PICTURE X.                FAAFIN  
    0081    000081    0071            05  UNIT-VALUE-RPT  PICTURE Z,ZZZ,ZZZ.99.     FAAFIN  
    0082    000082    0072            05  TOTAL-VALUE-RPT PICTURE ZZZ,ZZZ,ZZZ.99.   FAAFIN  
    0083    000083    0073            05  FILLER          PICTURE X(3).             FAAFIN  
    0084    000084    0074            05  TRANS-CODE-RPT  PICTURE XX.               FAAFIN  
    0085    000085    0075            05  FILLER          PICTURE X(3).             FAAFIN  
    0086    000086    0076            05  MONTH-RPT       PICTURE X.                FAAFIN  
    0087    000087    0077            05  DASH3-RPT       PICTURE X.                FAAFIN  
    0088    000088    0078            05  YEAR-RPT        PICTURE XX.               FAAFIN  
    0089    000089    0079            05  FILLER          PICTURE X(3).             FAAFIN  
    0090    000090    0080            05  DOC-NUM-RPT     PICTURE X(5).             FAAFIN  
    0091    000091    0081            05  FILLER          PICTURE X(10).            FAAFIN  
    0092    000092    0082        03  TOTAL-LINE-RPT REDEFINES PRINT-IO.            FAAFIN  
    0093    000093    0083            05  FILLER          PICTURE X(19).            FAAFIN  
    0094    000094    0084            05  T-1             PICTURE X(8).             FAAFIN  
    0095    000095    0085            05  T-2             PICTURE X(6).             FAAFIN  
    0096    000096    0086            05  T-3             PICTURE X(8).             FAAFIN  
    0097    000097    0087            05  FILLER          PICTURE X(10).            FAAFIN  
    0098    000098    0088            05  T-4             PICTURE X(8).             FAAFIN  
    0099    000099    0089            05  FILLER          PICTURE X(6).             FAAFIN  
    0100    000100    0090            05  DECR-CNT-RPT    PICTURE ZZ,ZZZ.           FAAFIN  
    0101    000101    0091            05  FILLER          PICTURE X(3).             FAAFIN  
    0102    000102    0092            05  DECR-AMT-RPT    PICTURE ZZZ,ZZZ,ZZZ.ZZCR. FAAFIN  
    0103    000103    0093            05  FILLER          PICTURE X(3).             FAAFIN  
    0104    000104    0094            05  T-5             PICTURE X(8).             FAAFIN  
    0105    000105    0095            05  FILLER          PICTURE X(3).             FAAFIN  
    0106    000106    0096            05  INCR-CNT-RPT    PICTURE ZZ,ZZZ.           FAAFIN  
    0107    000107    0097            05  FILLER          PICTURE XX.               FAAFIN      P R O G R A M   M A I N 		COBOL (005002,112001)	21-JUL-73  12:49		PAGE 1-2
    FAA3.CBL    24-JUN-73  10:07

    0108    000108    0098            05  INCR-AMT-RPT    PICTURE ZZZ,ZZZ,ZZZ.ZZCR. FAAFIN  
    0109    000109    0099            05  FILLER          PICTURE X(4).             FAAFIN  
    0110    000110    0100    WORKING-STORAGE  SECTION.                             FAAFIN  
    0111    000111    0101    77   PRT-CTRL   PICTURE X.                            FAAFIN  
    0112    000112    0102    77   ERROR-IND           PICTURE X   VALUE "0".       FAAFIN  
    0113    000113    0103    77   FIRST-RCD-IND       PICTURE X   VALUE "0".       FAAFIN  
    0114    000114    0104    77   END-JOB-IND         PICTURE X   VALUE "0".       FAAFIN  
    0115    000115    0105    77   WS-REGION-HOLD      PICTURE X   VALUE SPACE.     FAAFIN  
    0116    000116    0106    77   WS-BATCH-HOLD       PICTURE X(3)  VALUE SPACE.   FAAFIN  
    0117    000117    0107    77   WS-DOC-NUM          PICTURE X(5)  VALUE SPACE.   FAAFIN  
    0118    000118    0108    77   AC-HOLD             PICTURE XX  VALUE SPACE.     FAAFIN  
    0119    000119    0109    77   TR-HOLD             PICTURE XX  VALUE SPACE.     FAAFIN  
    0120    000120    0110    77   SUB         PICTURE S99 USAGE IS COMPUTATIONAL.  FAAFIN  
    0121    000121    0111    77   LINE-CTR        PICTURE S99         COMPUTATIONALFAAFIN  
    0122    000122-       VALUE 0.                                                  FAAFIN  
    0123    000123    0112    77   PAGE-CTR        PICTURE S9(3)       COMPUTATIONALFAAFIN  
    0124    000124-       VALUE 0.                                                  FAAFIN  
    0125    000125    P R O G R A M   B B 0 1 A 		COBOL (005001,107001)	 4-JUN-73  1FAAFIN  
    0126    000126-    7:10		PAGE 1-2                                               FAAFIN  
    0127    000127    FAA1.CBL    04-JUN-73  14:36                                  FAAFIN  
    0128    000128                                                                  FAAFIN  
    0129    000129    0113    77   DOC-DECR-CTR    PICTURE S9(5)       COMPUTATIONALFAAFIN  
    0130    000130-       VALUE 0.                                                  FAAFIN  
    0131    000131    0114    77   DOC-INCR-CTR    PICTURE S9(5)       COMPUTATIONALFAAFIN  
    0132    000132-       VALUE 0.                                                  FAAFIN  
    0133    000133    0115    77   BATCH-DECR-CTR  PICTURE S9(5)       COMPUTATIONALFAAFIN  
    0134    000134-       VALUE 0.                                                  FAAFIN  
    0135    000135    0116    77   BATCH-INCR-CTR  PICTURE S9(5)       COMPUTATIONALFAAFIN  
    0136    000136-       VALUE 0.                                                  FAAFIN  
    0137    000137    0117    77   BATCH-CTR       PICTURE S9(5)       COMPUTATIONALFAAFIN  
    0138    000138-       VALUE 0.                                                  FAAFIN  
    0139    000139    0118    77   REGION-CTR      PICTURE S9(5)       COMPUTATIONALFAAFIN  
    0140    000140-       VALUE 0.                                                  FAAFIN  
    0141    000141    0119    77   OV-CTR          PICTURE S9(5)       COMPUTATIONALFAAFIN  
    0142    000142-       VALUE 0.                                                  FAAFIN  
    0143    000143    0120    77   DOC-DECR-AMT    PICTURE S9(9)V99    COMPUTATIONALFAAFIN  
    0144    000144-       VALUE 0.                                                  FAAFIN  
    0145    000145    0121    77   DOC-INCR-AMT    PICTURE S9(9)V99    COMPUTATIONALFAAFIN  
    0146    000146-       VALUE 0.                                                  FAAFIN  
    0147    000147    0122    77   BATCH-DECR-AMT  PICTURE S9(9)V99    COMPUTATIONALFAAFIN  
    0148    000148-       VALUE 0.                                                  FAAFIN  
    0149    000149    0123    77   BATCH-INCR-AMT  PICTURE S9(9)V99    COMPUTATIONALFAAFIN  
    0150    000150-       VALUE 0.                                                  FAAFIN  
    0151    000151    0124    77   BATCH-AMT       PICTURE S9(9)V99    COMPUTATIONALFAAFIN  
    0152    000152-       VALUE 0.                                                  FAAFIN  
    0153    000153    0125    77   REGION-AMT      PICTURE S9(9)V99    COMPUTATIONALFAAFIN  
    0154    000154-       VALUE 0.                                                  FAAFIN  
    0155    000155    0126    77   OV-AMT          PICTURE S9(9)V99    COMPUTATIONALFAAFIN  
    0156    000156-       VALUE 0.                                                  FAAFIN  
    0157    000157    0127    77   TEMP-TOTAL      PICTURE S9(9)V99    COMPUTATIONALFAAFIN  
    0158    000158-       VALUE 0.                                                  FAAFIN  
    0159    000159    0128    77   UNIT-VALUE-WS   PICTURE S9(9)V99  COMPUTATIONAL  FAAFIN  
    0160    000160-     VALUE 0.                                                    FAAFIN  
    0161    000161    0129    77   QUAN-WS         PICTURE S9(3)     COMPUTATIONAL  FAAFIN  
    0162    000162-     VALUE 0.                                                    FAAFIN  
    0163    000163    0130    01   WORK-CONSTANTS.                                  FAAFIN      P R O G R A M   M A I N 		COBOL (005002,112001)	21-JUL-73  12:49		PAGE 1-3
    FAA3.CBL    24-JUN-73  10:07

    0164    000164    0131        03  HYPHEN      PICTURE X   VALUE  "-".           FAAFIN  
    0165    000165    0132        03  DOCMNT      PICTURE X(8)   VALUE "DOCUMENT".  FAAFIN  
    0166    000166    0133        03  TOTL        PICTURE X(8)   VALUE "TOTAL   ".  FAAFIN  
    0167    000167    0134        03  INCR        PICTURE X(8)   VALUE "INCREASE".  FAAFIN  
    0168    000168    0135        03  DECR        PICTURE X(8)   VALUE "DECREASE".  FAAFIN  
    0169    000169    0136        03  ITEM        PICTURE X(6)   VALUE "ITEM  ".    FAAFIN  
    0170    000170    0137        03  BATCH       PICTURE X(8)   VALUE "  BATCH ".  FAAFIN  
    0171    000171    0138        03  TVAL        PICTURE X(8)   VALUE "  VALUE ".  FAAFIN  
    0172    000172    0139        03  TCNT        PICTURE X(8)   VALUE "  COUNT ".  FAAFIN  
    0173    000173    0140        03  TNET        PICTURE X(8)   VALUE "   NET  ".  FAAFIN  
    0174    000174    0141    01   TRANS-INPUT-WS              PICTURE X(80) VALUE SFAAFIN  
    0175    000175-    PACES.                                                       FAAFIN  
    0176    000176    0142    01   TR-IN-WS-X REDEFINES TRANS-INPUT-WS.             FAAFIN  
    0177    000177    0143        03  FILL-BB                 PICTURE XX.           FAAFIN  
    0178    000178    0144        03  REGION-IN               PICTURE X.            FAAFIN  
    0179    000179    0145        03  CST-CEN-CODE-IN         PICTURE X(4).         FAAFIN  
    0180    000180    0146        03  LOCATION-IN             PICTURE X(4).         FAAFIN  
    0181    000181    0147        03  FAC-ID-IN.                                    FAAFIN  
    0182    000182    0148            05  SYSTEM-IN           PICTURE X.            FAAFIN  
    0183    000183    0149            05  CATEGORY-IN         PICTURE X.            FAAFIN  
    0184    000184    0150            05  FAC-TYPE-IN.                              FAAFIN  
    0185    000185    0151                07  FAC-TYPE-1ST    PICTURE X.            FAAFIN  
    0186    000186    0152                07  FAC-TYPE-2ND    PICTURE X.            FAAFIN  
    0187    000187    0153            05  M-CODE              PICTURE X.            FAAFIN  
    0188    000188    0154        03  FSN-IN.                                       FAAFIN  
    0189    000189    0155            05  FSNA-IN             PICTURE X(4).         FAAFIN  
    0190    000190    0156            05B-IN             PICTURE X(3).         FAAFIN  
    0191    000191    0157            05  FSNLAST-4-IN.                             FAAFIN  
    0192    000192    0158                07  FSNC-IN         PICTURE X(3).         FAAFIN  
    0193    000193    0159                07  FSND-IN         PICTURE X.            FAAFIN  
    0194    000194    0160        03  EQUIPMENT-IN            PICTURE X(14).        FAAFIN  
    0195    000195    0161        03  OWN-IN                  PICTURE X.            FAAFIN  
    0196    000196    0162        03  ASSET-CODE-IN           PICTURE XX.           FAAFIN  
    0197    000197    0163        03  QUANTITY-IN             PICTURE XX.           FAAFIN  
    0198    000198    0164        03  QUANTITY-IN-9 REDEFINES QUANTITY-IN PICTURE 99FAAFIN  
    0199    000199-    .                                                            FAAFIN  
    0200    000200    0165        03  UNIT-VALUE-IN           PICTURE 9(7)V99.      FAAFIN  
    0201    000201    0166        03  UNIT-VALUE-X REDEFINES UNIT-VALUE-IN PICTURE XFAAFIN  
    0202    000202-    (9).                                                         FAAFIN  
    0203    000203    0167        03  TOTAL-VALUE-IN          PICTURE 9(7)V99.      FAAFIN  
    0204    000204    0168        03  TOTAL-VALUE-X REDEFINES TOTAL-VALUE-IN PICTUREFAAFIN  
    0205    000205-     X(9).                                                       FAAFIN  
    0206    000206    P R O G R A M   B B 0 1 A 		COBOL (005001,107001)	 4-JUN-73  1FAAFIN  
    0207    000207-    7:10		PAGE 1-3                                               FAAFIN  
    0208    000208    FAA1.CBL    04-JUN-73  14:36                                  FAAFIN  
    0209    000209                                                                  FAAFIN  
    0210    000210    0169        03  TRANS-CODE-IN           PICTURE XX.           FAAFIN  
    0211    000211    0170        03  ACTION-DATE-IN.                               FAAFIN  
    0212    000212    0171            05  MONTH-IN            PICTURE X.            FAAFIN  
    0213    000213    0172            05  YEAR-IN             PICTURE XX.           FAAFIN  
    0214    000214    0173        03  DOC-NUM-IN              PICTURE X(5).         FAAFIN  
    0215    000215    0174        03  BATCH-NUM-IN            PICTURE X(3).         FAAFIN  
    0216    000216    0175        03  FILLER                  PICTURE X(3).         FAAFIN  
    0217    000217    0176    01   HEAD-1.                                          FAAFIN  
    0218    000218    0177        03  FILLER      PICTURE X(16)  VALUE "RIN_  BB01ARFAAFIN  
    0219    000219-    "1   ".                                                      FAAFIN      P R O G R A M   M A I N 		COBOL (005002,112001)	21-JUL-73  12:49		PAGE 1-4
    FAA3.CBL    24-JUN-73  10:07

    0220    000220    0178        03  REGION-HDR  PICTURE X(21)  VALUE SPACES.      FAAFIN  
    0221    000221    0179        03  FILLER      PICTURE X(60)  VALUE "     PERSONAFAAFIN  
    0222    000222-    "L PROPERTY INVENTORY BATCH LISTING              ".          FAAFIN  
    0223    000223    0181        03  DATE-HDR    PICTURE X(11)  VALUE SPACES.      FAAFIN  
    0224    000224    0182        03  FILLER      PICTURE X(20)  VALUE "            FAAFIN  
    0225    000225-    "   PAGE ".                                                  FAAFIN  
    0226    000226    0183        03  PAGE-HDR    PICTURE ZZ.                       FAAFIN  
    0227    000227    0184        03  FILLER      PICTURE X     VALUE SPACE.        FAAFIN  
    0228    000228    0185    01   HEAD-2.                                          FAAFIN  
    0229    000229    0186        03  FILLER      PICTURE X(20) VALUE "  BATCH  COSTFAAFIN  
    0230    000230-    "     LO".                                                   FAAFIN  
    0231    000231    0187        03  FILLER      PICTURE X(20) VALUE "CA  FAC    FEFAAFIN  
    0232    000232-    "D STK  ".                                                   FAAFIN  
    0233    000233    0188        03  FILLER      PICTURE X(20) VALUE "NO     EQUIP FAAFIN  
    0234    000234-    " TYPE  ".                                                   FAAFIN  
    0235    000235    0189        03  FILLER      PICTURE X(20) VALUE "    O ASSET QFAAFIN  
    0236    000236-    "UAN    ".                                                   FAAFIN  
    0237    000237    0190        03  FILLER      PICTURE X(3) VALUE SPACE.         FAAFIN  
    0238    000238    0191        03  FILLER      PICTURE X(20) VALUE "UNIT       SUFAAFIN  
    0239    000239-    "MMARY  ".                                                   FAAFIN  
    0240    000240    0192        03  FILLER      PICTURE X(20) VALUE " TRS  ACTION FAAFIN  
    0241    000241-    " DOCMT ".                                                   FAAFIN  
    0242    000242    0193        03  FILLER      PICTURE X(9) VALUE SPACE.         FAAFIN  
    0243    000243    0194    01   HEAD-3.                                          FAAFIN  
    0244    000244    0195        03  FILLER      PICTURE X(20) VALUE "    NO    CENFAAFIN  
    0245    000245-    "TER  TI".                                                   FAAFIN  
    0246    000246    0196        03  FILLER      PICTURE X(20) VALUE "ON   TYPE  FCFAAFIN  
    0247    000247-    "LT OR I".                                                   FAAFIN  
    0248    000248    0197        03  FILLER      PICTURE X(20) VALUE "NST      SERIFAAFIN  
    0249    000249-    "AL  NO ".                                                   FAAFIN  
    0250    000250    0198        03  FILLER      PICTURE X(20) VALUE "    W  CODE TFAAFIN  
    0251    000251-    "ITY    ".                                                   FAAFIN  
    0252    000252    0199        03  FILLER      PICTURE X(3) VALUE SPACE.         FAAFIN  
    0253    000253    0200        03  FILLER      PICTURE X(20) VALUE "PRICE      VAFAAFIN  
    0254    000254-    "LUE    ".                                                   FAAFIN  
    0255    000255    0201        03  FILLER      PICTURE X(20) VALUE "  CD   M YR  FAAFIN  
    0256    000256-    "    NO ".                                                   FAAFIN  
    0257    000257    0202        03  FILLER      PICTURE X(9) VALUE SPACE.         FAAFIN  
    0258    000258    0203    01   ERROR-LN        PICTURE X(132)  VALUE SPACES.    FAAFIN  
    0259    000259    0204    01   ERROR-LINE REDEFINES ERROR-LN.                   FAAFIN  
    0260    000260    0205        03  FILLER      PICTURE X(3).                     FAAFIN  
    0261    000261    0206        03  BTCH-ERR    PICTURE XXX.                      FAAFIN  
    0262    000262    0207        03  FILLER      PICTURE XXX.                      FAAFIN  
    0263    000263    0208        03  CC-ERR.                                       FAAFIN  
    0264    000264    0209            05  REG-ERR PICTURE X.                        FAAFIN  
    0265    000265    0210            05  CST-ERR PICTURE X(4).                     FAAFIN  
    0266    000266    0211        03  FILLER      PICTURE X(4).                     FAAFIN  
    0267    000267    0212        03  LOC-ERR     PICTURE X(4).                     FAAFIN  
    0268    000268    0213        03  FILLER      PICTURE XX.                       FAAFIN  
    0269    000269    0214        03  FACTPE-ERR  PICTURE X(5).                     FAAFIN  
    0270    000270    0215        03  FILLER      PICTURE XX.                       FAAFIN  
    0271    000271    0216        03  FSN.                                          FAAFIN  
    0272    000272    0217            05  FSNA-ERR PICTURE X(4).                    FAAFIN  
    0273    000273    0218            05  FILLER   PICTURE X.                       FAAFIN  
    0274    000274    0219            05  FSNB-ERR PICTURE XXX.                     FAAFIN  
    0275    000275    0220            05  FILLER   PICTURE X.                       FAAFIN      P R O G R A M   M A I N 		COBOL (005002,112001)	21-JUL-73  12:49		PAGE 1-5
    FAA3.CBL    24-JUN-73  10:07

    0276    000276    0221            05  FSNC-ERR PICTURE XXX.                     FAAFIN  
    0277    000277    0222            05  FSND-ERR PICTURE X.                       FAAFIN  
    0278    000278    0223        03  FILLER       PICTURE X(4).                    FAAFIN  
    0279    000279    0224        03  EQUIP-ERR    PICTURE X(14).                   FAAFIN  
    0280    000280    P R O G R A M   B B 0 1 A 		COBOL (005001,107001)	 4-JUN-73  1FAAFIN  
    0281    000281-    7:10		PAGE 1-4                                               FAAFIN  
    0282    000282    FAA1.CBL    04-JUN-73  14:36                                  FAAFIN  
    0283    000283                                                                  FAAFIN  
    0284    000284    0225        03  FILLER     PICTURE   XX.                      FAAFIN  
    0285    000285    0226        03  OWN-ERR      PICTURE X.                       FAAFIN  
    0286    000286    0227        03  FILLER       PICTURE XXX.                     FAAFIN  
    0287    000287    0228        03  AC-ERR      PICTURE XX.                       FAAFIN  
    0288    000288    0229        03  FILLER      PICTURE XXX.                      FAAFIN  
    0289    000289    0230        03  QUAN-ERR    PICTURE XX.                       FAAFIN  
    0290    000290    0231        03  FILLER      PICTURE XXX.                      FAAFIN  
    0291    000291    0232        03  PRICE-ERR   PICTURE X(10).                    FAAFIN  
    0292    000292    0233        03  FILLER      PICTURE X(3).                     FAAFIN  
    0293    000293    0234        03  VALUE-ERR   PICTURE X(11).                    FAAFIN  
    0294    000294    0235        03  FILLER      PICTURE X(3).                     FAAFIN  
    0295    000295    0236        03  TR-CD-ERR   PICTURE XX.                       FAAFIN  
    0296    000296    0237        03  FILLER      PICTURE XXX.                      FAAFIN  
    0297    000297    0238        03  ACT-DTE-ERR PICTURE XXXX.                     FAAFIN  
    0298    000298    0239        03  FILLER      PICTURE X(6).                     FAAFIN  
    0299    000299    0240        03  DOC-NO-ERR  PICTURE X(5).                     FAAFIN  
    0300    000300    0241        03  ERR-FLG     PICTURE X(10).                    FAAFIN  
    0301    000301    0242    01   ADD-TBLS.                                        FAAFIN  
    0302    000302    0243        03  FILLER      PICTURE X(40)   VALUE             FAAFIN  
    0303    000303    0244            "0A0B0C0D0E0F0G00010203040506070851535557".   FAAFIN  
    0304    000304    0245    01   ADDS        REDEFINES  ADD-TBLS.                 FAAFIN  
    0305    000305    0246        03  INCR-TBL    OCCURS  37  TIMES  PICTURE XX.    FAAFIN  
    0306    000306    0247    01   DELETES.                                         FAAFIN  
    0307    000307    0248        03  FILLER      PICTURE X(44)   VALUE             FAAFIN  
    0308    000308    0249            "1A1B1C1D1F1G1H1I1J1K10111214151718212325271M"FAAFIN  
    0309    000309-    .                                                            FAAFIN  
    0310    000310    0250    01   SUB-DR REDEFINES DELETES.                        FAAFIN  
    0311    000311    0251        03  DECR-TBL    OCCURS  22  TIMES  PICTURE XX.    FAAFIN  
    0312    000312    0252    01   ASSET-CODE-TABLE.                                FAAFIN  
    0313    000313    0253        03  FILLER  VALUE  "11" PICTURE  XX.              FAAFIN  
    0314    000314    0254        03  FILLER  VALUE  "12" PICTURE  XX.              FAAFIN  
    0315    000315    0255        03  FILLER  VALUE  "13" PICTURE  XX.              FAAFIN  
    0316    000316    0256        03  FILLER  VALUE  "14" PICTURE  XX.              FAAFIN  
    0317    000317    0257        03  FILLER  VALUE  "15" PICTURE  XX.              FAAFIN  
    0318    000318    0258        03  FILLER  VALUE  "16" PICTURE  XX.              FAAFIN  
    0319    000319    0259        03  FILLER  VALUE  "20" PICTURE  XX.              FAAFIN  
    0320    000320    0260        03  FILLER  VALUE  "41" PICTURE  XX.              FAAFIN  
    0321    000321    0261        03  FILLER  VALUE  "42" PICTURE  XX.              FAAFIN  
    0322    000322    0262        03  FILLER  VALUE  "43" PICTURE  XX.              FAAFIN  
    0323    000323    0263        03  FILLER  VALUE  "44" PICTURE  XX.              FAAFIN  
    0324    000324    0264        03  FILLER  VALUE  "45" PICTURE  XX.              FAAFIN  
    0325    000325    0265        03  FILLER  VALUE  "46" PICTURE  XX.              FAAFIN  
    0326    000326    0266        03  FILLER  VALUE  "61" PICTURE  XX.              FAAFIN  
    0327    000327    0267        03  FILLER  VALUE  "62" PICTURE  XX.              FAAFIN  
    0328    000328    0268        03  FILLER  VALUE  "63" PICTURE  XX.              FAAFIN  
    0329    000329    0269        03  FILLER  VALUE  "64" PICTURE  XX.              FAAFIN  
    0330    000330    0270        03  FILLER  VALUE  "81" PICTURE  XX.              FAAFIN  
    0331    000331    0271        03  FILLER  VALUE  "82" PICTURE  XX.              FAAFIN      P R O G R A M   M A I N 		COBOL (005002,112001)	21-JUL-73  12:49		PAGE 1-6
    FAA3.CBL    24-JUN-73  10:07

    0332    000332    0272        03  FILLER  VALUE  "83" PICTURE  XX.              FAAFIN  
    0333    000333    0273    01   G1  REDEFINES ASSET-CODE-TABLE.                  FAAFIN  
    0334    000334    0274        03  AC OCCURS 20 TIMES    PICTURE XX.             FAAFIN  
    0335    000335    0275    01   TABLE-B.                                         FAAFIN  
    0336    000336    0276        03  REGION-TABLE.                                 FAAFIN  
    0337    000337    0277            05  FILLER  PICTURE X(22) VALUE "4WESTERN REGIFAAFIN  
    0338    000338-    "ON       ".                                                 FAAFIN  
    0339    000339    0278            05  FILLER  PICTURE X(22) VALUE "DROCKY MOUNTAFAAFIN  
    0340    000340-    "IN REGION".                                                 FAAFIN  
    0341    000341    0279            05  FILLER  PICTURE X(22) VALUE "SNORTHWEST REFAAFIN  
    0342    000342-    "GION     ".                                                 FAAFIN  
    0343    000343    0280            05  FILLER  PICTURE X(22) VALUE "ENEW ENGLAND FAAFIN  
    0344    000344-    "REGION   ".                                                 FAAFIN  
    0345    000345    P R O G R A M   B B 0 1 A 		COBOL (005001,107001)	 4-JUN-73  1FAAFIN  
    0346    000346-    7:10		PAGE 1-5                                               FAAFIN  
    0347    000347    FAA1.CBL    04-JUN-73  14:36                                  FAAFIN  
    0348    000348                                                                  FAAFIN  
    0349    000349    0281            05  FILLER  PICTURE X(22) VALUE "CGREAT LAKES FAAFIN  
    0350    000350-    "REGION   ".                                                 FAAFIN  
    0351    000351    0282            05  FILLER  PICTURE X(22) VALUE "1EASTERN REGIFAAFIN  
    0352    000352-    "ON       ".                                                 FAAFIN  
    0353    000353    0283            05  FILLER  PICTURE X(22) VALUE "2SOUTHWEST REFAAFIN  
    0354    000354-    "GION     ".                                                 FAAFIN  
    0355    000355    0284            05  FILLER  PICTURE X(22) VALUE "3CENTRAL REGIFAAFIN  
    0356    000356-    "ON       ".                                                 FAAFIN  
    0357    000357    0285            05  FILLER  PICTURE X(22) VALUE "5ALASKAN REGIFAAFIN  
    0358    000358-    "ON       ".                                                 FAAFIN  
    0359    000359    0286            05  FILLER  PICTURE X(22) VALUE "6PACIFIC REGIFAAFIN  
    0360    000360-    "ON       ".                                                 FAAFIN  
    0361    000361    0287            05  FILLER  PICTURE X(22) VALUE "7SOUTHERN REGFAAFIN  
    0362    000362-    "ION      ".                                                 FAAFIN  
    0363    000363    0288        03  REG-TBL REDEFINES REGION-TABLE                FAAFIN  
    0364    000364    0289                    OCCURS 11 TIMES PICTURE X(22).        FAAFIN  
    0365    000365    0290    01   REG-BRKDWN  PICTURE X(22)   VALUE SPACES.        FAAFIN  
    0366    000366    0291    01   R-BRK REDEFINES REG-BRKDWN.                      FAAFIN  
    0367    000367    0292        03  REG-CODE-TBL        PICTURE X.                FAAFIN  
    0368    000368    0293        03  REG-NAME-TBL        PICTURE X(21).            FAAFIN  
    0369    000369    0294    01   NUMERIC-CHECK-AREA.                              FAAFIN  
    0370    000370    0295        03  NUMB-TEST-9     PICTURE X(10) VALUE "000000000FAAFIN  
    0371    000371-    "0".                                                         FAAFIN  
    0372    000372    0296        03  N-T-9 REDEFINES NUMB-TEST-9.                  FAAFIN  
    0373    000373    0297            05  NINE-TEST   PICTURE X(9).                 FAAFIN  
    0374    000374    0298            05  FILLER      PICTURE X.                    FAAFIN  
    0375    000375    0299        03  NUMB-TEST-5     PICTURE X(6)  VALUE "000000". FAAFIN  
    0376    000376    0300        03  N-T-5 REDEFINES NUMB-TEST-5.                  FAAFIN  
    0377    000377    0301            05  FIVE-TEST   PICTURE X(5).                 FAAFIN  
    0378    000378    0302            05  FILLER      PICTURE X.                    FAAFIN  
    0379    000379    0303        03  NUMB-TEST-4     PICTURE X(5)  VALUE "00000".  FAAFIN  
    0380    000380    0304        03  N-T-4 REDEFINES NUMB-TEST-4.                  FAAFIN  
    0381    000381    0305            05  FOUR-TEST   PICTURE X(4).                 FAAFIN  
    0382    000382    0306            05  FILLER      PICTURE X.                    FAAFIN  
    0383    000383    0307        03  NUMB-TEST-3     PICTURE X(4)  VALUE "0000".   FAAFIN  
    0384    000384    0308        03  N-T-3 REDEFINES NUMB-TEST-3.                  FAAFIN  
    0385    000385    0309            05  THREE-TEST  PICTURE X(3).                 FAAFIN  
    0386    000386    0310            05  FILLER      PICTURE X.                    FAAFIN  
    0387    000387    0311    PROCEDURE  DIVISION.                                  FAAFIN      P R O G R A M   M A I N 		COBOL (005002,112001)	21-JUL-73  12:49		PAGE 1-7
    FAA3.CBL    24-JUN-73  10:07

    0388    000388    0312        OPEN INPUT  TRANS,                                FAAFIN  
    0389    000389    0313             OUTPUT PRINT.                                FAAFIN  
    0390    000390    0314        DISPLAY "KEY IN TODAYS DATE - IE_ JAN 10 1973" UPOFAAFIN  
    0391    000391-    N CONSOLE.                                                   FAAFIN  
    0392    000392    0315        ACCEPT DATE-HDR.                                  FAAFIN  
    0393    000393    0316    010-READ-INPUT.                                       FAAFIN  
    0394    000394    0317        READ TRANS INTO TRANS-INPUT-WS AT END             FAAFIN  
    0395    000395    0318            MOVE "1" TO END-JOB-IND                       FAAFIN  
    0396    000396    0319            GO TO 350-INPUT-AT-END.                       FAAFIN  
    0397    000397    0320        IF FIRST-RCD-IND = "0"                            FAAFIN  
    0398    000398    0321            PERFORM 280-FIND-REGION-HDR THRU 290-FIND-REG-FAAFIN  
    0399    000399-    EXIT                                                         FAAFIN  
    0400    000400    0322            PERFORM 300-HEADER-ROUTINE THRU 310-HDR-RTN-EXFAAFIN  
    0401    000401-    IT                                                           FAAFIN  
    0402    000402    0323            MOVE "1" TO FIRST-RCD-IND                     FAAFIN  
    0403    000403    0324            MOVE REGION-IN TO WS-REGION-HOLD              FAAFIN  
    0404    000404    0325            MOVE BATCH-NUM-IN TO WS-BATCH-HOLD            FAAFIN  
    0405    000405    0326            MOVE DOC-NUM-IN TO WS-DOC-NUM.                FAAFIN  
    0406    000406    0327    020-COMPARE-INPUT-TO-HOLDS.                           FAAFIN  
    0407    000407    0328        IF WS-REGION-HOLD NOT = REGION-IN                 FAAFIN  
    0408    000408    0329            PERFORM 260-END-REGION-RTN THRU 270-END-REGIONFAAFIN  
    0409    000409-    -EXIT                                                        FAAFIN  
    0410    000410    0330            GO TO 030-SET-UP-PRINT-LINE.                  FAAFIN  
    0411    000411    0331        IF WS-BATCH-HOLD NOT = BATCH-NUM-IN               FAAFIN  
    0412    000412    0332            PERFORM 240-END-BATCH-RTN THRU 250-BATCH-RTN-EFAAFIN  
    0413    000413-    XIT                                                          FAAFIN  
    0414    000414    0333            MOVE ZEROS TO PAGE-CTR LINE-CTR               FAAFIN  
    0415    000415    0334            PERFORM 300-HEADER-ROUTINE THRU 310-HDR-RTN-EXFAAFIN  
    0416    000416-    IT                                                           FAAFIN  
    0417    000417    0335            GO TO 030-SET-UP-PRINT-LINE.                  FAAFIN  
    0418    000418    0336        IF WS-DOC-NUM NOT = DOC-NUM-IN                    FAAFIN  
    0419    000419    P R O G R A M   B B 0 1 A 		COBOL (005001,107001)	 4-JUN-73  1FAAFIN  
    0420    000420-    7:10		PAGE 1-6                                               FAAFIN  
    0421    000421    FAA1.CBL    04-JUN-73  14:36                                  FAAFIN  
    0422    000422                                                                  FAAFIN  
    0423    000423    0337            PERFORM 220-END-DOC-RTN THRU 230-END-DOC-EXIT.FAAFIN  
    0424    000424    0338    030-SET-UP-PRINT-LINE.                                FAAFIN  
    0425    000425    0339        MOVE REGION-IN       TO REG-RPT.                  FAAFIN  
    0426    000426    0340        MOVE CST-CEN-CODE-IN TO CST-CEN-RPT.              FAAFIN  
    0427    000427    0341        MOVE LOCATION-IN     TO LOCATION-RPT.             FAAFIN  
    0428    000428    0342        MOVE FAC-ID-IN       TO FAC-TYPE-RPT.             FAAFIN  
    0429    000429    0343        MOVE FSNA-IN         TO FSNA-RPT.                 FAAFIN  
    0430    000430    0344        MOVE FSNB-IN         TO FSNB-RPT.                 FAAFIN  
    0431    000431    0345        MOVE FSNC-IN         TO FSNC-RPT.                 FAAFIN  
    0432    000432    0346        MOVE FSND-IN         TO FSND-RPT.                 FAAFIN  
    0433    000433    0347        MOVE HYPHEN          TO DASH1-RPT, DASH2-RPT, DASHFAAFIN  
    0434    000434-    3-RPT.                                                       FAAFIN  
    0435    000435    0348        MOVE EQUIPMENT-IN    TO EQUIP-RPT.                FAAFIN  
    0436    000436    0349        MOVE OWN-IN          TO OWN-RPT.                  FAAFIN  
    0437    000437    0350        MOVE ASSET-CODE-IN TO ASS-CODE-RPT.               FAAFIN  
    0438    000438    0351        MOVE QUANTITY-IN     TO QUANTITY-RPT.             FAAFIN  
    0439    000439    0352        MOVE UNIT-VALUE-IN   TO UNIT-VALUE-RPT.           FAAFIN  
    0440    000440    0353        MOVE TRANS-CODE-IN   TO TRANS-CODE-RPT.           FAAFIN  
    0441    000441    0354        MOVE MONTH-IN        TO MONTH-RPT.                FAAFIN  
    0442    000442    0355        MOVE YEAR-IN         TO YEAR-RPT.                 FAAFIN  
    0443    000443    0356        MOVE DOC-NUM-IN      TO DOC-NUM-RPT.              FAAFIN      P R O G R A M   M A I N 		COBOL (005002,112001)	21-JUL-73  12:49		PAGE 1-8
    FAA3.CBL    24-JUN-73  10:07

    0444    000444    0357        MOVE BATCH-NUM-IN    TO BATCH-RPT.                FAAFIN  
    0445    000445    0358        MOVE CST-CEN-CODE-IN TO FOUR-TEST.                FAAFIN  
    0446    000446    0359        IF NUMB-TEST-4 IS NOT NUMERIC                     FAAFIN  
    0447    000447    0360            MOVE "****" TO CST-ERR                        FAAFIN  
    0448    000448    0361             MOVE "1" TO ERROR-IND.                       FAAFIN  
    0449    000449    0362        IF LOCATION-IN IS NOT ALPHABETIC                  FAAFIN  
    0450    000450    0363            MOVE "****" TO LOC-ERR                        FAAFIN  
    0451    000451    0364             MOVE "1" TO ERROR-IND.                       FAAFIN  
    0452    000452    0365        IF SYSTEM-IN = SPACE OR                           FAAFIN  
    0453    000453    0366            CATEGORY-IN = SPACE OR                        FAAFIN  
    0454    000454    0367            FAC-TYPE-2ND = SPACE OR                       FAAFIN  
    0455    000455    0368            M-CODE = SPACE                                FAAFIN  
    0456    000456    0369            GO TO 040-FACILITY-CODE-ERROR.                FAAFIN  
    0457    000457    0370        IF FAC-TYPE-1ST < "0" OR FAC-TYPE-1ST > "9"       FAAFIN  
    0458    000458    0371            GO TO 040-FACILITY-CODE-ERROR   ELSE          FAAFIN  
    0459    000459    0372            GO TO 050-FSN-CHECK.                          FAAFIN  
    0460    000460    0373    040-FACILITY-CODE-ERROR.                              FAAFIN  
    0461    000461    0374        MOVE "*****" TO FACTPE-ERR.                       FAAFIN  
    0462    000462    0375        MOVE "1" TO ERROR-IND.                            FAAFIN  
    0463    000463    0376    050-FSN-CHECK.                                        FAAFIN  
    0464    000464    0377        IF FSNA-IN = "FCLT"                               FAAFIN  
    0465    000465    0378            GO TO 060-EQP-CK.                             FAAFIN  
    0466    000466    0379        IF FSNA-IN = "INST"                               FAAFIN  
    0467    000467    0380            GO TO 070-CHG-CK.                             FAAFIN  
    0468    000468    0381        MOVE FSNA-IN TO FOUR-TEST.                        FAAFIN  
    0469    000469    0382        IF NUMB-TEST-4 NOT NUMERIC                        FAAFIN  
    0470    000470    0383            MOVE "****" TO FSNA-ERR                       FAAFIN  
    0471    000471    0384            MOVE "1" TO ERROR-IND.                        FAAFIN  
    0472    000472    0385        GO TO 080-CHECK-MID-3.                            FAAFIN  
    0473    000473    0386    060-EQP-CK.                                           FAAFIN  
    0474    000474    0387        IF FSNB-IN NOT = "EQP"                            FAAFIN  
    0475    000475    0388            PERFORM 090-FSN-MID-3-ERROR.                  FAAFIN  
    0476    000476    0389        GO TO 120-LAST-FOUR-SPACES.                       FAAFIN  
    0477    000477    0390    070-CHG-CK.                                           FAAFIN  
    0478    000478    0391        IF FSNB-IN NOT = "CHG"                            FAAFIN  
    0479    000479    0392            PERFORM 090-FSN-MID-3-ERROR.                  FAAFIN  
    0480    000480    P R O G R A M   B B 0 1 A 		COBOL (005001,107001)	 4-JUN-73  1FAAFIN  
    0481    000481-    7:10		PAGE 1-7                                               FAAFIN  
    0482    000482    FAA1.CBL    04-JUN-73  14:36                                  FAAFIN  
    0483    000483                                                                  FAAFIN  
    0484    000484    0393        GO TO 120-LAST-FOUR-SPACES.                       FAAFIN  
    0485    000485    0394    080-CHECK-MID-3.                                      FAAFIN  
    0486    000486    0395        IF FSNB-IN = "WE0" OR "RM0" OR "NW0"              FAAFIN  
    0487    000487    0396            GO TO 100-CHECK-LAST-4FSN.                    FAAFIN  
    0488    000488    0397        MOVE FSNB-IN TO THREE-TEST.                       FAAFIN  
    0489    000489    0398        IF NUMB-TEST-3 IS NOT NUMERIC                     FAAFIN  
    0490    000490    0399            GO TO 090-FSN-MID-3-ERROR.                    FAAFIN  
    0491    000491    0400        GO TO 100-CHECK-LAST-4FSN.                        FAAFIN  
    0492    000492    0401    090-FSN-MID-3-ERROR.                                  FAAFIN  
    0493    000493    0402        MOVE "***" TO FSNB-ERR.                           FAAFIN  
    0494    000494    0403        MOVE "1" TO ERROR-IND.                            FAAFIN  
    0495    000495    0404    100-CHECK-LAST-4FSN.                                  FAAFIN  
    0496    000496    0405        IF FSND-IN < "?" OR FSND-IN > "I"                 FAAFIN  
    0497    000497    0406            GO TO 110-CHECK-ALL4-NUMERIC.                 FAAFIN  
    0498    000498    0407        MOVE "*" TO EXCESS-FLAG-RPT.                      FAAFIN  
    0499    000499    0408        NOTE ---> THIS NEXT COMPARE IS FOR A 12/0 PUNCH NOFAAFIN      P R O G R A M   M A I N 		COBOL (005002,112001)	21-JUL-73  12:49		PAGE 1-9
    FAA3.CBL    24-JUN-73  10:07

    0500    000500-    T A SPACE.                                                   FAAFIN  
    0501    000501    0409        IF FSND-IN = "?"                                  FAAFIN  
    0502    000502    0410            MOVE "0" TO FSND-RPT.                         FAAFIN  
    0503    000503    0411        IF FSND-IN = "A"                                  FAAFIN  
    0504    000504    0412            MOVE "1" TO FSND-RPT.                         FAAFIN  
    0505    000505    0413        IF FSND-IN = "C"                                  FAAFIN  
    0506    000506    0414            MOVE "3" TO FSND-RPT.                         FAAFIN  
    0507    000507    0415            MOVE "2" TO FSND-RPT.                         FAAFIN  
    0508    000508    0416        IF FSND-IN = "B"                                  FAAFIN  
    0509    000509    0417        IF FSND-IN = "D"                                  FAAFIN  
    0510    000510    0418            MOVE "4" TO FSND-RPT.                         FAAFIN  
    0511    000511    0419        IF FSND-IN = "E"                                  FAAFIN  
    0512    000512    0420            MOVE "5" TO FSND-RPT.                         FAAFIN  
    0513    000513    0421        IF FSND-IN = "F"                                  FAAFIN  
    0514    000514    0422            MOVE "6" TO FSND-RPT.                         FAAFIN  
    0515    000515    0423        IF FSND-IN = "G"                                  FAAFIN  
    0516    000516    0424            MOVE "7" TO FSND-RPT.                         FAAFIN  
    0517    000517    0425        IF FSND-IN = "H"                                  FAAFIN  
    0518    000518    0426            MOVE "8" TO FSND-RPT.                         FAAFIN  
    0519    000519    0427        IF FSND-IN = "I"                                  FAAFIN  
    0520    000520    0428            MOVE "9" TO FSND-RPT.                         FAAFIN  
    0521    000521    0429        MOVE FSNC-IN TO THREE-TEST.                       FAAFIN  
    0522    000522    0430        IF NUMB-TEST-3 IS NOT NUMERIC                     FAAFIN  
    0523    000523    0431            MOVE "***" TO FSNC-ERR                        FAAFIN  
    0524    000524    0432            MOVE "1" TO ERROR-IND.                        FAAFIN  
    0525    000525    0433        GO TO 125-CK-OWN-FIELD.                           FAAFIN  
    0526    000526    0434    110-CHECK-ALL4-NUMERIC.                               FAAFIN  
    0527    000527    0435        MOVE FSNLAST-4-IN TO FOUR-TEST.                   FAAFIN  
    0528    000528    0436        IF NUMB-TEST-4 IS NOT NUMERIC                     FAAFIN  
    0529    000529    0437            MOVE "***" TO FSNC-ERR                        FAAFIN  
    0530    000530    0438            MOVE "*" TO FSND-ERR                          FAAFIN  
    0531    000531    0439            GO TO 110-CHECK-ALL4-NUMERIC.                 FAAFIN  
    0532    000532    0440            MOVE "1" TO ERROR-IND.                        FAAFIN  
    0533    000533    0441    120-LAST-FOUR-SPACES.                                 FAAFIN  
    0534    000534    0442        IF FSNA-IN = "FCLT" OR "INST"                     FAAFIN  
    0535    000535    0443            NEXT SENTENCE  ELSE                           FAAFIN  
    0536    000536    0444            GO TO 125-CK-OWN-FIELD.                       FAAFIN  
    0537    000537    0445        IF FSNLAST-4-IN = SPACES                          FAAFIN  
    0538    000538    0446            GO TO 125-CK-OWN-FIELD.                       FAAFIN  
    0539    000539    0447        MOVE "***" TO FSNC-ERR.                           FAAFIN  
    0540    000540    0448        MOVE "*" TO FSND-ERR.                             FAAFIN  
    0541    000541    P R O G R A M   B B 0 1 A 		COBOL (005001,107001)	 4-JUN-73  1FAAFIN  
    0542    000542-    7:10		PAGE 1-8                                               FAAFIN  
    0543    000543    FAA1.CBL    04-JUN-73  14:36                                  FAAFIN  
    0544    000544                                                                  FAAFIN  
    0545    000545    0449        MOVE "1" TO ERROR-IND.                            FAAFIN  
    0546    000546    0450    125-CK-OWN-FIELD.                                     FAAFIN  
    0547    000547    0451        IF OWN-IN < "1" OR                                FAAFIN  
    0548    000548    0452            OWN-IN > "9"                                  FAAFIN  
    0549    000549    0453            MOVE "*" TO OWN-ERR                           FAAFIN  
    0550    000550    0454            MOVE "1" TO ERROR-IND.                        FAAFIN  
    0551    000551    0455        MOVE 1 TO SUB.                                    FAAFIN  
    0552    000552    0456    130-ASSET-CODE-LOOKUP.                                FAAFIN  
    0553    000553    0457        MOVE AC (SUB) TO AC-HOLD.                         FAAFIN  
    0554    000554    0458        IF ASSET-CODE-IN = AC-HOLD                        FAAFIN  
    0555    000555    0459            GO TO 140-QTY-CHECK.                          FAAFIN      P R O G R A M   M A I N 		COBOL (005002,112001)	21-JUL-73  12:49		PAGE 1-10
    FAA3.CBL    24-JUN-73  10:07

    0556    000556    0460        ADD 1 TO SUB.                                     FAAFIN  
    0557    000557    0461        IF SUB > 20                                       FAAFIN  
    0558    000558    0462            MOVE "**" TO AC-ERR                           FAAFIN  
    0559    000559    0463            MOVE "1" TO ERROR-IND                         FAAFIN  
    0560    000560    0464            GO TO 140-QTY-CHECK   ELSE                    FAAFIN  
    0561    000561    0465            GO TO 130-ASSET-CODE-LOOKUP.                  FAAFIN  
    0562    000562    0466    140-QTY-CHECK.                                        FAAFIN  
    0563    000563    0467        IF FSNA-IN = "FCLT" OR "INST"                     FAAFIN  
    0564    000564    0468            MOVE SPACE TO DASH2-RPT                       FAAFIN  
    0565    000565    0469            MOVE " 0" TO QUANTITY-RPT                     FAAFIN  
    0566    000566    0470            MOVE "01" TO QUANTITY-IN                      FAAFIN  
    0567    000567    0471            MOVE ZEROS TO UNIT-VALUE-IN                   FAAFIN  
    0568    000568    0472            GO TO 145-TOTAL-VALUE-CK.                     FAAFIN  
    0569    000569    0473        IF QUANTITY-IN < "01" OR                          FAAFIN  
    0570    000570    0474            QUANTITY-IN > "99"                            FAAFIN  
    0571    000571    0475            MOVE "**" TO QUAN-ERR                         FAAFIN  
    0572    000572    0476            MOVE ZEROS TO QUANTITY-IN                     FAAFIN  
    0573    000573    0477            MOVE "1" TO ERROR-IND.                        FAAFIN  
    0574    000574    0478        IF UNIT-VALUE-X = SPACES                          FAAFIN  
    0575    000575    0479            MOVE "000000000" TO UNIT-VALUE-X.             FAAFIN  
    0576    000576    0480        EXAMINE UNIT-VALUE-X REPLACING LEADING SPACES BY ZFAAFIN  
    0577    000577-    EROS.                                                        FAAFIN  
    0578    000578    0481        MOVE UNIT-VALUE-X TO NINE-TEST.                   FAAFIN  
    0579    000579    0482        IF NUMB-TEST-9 IS NOT NUMERIC                     FAAFIN  
    0580    000580    0483            MOVE ZEROS TO UNIT-VALUE-IN                   FAAFIN  
    0581    000581    0484            MOVE "**********" TO PRICE-ERR                FAAFIN  
    0582    000582    0485            MOVE "1" TO ERROR-IND.                        FAAFIN  
    0583    000583    0486    145-TOTAL-VALUE-CK.                                   FAAFIN  
    0584    000584    0487        IF TOTAL-VALUE-X = SPACES                         FAAFIN  
    0585    000585    0488            MOVE "000000000" TO TOTAL-VALUE-X.            FAAFIN  
    0586    000586    0489        EXAMINE TOTAL-VALUE-X REPLACING LEADING SPACES BY FAAFIN  
    0587    000587-    ZEROS.                                                       FAAFIN  
    0588    000588    0490        MOVE TOTAL-VALUE-X TO NINE-TEST.                  FAAFIN  
    0589    000589    0491        IF NUMB-TEST-9 IS NOT NUMERIC                     FAAFIN  
    0590    000590    0492            MOVE ZEROS TO TOTAL-VALUE-IN                  FAAFIN  
    0591    000591    0493            MOVE "***********" TO VALUE-ERR               FAAFIN  
    0592    000592    0494            MOVE "1" TO ERROR-IND.                        FAAFIN  
    0593    000593    0495    150-ACTION-DATE-CK.                                   FAAFIN  
    0594    000594    0496        IF MONTH-IN = "O" OR "N" OR "D"                   FAAFIN  
    0595    000595    0497            GO TO 155-YEAR-CK.                            FAAFIN  
    0596    000596    0498        IF MONTH-IN < "0" OR                              FAAFIN  
    0597    000597    0499            MONTH-IN > "9"                                FAAFIN  
    0598    000598    0500            MOVE "****" TO ACT-DTE-ERR                    FAAFIN  
    0599    000599    0501            MOVE "1" TO ERROR-IND.                        FAAFIN  
    0600    000600    0502    155-YEAR-CK.                                          FAAFIN  
    0601    000601    0503        IF YEAR-IN < "00" OR                              FAAFIN  
    0602    000602    0504            YEAR-IN > "99"                                FAAFIN  
    0603    000603    P R O G R A M   B B 0 1 A 		COBOL (005001,107001)	 4-JUN-73  1FAAFIN  
    0604    000604-    7:10		PAGE 1-9                                               FAAFIN  
    0605    000605    FAA1.CBL    04-JUN-73  14:36                                  FAAFIN  
    0606    000606                                                                  FAAFIN  
    0607    000607    0505            MOVE "****" TO ACT-DTE-ERR                    FAAFIN  
    0608    000608    0506            MOVE "1" TO ERROR-IND.                        FAAFIN  
    0609    000609    0507    160-DOC-NUM-CK.                                       FAAFIN  
    0610    000610    0508        MOVE DOC-NUM-IN TO FIVE-TEST.                     FAAFIN  
    0611    000611    0509        IF NUMB-TEST-5 IS NOT NUMERIC                     FAAFIN      P R O G R A M   M A I N 		COBOL (005002,112001)	21-JUL-73  12:49		PAGE 1-11
    FAA3.CBL    24-JUN-73  10:07

    0612    000612    0510            MOVE "*****" TO DOC-NO-ERR                    FAAFIN  
    0613    000613    0511            MOVE "1" TO ERROR-IND.                        FAAFIN  
    0614    000614    0512        IF BATCH-NUM-IN = SPACES                          FAAFIN  
    0615    000615    0513            MOVE "***" TO BTCH-ERR                        FAAFIN  
    0616    000616    0514            MOVE "1" TO ERROR-IND.                        FAAFIN  
    0617    000617    0515        MOVE 1 TO SUB.                                    FAAFIN  
    0618    000618    0516    165-MOVE-FIELDS-TO-COMP-WS.                           FAAFIN  
    0619    000619    0517        IF FSNA-IN = "FCLT" OR "INST"                     FAAFIN  
    0620    000620    0518            MOVE TOTAL-VALUE-IN TO TEMP-TOTAL             FAAFIN  
    0621    000621    0519            MOVE TOTAL-VALUE-IN TO TOTAL-VALUE-RPT        FAAFIN  
    0622    000622    0520            MOVE 01 TO QUAN-WS                            FAAFIN  
    0623    000623    0521            GO TO 170-CHECK-IF-INCR.                      FAAFIN  
    0624    000624    0522        MOVE UNIT-VALUE-IN TO UNIT-VALUE-WS.              FAAFIN  
    0625    000625    0523        MOVE QUANTITY-IN-9 TO QUAN-WS.                    FAAFIN  
    0626    000626    0524        MULTIPLY UNIT-VALUE-WS BY QUAN-WS GIVING TEMP-TOTAFAAFIN  
    0627    000627-    L.                                                           FAAFIN  
    0628    000628    0525        MOVE TEMP-TOTAL TO TOTAL-VALUE-RPT.               FAAFIN  
    0629    000629    0526    170-CHECK-IF-INCR.                                    FAAFIN  
    0630    000630    0527        MOVE INCR-TBL (SUB) TO TR-HOLD.                   FAAFIN  
    0631    000631    0528        IF TRANS-CODE-IN = TR-HOLD                        FAAFIN  
    0632    000632    0529            GO TO 190-INCR-ROUTINE.                       FAAFIN  
    0633    000633    0530        IF SUB = 20                                       FAAFIN  
    0634    000634    0531        MOVE 1 TO SUB                                     FAAFIN  
    0635    000635    0532            GO TO 180-CHECK-IF-DECR   ELSE                FAAFIN  
    0636    000636    0533            ADD 1 TO SUB                                  FAAFIN  
    0637    000637    0534            GO TO 170-CHECK-IF-INCR.                      FAAFIN  
    0638    000638    0535    180-CHECK-IF-DECR.                                    FAAFIN  
    0639    000639    0536        MOVE DECR-TBL (SUB) TO TR-HOLD.                   FAAFIN  
    0640    000640    0537        IF TRANS-CODE-IN = TR-HOLD                        FAAFIN  
    0641    000641    0538            GO TO 200-DECR-ROUTINE.                       FAAFIN  
    0642    000642    0539        IF SUB = 22                                       FAAFIN  
    0643    000643    0540            MOVE "**" TO TR-CD-ERR                        FAAFIN  
    0644    000644    0541            MOVE "1" TO ERROR-IND                         FAAFIN  
    0645    000645    0542            GO TO 210-PRINT-DOC  ELSE                     FAAFIN  
    0646    000646    0543            ADD 1 TO SUB                                  FAAFIN  
    0647    000647    0544            GO TO 180-CHECK-IF-DECR.                      FAAFIN  
    0648    000648    0545    190-INCR-ROUTINE.                                     FAAFIN  
    0649    000649    0546        ADD QUAN-WS TO DOC-INCR-CTR.                      FAAFIN  
    0650    000650    0547        ADD QUAN-WS TO BATCH-INCR-CTR.                    FAAFIN  
    0651    000651    0548        ADD QUAN-WS TO BATCH-CTR.                         FAAFIN  
    0652    000652    0549        ADD QUAN-WS TO REGION-CTR.                        FAAFIN  
    0653    000653    0550        ADD QUAN-WS TO OV-CTR.                            FAAFIN  
    0654    000654    0551        ADD TEMP-TOTAL TO BATCH-INCR-AMT.                 FAAFIN  
    0655    000655    0552        ADD TEMP-TOTAL TO DOC-INCR-AMT.                   FAAFIN  
    0656    000656    0553        ADD TEMP-TOTAL TO BATCH-AMT.                      FAAFIN  
    0657    000657    0554        ADD TEMP-TOTAL TO REGION-AMT.                     FAAFIN  
    0658    000658    0555        ADD TEMP-TOTAL TO OV-AMT.                         FAAFIN  
    0659    000659    0556        GO TO 210-PRINT-DOC.                              FAAFIN  
    0660    000660    0557    200-DECR-ROUTINE.                                     FAAFIN  
    0661    000661    0558        SUBTRACT QUAN-WS FROM DOC-DECR-CTR.               FAAFIN  
    0662    000662    0559        SUBTRACT QUAN-WS FROM BATCH-DECR-CTR.             FAAFIN  
    0663    000663    0560        ADD QUAN-WS TO BATCH-CTR.                         FAAFIN  
    0664    000664    P R O G R A M   B B 0 1 A 		COBOL (005001,107001)	 4-JUN-73  1FAAFIN  
    0665    000665-    7:10		PAGE 1-10                                              FAAFIN  
    0666    000666    FAA1.CBL    04-JUN-73  14:36                                  FAAFIN  
    0667    000667                                                                  FAAFIN      P R O G R A M   M A I N 		COBOL (005002,112001)	21-JUL-73  12:49		PAGE 1-12
    FAA3.CBL    24-JUN-73  10:07

    0668    000668    0561        ADD QUAN-WS TO REGION-CTR.                        FAAFIN  
    0669    000669    0562        ADD QUAN-WS TO OV-CTR.                            FAAFIN  
    0670    000670    0563        SUBTRACT TEMP-TOTAL FROM DOC-DECR-AMT.            FAAFIN  
    0671    000671    0564        SUBTRACT TEMP-TOTAL FROM BATCH-DECR-AMT.          FAAFIN  
    0672    000672    0565        SUBTRACT TEMP-TOTAL FROM REGION-AMT.              FAAFIN  
    0673    000673    0566        SUBTRACT TEMP-TOTAL FROM BATCH-AMT.               FAAFIN  
    0674    000674    0567        SUBTRACT TEMP-TOTAL FROM OV-AMT.                  FAAFIN  
    0675    000675    0568    210-PRINT-DOC.                                        FAAFIN  
    0676    000676    0569        MOVE "0" TO PRT-CTRL.                             FAAFIN  
    0677    000677    0570        ADD 2 TO LINE-CTR.                                FAAFIN  
    0678    000678    0571        PERFORM 320-WRITE-A-LINE.                         FAAFIN  
    0679    000679    0572        IF ERROR-IND = "1"                                FAAFIN  
    0680    000680    0573            MOVE "**********" TO ERR-FLG                  FAAFIN  
    0681    000681    0574            ADD 1 TO LINE-CTR                             FAAFIN  
    0682    000682    0575            MOVE ERROR-LINE TO PRINT-IO                   FAAFIN  
    0683    000683    0576            MOVE SPACES TO ERROR-LINE                     FAAFIN  
    0684    000684    0577            MOVE " " TO ERROR-IND                         FAAFIN  
    0685    000685    0578            MOVE " " TO PRT-CTRL                          FAAFIN  
    0686    000686    0579            PERFORM 320-WRITE-A-LINE.                     FAAFIN  
    0687    000687    0580        PERFORM 330-CHECK-OVERFLOW THRU 340-WRITE-EXIT.   FAAFIN  
    0688    000688    0581        GO TO 010-READ-INPUT.                             FAAFIN  
    0689    000689    0582    220-END-DOC-RTN.                                      FAAFIN  
    0690    000690    0583        MOVE DOCMNT TO T-1.                               FAAFIN  
    0691    000691    0584        MOVE TOTL TO T-3.                                 FAAFIN  
    0692    000692    0585        MOVE DECR TO T-4.                                 FAAFIN  
    0693    000693    0586        MOVE INCR TO T-5.                                 FAAFIN  
    0694    000694    0587        MOVE DOC-DECR-CTR TO DECR-CNT-RPT.                FAAFIN  
    0695    000695    0588        MOVE DOC-DECR-AMT TO DECR-AMT-RPT.                FAAFIN  
    0696    000696    0589        MOVE DOC-INCR-CTR TO INCR-CNT-RPT.                FAAFIN  
    0697    000697    0590        MOVE DOC-INCR-AMT TO INCR-AMT-RPT.                FAAFIN  
    0698    000698    0591        MOVE ZEROS TO DOC-DECR-CTR DOC-DECR-AMT           FAAFIN  
    0699    000699    0592                      DOC-INCR-CTR DOC-INCR-AMT.          FAAFIN  
    0700    000700    0593        MOVE "-" TO PRT-CTRL.                             FAAFIN  
    0701    000701    0594        ADD 3 TO LINE-CTR.                                FAAFIN  
    0702    000702    0595        PERFORM 320-WRITE-A-LINE THRU 340-WRITE-EXIT.     FAAFIN  
    0703    000703    0596        IF END-JOB-IND = "1"                              FAAFIN  
    0704    000704    0597            MOVE " " TO PRT-CTRL                          FAAFIN  
    0705    000705    0598            PERFORM 320-WRITE-A-LINE.                     FAAFIN  
    0706    000706    0599        MOVE DOC-NUM-IN TO WS-DOC-NUM.                    FAAFIN  
    0707    000707    0600    230-END-DOC-EXIT.                                     FAAFIN  
    0708    000708    0601        EXIT.                                             FAAFIN  
    0709    000709    0602    240-END-BATCH-RTN.                                    FAAFIN  
    0710    000710    0603        PERFORM 220-END-DOC-RTN THRU 230-END-DOC-EXIT.    FAAFIN  
    0711    000711    0604        MOVE BATCH TO T-1.                                FAAFIN  
    0712    000712    0605        MOVE TOTL TO T-3.                                 FAAFIN  
    0713    000713    0606        MOVE DECR TO T-4.                                 FAAFIN  
    0714    000714    0607        MOVE INCR TO T-5.                                 FAAFIN  
    0715    000715    0608        MOVE BATCH-DECR-CTR TO DECR-CNT-RPT.              FAAFIN  
    0716    000716    0609        MOVE BATCH-DECR-AMT TO DECR-AMT-RPT.              FAAFIN  
    0717    000717    0610        MOVE BATCH-INCR-CTR TO INCR-CNT-RPT.              FAAFIN  
    0718    000718    0611        MOVE BATCH-INCR-AMT TO INCR-AMT-RPT.              FAAFIN  
    0719    000719    0612        MOVE "0" TO PRT-CTRL.                             FAAFIN  
    0720    000720    0613        ADD 2 TO LINE-CTR.                                FAAFIN  
    0721    000721    0614        PERFORM 320-WRITE-A-LINE.                         FAAFIN  
    0722    000722    0615        MOVE BATCH TO T-1.                                FAAFIN  
    0723    000723    0616        MOVE TVAL TO T-3.                                 FAAFIN      P R O G R A M   M A I N 		COBOL (005002,112001)	21-JUL-73  12:49		PAGE 1-13
    FAA3.CBL    24-JUN-73  10:07

    0724    000724    P R O G R A M   B B 0 1 A 		COBOL (005001,107001)	 4-JUN-73  1FAAFIN  
    0725    000725-    7:10		PAGE 1-11                                              FAAFIN  
    0726    000726    FAA1.CBL    04-JUN-73  14:36                                  FAAFIN  
    0727    000727                                                                  FAAFIN  
    0728    000728    0617        MOVE BATCH-AMT TO INCR-AMT-RPT.                   FAAFIN  
    0729    000729    0618        ADD 2 TO LINE-CTR.                                FAAFIN  
    0730    000730    0619        PERFORM 320-WRITE-A-LINE.                         FAAFIN  
    0731    000731    0620        MOVE BATCH TO T-1.                                FAAFIN  
    0732    000732    0621        MOVE ITEM TO T-2.                                 FAAFIN  
    0733    000733    0622        MOVE TCNT TO T-3.                                 FAAFIN  
    0734    000734    0623        MOVE BATCH-CTR TO INCR-CNT-RPT.                   FAAFIN  
    0735    000735    0624        ADD 2 TO LINE-CTR.                                FAAFIN  
    0736    000736    0625        PERFORM 320-WRITE-A-LINE THRU 340-WRITE-EXIT.     FAAFIN  
    0737    000737    0626        MOVE ZEROS TO BATCH-DECR-CTR, BATCH-DECR-AMT, BATCFAAFIN  
    0738    000738-    H-INCR-AMT                                                   FAAFIN  
    0739    000739    0627               BATCH-INCR-CTR, BATCH-AMT, BATCH-CTR.      FAAFIN  
    0740    000740    0628        MOVE BATCH-NUM-IN TO WS-BATCH-HOLD.               FAAFIN  
    0741    000741    0629    250-BATCH-RTN-EXIT.                                   FAAFIN  
    0742    000742    0630        EXIT.                                             FAAFIN  
    0743    000743    0631    260-END-REGION-RTN.                                   FAAFIN  
    0744    000744    0632        PERFORM 240-END-BATCH-RTN THRU 250-BATCH-RTN-EXIT.FAAFIN  
    0745    000745    0633        MOVE TNET TO T-1.                                 FAAFIN  
    0746    000746    0634        MOVE TVAL TO T-3.                                 FAAFIN  
    0747    000747    0635        MOVE REGION-AMT TO INCR-AMT-RPT.                  FAAFIN  
    0748    000748    0636        MOVE "0" TO PRT-CTRL.                             FAAFIN  
    0749    000749    0637        ADD 2 TO LINE-CTR.                                FAAFIN  
    0750    000750    0638        PERFORM 320-WRITE-A-LINE.                         FAAFIN  
    0751    000751    0639        MOVE TOTL TO T-1.                                 FAAFIN  
    0752    000752    0640        MOVE ITEM TO T-2.                                 FAAFIN  
    0753    000753    0641        MOVE TCNT TO T-3.                                 FAAFIN  
    0754    000754    0642        MOVE REGION-CTR TO INCR-CNT-RPT.                  FAAFIN  
    0755    000755    0643        ADD 2 TO LINE-CTR.                                FAAFIN  
    0756    000756    0644        PERFORM 320-WRITE-A-LINE.                         FAAFIN  
    0757    000757    0645        MOVE ZEROS TO REGION-AMT, REGION-CTR, LINE-CTR, PAFAAFIN  
    0758    000758-    GE-CTR.                                                      FAAFIN  
    0759    000759    0646        IF END-JOB-IND = "1"                              FAAFIN  
    0760    000760    0647            NEXT SENTENCE  ELSE                           FAAFIN  
    0761    000761    0648            MOVE ZEROS TO PAGE-CTR                        FAAFIN  
    0762    000762    0649            PERFORM 280-FIND-REGION-HDR THRU 290-FIND-REG-FAAFIN  
    0763    000763-    EXIT.                                                        FAAFIN  
    0764    000764    0650        PERFORM 300-HEADER-ROUTINE THRU 310-HDR-RTN-EXIT. FAAFIN  
    0765    000765    0651        MOVE REGION-IN TO WS-REGION-HOLD.                 FAAFIN  
    0766    000766    0652    270-END-REGION-EXIT.                                  FAAFIN  
    0767    000767    0653        EXIT.                                             FAAFIN  
    0768    000768    0654    280-FIND-REGION-HDR.                                  FAAFIN  
    0769    000769    0655        MOVE 1 TO SUB.                                    FAAFIN  
    0770    000770    0656    285-START-HDR-LOOKUP.                                 FAAFIN  
    0771    000771    0657        MOVE REG-TBL (SUB) TO REG-BRKDWN.                 FAAFIN  
    0772    000772    0658        IF REGION-IN = REG-CODE-TBL                       FAAFIN  
    0773    000773    0659            MOVE REGION-IN TO WS-REGION-HOLD              FAAFIN  
    0774    000774    0660            MOVE REG-NAME-TBL TO REGION-HDR               FAAFIN  
    0775    000775    0661            GO TO 290-FIND-REG-EXIT.                      FAAFIN  
    0776    000776    0662        IF SUB > 10                                       FAAFIN  
    0777    000777    0663            MOVE "*" TO REG-ERR                           FAAFIN  
    0778    000778    0664            MOVE "1" TO ERROR-IND                         FAAFIN  
    0779    000779    0665            GO TO 290-FIND-REG-EXIT   ELSE                FAAFIN      P R O G R A M   M A I N 		COBOL (005002,112001)	21-JUL-73  12:49		PAGE 1-14
    FAA3.CBL    24-JUN-73  10:07

    0780    000780    0666            ADD 1 TO SUB                                  FAAFIN  
    0781    000781    0667            GO TO 285-START-HDR-LOOKUP.                   FAAFIN  
    0782    000782    0668    290-FIND-REG-EXIT.                                    FAAFIN  
    0783    000783    0669        EXIT.                                             FAAFIN  
    0784    000784    0670    300-HEADER-ROUTINE.                                   FAAFIN  
    0785    000785    0671        ADD 1 TO PAGE-CTR.                                FAAFIN  
    0786    000786    0672        MOVE PAGE-CTR TO PAGE-HDR.                        FAAFIN  
    0787    000787    P R O G R A M   B B 0 1 A 		COBOL (005001,107001)	 4-JUN-73  1FAAFIN  
    0788    000788-    7:10		PAGE 1-12                                              FAAFIN  
    0789    000789    FAA1.CBL    04-JUN-73  14:36                                  FAAFIN  
    0790    000790                                                                  FAAFIN  
    0791    000791    0673        MOVE "1" TO PRT-CTRL.                             FAAFIN  
    0792    000792    0674        MOVE HEAD-1 TO PRINT-IO.                          FAAFIN  
    0793    000793    0675        PERFORM 320-WRITE-A-LINE.                         FAAFIN  
    0794    000794    0676        MOVE "0" TO PRT-CTRL.                             FAAFIN  
    0795    000795    0677        MOVE HEAD-2 TO PRINT-IO.                          FAAFIN  
    0796    000796    0678        PERFORM 320-WRITE-A-LINE.                         FAAFIN  
    0797    000797    0679        MOVE " " TO PRT-CTRL.                             FAAFIN  
    0798    000798    0680        MOVE HEAD-3 TO PRINT-IO.                          FAAFIN  
    0799    000799    0681        PERFORM 320-WRITE-A-LINE.                         FAAFIN  
    0800    000800    0682    310-HDR-RTN-EXIT.                                     FAAFIN  
    0801    000801    0683        EXIT.                                             FAAFIN  
    0802    000802    0684    320-WRITE-A-LINE.                                     FAAFIN  
    0803    000803    0685        WRITE PRINT-LINE AFTER ADVANCING 2 LINES.         FAAFIN  
    0804    000804    0686        MOVE SPACES TO PRINT-IO.                          FAAFIN  
    0805    000805    0687    330-CHECK-OVERFLOW.                                   FAAFIN  
    0806    000806    0688        IF LINE-CTR > 46                                  FAAFIN  
    0807    000807    0689            MOVE ZEROS TO LINE-CTR                        FAAFIN  
    0808    000808    0690            PERFORM 300-HEADER-ROUTINE THRU 310-HDR-RTN-EXFAAFIN  
    0809    000809-    IT.                                                          FAAFIN  
    0810    000810    0691    340-WRITE-EXIT.                                       FAAFIN  
    0811    000811    0692        EXIT.                                             FAAFIN  
    0812    000812    0693    350-INPUT-AT-END.                                     FAAFIN  
    0813    000813    0694        PERFORM 260-END-REGION-RTN THRU 270-END-REGION-EXIFAAFIN  
    0814    000814-    T.                                                           FAAFIN  
    0815    000815    0695        MOVE "OVERALL " TO T-1.                           FAAFIN  
    0816    000816    0696        MOVE TOTL TO T-3.                                 FAAFIN  
    0817    000817    0697        PERFORM 320-WRITE-A-LINE.                         FAAFIN  
    0818    000818    0698        MOVE TNET TO T-1.                                 FAAFIN  
    0819    000819    0699        MOVE TVAL TO T-3.                                 FAAFIN  
    0820    000820    0700        MOVE OV-AMT TO INCR-AMT-RPT.                      FAAFIN  
    0821    000821    0701        PERFORM 320-WRITE-A-LINE.                         FAAFIN  
    0822    000822    0702        MOVE TOTL TO T-1.                                 FAAFIN  
    0823    000823    0703        MOVE ITEM TO T-2.                                 FAAFIN  
    0824    000824    0704        MOVE TCNT TO T-3.                                 FAAFIN  
    0825    000825    0705        MOVE OV-CTR TO INCR-CNT-RPT.                      FAAFIN  
    0826    000826    0706        PERFORM 320-WRITE-A-LINE.                         FAAFIN  
    0827    000827    0707        CLOSE TRANS, PRINT.                               FAAFIN  
    0828    000828    0708        DISPLAY "EXCELLENT PROGRAMMING JOB" UPON CONSOLE. FAAFIN  
    0829    000829    0709        DISPLAY "END BB01A" UPON CONSOLE.                 FAAFIN  
    0830    000830    0710        STOP RUN.                                         FAAFIN  
    0831    000831    0711                                                          FAAFIN  
    0832    000832    0712                                                          FAAFIN  
    0833    000833    P R O G R A M   B B 0 1 A 		COBOL (005001,107001)	 4-JUN-73  1FAAFIN  
    0834    000834-    7:10		PAGE W-1                                               FAAFIN  
    0835    000835    FAA1.CBL    04-JUN-73  14:36                                  FAAFIN      P R O G R A M   M A I N 		COBOL (005002,112001)	21-JUL-73  12:49		PAGE 1-15
    FAA3.CBL    24-JUN-73  10:07

    0836    000836                                                                  FAAFIN  
    0837    000837 WARNINGS:                                                        FAAFIN  
    0838    000838                                                                  FAAFIN  
    0839    000839    0204  REDEFINITION IS NOT THE SAME SIZE AS THE REDEFINED ITEM FAAFIN  
    0840    000840    0245  REDEFINITION IS NOT THE SAME SIZE AS THE REDEFINED ITEM FAAFIN  
    0841    000841    0524  MOST SIGNIFICANT DIGITS TRUNCATED ON TEMP-TOTAL         FAAFIN  
    0842    000842    0575  RIGHT-MOST TRUNCATION ON PRINT-IO                       FAAFIN  
    0843    000843    0672  MOST SIGNIFICANT DIGITS TRUNCATED ON PAGE-HDR           FAAFIN  
    0844    000844                                                                  FAAFIN  
    0845    000845                                                                  FAAFIN  
    0846    000846 NO FATAL ERRORS, 5 WARNINGS                                      FAAFIN  
    0847    000847 

***				FATAL - NO PROCEDURE DIVISION


3 FATAL ERRORS, NO WARNINGS
     W