LUDUPD - LUD UPDATER	MACRO 46-6 08:55 18-APR-73 PAGE 1
LUDUPD.MAC	19-JAN-73 09:37		- J. MARCIN 9/27/71

     1				TITLE LUDUPD - LUD UPDATER
     2				SUBTTL - J. MARCIN 9/27/71
     3
     4			000017	VUPDAT=17
     5			000137	JOBVER=137
     6	000137			LOC JOBVER 	;PUT VERSION NUMBER IN JOB DATA AREA
     7	000137	000000	000017	XWD 0,VUPDATE
     8	000000'			RELOC
     9
    10				;LOAD BLKDTA,COMP1,TRPINI,USERUP,NAMUP%F,LUDUPD
    11				;MAKE RUN ONLY
    12				;SET REMOTE,WRITE FILES,JACCT LISCENSE
    13
    14
    15				EXTERNAL USERUP,NAMUP,EXIT.,TRPINI
    16				EXTERNAL CNAME,CADDR,MAILAD,TAX
    17
    18				;AC'S
    19			000000	F=0
    20			000001	A=1
    21			000002	B=2
    22			000003	C=3
    23			000004	D=4
    24			000005	E=5
    25			000006	N=6
    26			000007	N1=7
    27			000010	N2=10
    28			000011	N3=11
    29			000013	CH=13
    30			000014	Z=14
    31			000015	P=15
    32			000016	BP=16
    33			000012	INDEX=12
    34
    35				;FLAGS IN RIGHT HALF OF F
    36			000001	BACKUP==1	;CHANGES ARE BEING MADE TO A NON-OFFICIAL LUD/DUL
    37			000004	ADDDUL==4
    38			000002	CHDUL==2
    39			000010	TTYOUT==10	;I/O IS TO TTY
    40			000020	ERRF==20	;ERROR MADE
    41			000040	NEWF==40	;TYPE "NEW" BEFORE ASKING QUESTION
    42			000100	ALLIOI==100	;ALL IO HAS BEEN INPUT, STOP IF ERROR FOUND
    43			000200	CHACTE==200	;ADD OR DELETE ACCTG. ENTRY
    44			001000	LIST==1000	;LISTING COMMAND TYPED
    45
    46				;FLAGS IN LEFT HALF OF F 
    47			000020	CHANGE==20	;BLK READ IN HAS BEEN CHANGED
    48			400000	OVFLF==400000	;USED TO MARK FOR AN OVERFLOW BLK
    49			000001	ASCIF==1	;ASCII INPUT OR OUTPUT
    50			000002	ENDTYD==2	;SET WHEN A 377 OR ALT-MODE INPUT
    51			000004	TAXIN==4	;TAX BEING INPUT OR OUTPU
    52			000010	DECINF==10	;DECIMAL INPUT AND OUTPUT
    53			000040	DIGINF==40	;INPUT IS IN DIGITS
LUDUPD - LUD UPDATER	MACRO 46-6 08:55 18-APR-73 PAGE 1-2
LUDUPD.MAC	19-JAN-73 09:37		- J. MARCIN 9/27/71

    54			000100	NOUSR==100	;NO MATCH ON 3 CHAR. FOUND YET
    55			000200	FILOUT==200	;WRITE LUD CHANGE BILLING FILE OUT
    56			000400	INITF==400	;INIT FLAG SET
    57
    58				;I/O CHANNELS
    59			000017	DSK=17
    60			000016	TTY=16
    61			000015	DSK1=15
    62
    63				;CALLI'S
    64			000000	RESET==0
    65			000012	EXIT==12
    66
    67	000000'	664000	000010	LUDUP:	TROA F,TTYOUT
    68	000001'	254000	000167'		JRST CHKUSR
    69	000002'	620000	777767		TRZ F,777767
    70	000003'	047000	000000		CALLI	RESET
    71	000004'	015000	000000		RESET. 00,0
    72	000005'	200640	004516'		MOVE	P,PDP
    73	000006'	602000	000010		TRNE F,TTYOUT
    74	000007'	254000	000027'		JRST LUDUP1
    75	000010'	260640	000234'		PUSHJ P,GETTTY
    76	000011'	201540	000001		MOVEI	CH,1
    77	000012'	260640	002357'		PUSHJ P,OUCH
    78	000013'	260640	002357'		PUSHJ P,OUCH
    79	000014'	201540	000040		MOVEI	CH,40
    80	000015'	260640	002357'		PUSHJ P,OUCH
    81	000016'	260640	002373'	TRYAGN:	PUSHJ P,INCH
    82	000017'	302540	000001		CAIE	CH,1
    83	000020'	254000	000016'		JRST	TRYAGN
    84	000021'	260640	002373'		PUSHJ P,INCH
    85	000022'	302540	000001		CAIE	CH,1
    86	000023'	254000	000016'		JRST	TRYAGN
    87	000024'	260640	002373'		PUSHJ P,INCH
    88	000025'	302540	000040		CAIE	CH,40
    89	000026'	254000	000016'		JRST	TRYAGN
    90	000027'	402000	003610'	LUDUP1:	SETZM ,CODE
    91	000030'	620000	777766		TRZ F,777766
    92	000031'	200640	004516'		MOVE P,PDP
    93	000032'	505000	000000		HRLI	F,0	;ZERO LEFT HALF OF F
    94	000033'	201300	000002		MOVEI N,2
    95	000034'	200700	003600'		MOVE BP,CODEP
    96	000035'	602000	000010		TRNE F,TTYOUT
    97	000036'	051140	004550'		TTCALL 3,[ASCIZ /*/]
    98	000037'	201600	000001		MOVEI Z,1
    99	000040'	260640	002507'		PUSHJ P,GETNUM
   100	000041'	202300	003610'	GETCD1:	MOVEM	N,CODE
   101	000042'	322300	000176'		JUMPE N,ENDIT
   102	000043'	303300	000027		CAILE N,MAXCOD
   103	000044'	254000	000341'		JRST BADCOD
   104	000045'	606000	000001		TRNN F,BACKUP
   105	000046'	254000	000061'		JRST CODOK
   106	000047'	306300	000010		CAIN N,10
LUDUPD - LUD UPDATER	MACRO 46-6 08:55 18-APR-73 PAGE 1-3
LUDUPD.MAC	19-JAN-73 09:37		- J. MARCIN 9/27/71

   107	000050'	254000	000341'		JRST BADCOD
   108	000051'	606000	000010		TRNN F,TTYOUT
   109	000052'	254000	000055'		JRST .+3
   110	000053'	306300	000022		CAIN N,22
   111	000054'	254000	000061'		JRST CODOK
   112	000055'	301300	000012		CAIL N,12
   113	000056'	306300	000026		CAIN N,26
   114	000057'	334000	000000		SKIPA
   115	000060'	254000	000341'		JRST BADCOD
   116	000061'	306300	000021	CODOK:	CAIN N,21
   117	000062'	254000	000074'		JRST DISP
   118	000063'	402000	003640'		SETZM ,ZERST
   119	000064'	200040	004551'		MOVE A,[XWD ZERST,ZERST+1]
   120	000065'	251040	004515'		BLT A,ZEREND
   121	000066'	200040	004552'		MOVE A,[ASCIZ/     /]
   122	000067'	202040	003670'		MOVEM A,SLSMAN
   123	000070'	202040	003663'		MOVEM A,CUSTNO
   124	000071'	202040	000000*		MOVEM A,CNAME
   125	000072'	200040	004554'		MOVE A,[XWD CNAME,CNAME+1]
   126	000073'	251040	000000*		BLT	A,TAX
   127	000074'	200240	003610'	DISP:	MOVE E,CODE
   128	000075'	254005	000204'		JRST DISTAB(E)
   129
   130	000076'	200700	004555'	SIXNAM:	MOVE BP,[POINT 6,UNAME]
   131	000077'	602000	000010		TRNE F,TTYOUT
   132	000100'	051140	004556'		TTCALL 3,[ASCIZ /USER NAME: /]
   133	000101'	201300	000014		MOVEI	N,^D12
   134	000102'	260640	002446'		PUSHJ	P,GETWD
   135	000103'	263640	000000		POPJ P,0
   136
   137	000104'	602000	000010	USERIN:	TRNE F,TTYOUT
   138	000105'	051140	004561'		TTCALL	3,[ASCIZ /PROJ: /]
   139	000106'	260640	002507'		PUSHJ P,GETNUM
   140	000107'	516300	003651'		HRLZM N,PPN
   141	000110'	603000	000100		TLNE F,NOUSR
   142	000111'	263640	000000		POPJ P,0
   143	000112'	602000	000010		TRNE F,TTYOUT
   144	000113'	051140	004563'		TTCALL 3,[ASCIZ /PROG: /]
   145	000114'	260640	002507'		PUSHJ P,GETNUM
   146	000115'	542300	003651'		HRRM N,PPN
   147	000116'	200300	003651'	TRANS:	MOVE N,PPN
   148	000117'	260640	003205'		PUSHJ P,UNSQZ
   149	000120'	202300	003651'		MOVEM N,PPN
   150	000121'	200700	004565'		MOVE BP,[POINT 6,PPN]
   151	000122'	200100	004566'		MOVE B,[POINT 7,UNAME]
   152	000123'	201300	000006		MOVEI N,6
   153	000124'	134540	000016	NXTCHR:	ILDB CH,BP
   154	000125'	271540	000040		ADDI CH,40
   155	000126'	136540	000002		IDPB CH,B
   156	000127'	363300	000132'		SOJLE N,.+3
   157	000130'	302300	000003		CAIE N,3
   158	000131'	254000	000124'		JRST NXTCHR
   159	000132'	201540	000040		MOVEI CH," "
LUDUPD - LUD UPDATER	MACRO 46-6 08:55 18-APR-73 PAGE 1-4
LUDUPD.MAC	19-JAN-73 09:37		- J. MARCIN 9/27/71

   160	000133'	136540	000002		IDPB CH,B
   161	000134'	136540	000002		IDPB CH,B
   162	000135'	327300	000124'		JUMPG N,NXTCHR
   163	000136'	263640	000000		POPJ P,0
   164
   165	000137'	260640	000076'	USERCM:	PUSHJ P,SIXNAM
   166	000140'	200300	003644'		MOVE	N,UNAME
   167	000141'	200340	003645'		MOVE	N1,UNAME+1
   168	000142'	260640	002665'		PUSHJ	P,HASHER
   169	000143'	202300	003655'		MOVEM N,HUNAME
   170	000144'	202340	003650'		MOVEM N1,HLOC
   171	000145'	260640	000242'		PUSHJ P,GETSYS
   172	000146'	260640	000256'		PUSHJ P,GETLUD
   173	000147'	260640	000311'		PUSHJ P,NOGOD6
   174	000150'	074760	003650'		USETI	DSK,@HLOC
   175	000151'	066740	003603'		INPUT	DSK,LUDLST
   176	000152'	063740	760000		STATZ DSK,760000
   177	000153'	260640	000311'		PUSHJ P,NOGOD6
   178	000154'	260640	002171'		PUSHJ	P,GETLAS
   179	000155'	263640	000000		POPJ P,0
   180
   181	000156'	606000	000010	CUSTIN:	TRNN F,TTYOUT
   182	000157'	254000	000163'		JRST .+4
   183	000160'	622000	000040		TRZE F,NEWF
   184	000161'	051140	004567'		TTCALL 3,[ASCIZ/NEW /]
   185	000162'	051140	004570'		TTCALL 3,[ASCIZ /CUSTOMER NO.: /]
   186	000163'	661000	000010		TLO F,DECINF
   187	000164'	260640	002507'		PUSHJ P,GETNUM
   188	000165'	202300	003663'		MOVEM N,CUSTNO
   189	000166'	263640	000000		POPJ P,0
   190
   191	000167'	541000	000000	CHKUSR:	HRRI F,0
   192	000170'	047040	000024		CALLI 1,24
   193	000171'	334000	000000		SKIPA
   194	000172'	047000	000012		CALLI EXIT
   195	000173'	316040	004573'		CAMN	1,[XWD 1,42313]	;
   196	000174'	254000	000002'		JRST LUDUP+2
   197	000175'	047000	000012		CALLI EXIT
   198
   199	000176'	602000	000010	ENDIT:	TRNE F,TTYOUT
   200	000177'	047000	000012		CALLI EXIT
   201	000200'	060700	000000		SETSTS TTY,0
   202	000201'	051040	000000		TTCALL  1,0
   203	000202'	071700	000000		RELEASE TTY,
   204	000203'	047000	000012		CALLI EXIT
   205
   206			000027	MAXCOD==27
   207	000204'	254000	000176'	DISTAB:	JRST ENDIT
   208	000205'	254000	000777'		JRST	DELNAM	;1 DELETE A USER FROM THE LUD
   209	000206'	254000	001121'		JRST	NEWNAM	;2 ADD A USER TO THE LUD
   210	000207'	254000	001202'		JRST	CHNAME	;3 CHANGE A USERS NAME
   211	000210'	254000	001276'		JRST	PBITS	;4 CHANGE PRIVILEGE BITS
   212	000211'	254000	001311'		JRST	ADDSTR	;5 ADD A STRUCTURE
LUDUPD - LUD UPDATER	MACRO 46-6 08:55 18-APR-73 PAGE 1-5
LUDUPD.MAC	19-JAN-73 09:37		- J. MARCIN 9/27/71

   213	000212'	254000	002756'		JRST	DELSTR	;6 DELETE A STRUCTURE
   214	000213'	254000	003021'		JRST	CHSTR	;7 CHANGE A STRUCTURE
   215	000214'	254000	001335'		JRST ADDCUS	;10 ADD A CUSTOMER TO NAMADD.DAT
   216	000215'	254000	001360'		JRST CHGRUB	;11 SET RUB IN LUD FOR USER
   217	000216'	254000	001376'		JRST CHCUS	;12 CHANGE A CUSTOMER
   218	000217'	254000	001440'		JRST CHPRIC	;13 CHANGE PRICING CODE AND TRACKING CODE
   219	000220'	254000	001446'		JRST CHGLUD	;14 CHANGE NON-OFFICIAL LUD/DUL AS PER NEXT CODE
   220	000221'	254000	001455'		JRST DELBIL	;15 DELETE ACCOUNTING IN USERS.DAT
   221	000222'	254000	001461'		JRST ADDBIL	;16 ADD ACCOUNTING IN USERS.DAT
   222	000223'	254000	000341'		JRST BADCOD	;17
   223	000224'	254000	001556'		JRST LISALL	;20 LIST ALL ENTRIES FOR A PROJ.
   224	000225'	254000	000347'		JRST DELST	;21 REVERSE LAST LUD CHANGE
   225	000226'	254000	001671'		JRST LISLUD	;22 LIST LUD ENTRY
   226	000227'	254000	001776'		JRST LISUSR	;23 LIST ACCOUNTING ENTRY(USERS.DAT)
   227	000230'	254000	002024'		JRST LISACT	;24 LIST ACCOUNTRY ENTRY(NAMADD.DAT)
   228	000231'	254000	002123'		JRST NEWCUS	;25 CHANGE A USER'S CUSTOMER NUMBER
   229	000232'	254000	002131'		JRST NEWDIS	;26 CHANGE A USER'S DISTRICT NUMBER IN LUD
   230	000233'	254000	001536'		JRST REVBIL	;27 REVERSE LAST BILLING ENTRY MADE
   231
   232	000234'	041700	000214	GETTTY:	INIT TTY,214	;INIT TTY IN IMAGE MODE
   233	000235'	646471	000000		SIXBIT /TTY/
   234	000236'	000000	003605'		0,TTYI
   235	000237'	047000	000012		CALLI EXIT
   236	000240'	064700	000002		INBUF TTY,2
   237	000241'	263640	000000		POPJ P,0
   238
   239	000242'	602000	000001	GETSYS:	TRNE F,BACKUP
   240	000243'	254000	000251'		JRST GETDSK
   241	000244'	041740	000017		INIT DSK,17
   242	000245'	637163	000000		SIXBIT /SYS/
   243	000246'	000000	000000		0
   244	000247'	260640	000311'		PUSHJ P,NOGOD6
   245	000250'	263640	000000		POPJ P,0
   246
   247	000251'	041740	000017	GETDSK:	INIT DSK,17
   248	000252'	446353	000000		SIXBIT	/DSK/
   249	000253'	000000	000000		0
   250	000254'	260640	000311'		PUSHJ P,NOGOD6
   251	000255'	263640	000000		POPJ P,0
   252
   253	000256'	201300	000012	GETLUD:	MOVEI N,^D10
   254	000257'	200040	004574'		MOVE A,[SIXBIT /LUD/]
   255	000260'	260640	000651'		PUSHJ P,SETEXT
   256	000261'	403140	000004		SETZB C,D
   257	000262'	076740	000001		LOOKUP DSK,A
   258	000263'	263640	000000		POPJ P,0
   259	000264'	200040	004574'		MOVE A,[SIXBIT /LUD/]
   260	000265'	260640	000651'		PUSHJ P,SETEXT
   261	000266'	403140	000004		SETZB C,D
   262	000267'	077740	000001		ENTER DSK,A
   263	000270'	254000	000273'		JRST .+3
   264	000271'	350015	000000		AOS	(P)
   265	000272'	263640	000000		POPJ P,0
LUDUPD - LUD UPDATER	MACRO 46-6 08:55 18-APR-73 PAGE 1-6
LUDUPD.MAC	19-JAN-73 09:37		- J. MARCIN 9/27/71

   266	000273'	607000	040000		TLNN F,40000
   267	000274'	263640	000000		POPJ P,0
   268	000275'	367300	000257'		SOJG N,GETLUD+1
   269	000276'	260640	000321'		PUSHJ P,NOGO14
   270	000277'	350015	000000		AOS	(P)
   271	000300'	263640	000000		POPJ P,0
   272
   273	000301'	201540	000002	NOGOD2:	MOVEI	CH,2	;USER NAME ALLREADY THERE...IT SHOULD NOT BE
   274	000302'	254000	000331'		JRST	NOGOOD
   275	000303'	201540	000003	NOGOD3:	MOVEI	CH,3	;USER NAME NOT THERE...IT SHOULD BE
   276	000304'	254000	000331'		JRST	NOGOOD
   277	000305'	201540	000004	NOGOD4:	MOVEI	CH,4	;STR NAME NOT THERE...IT SHOULD BE
   278	000306'	254000	000331'		JRST	NOGOOD
   279	000307'	201540	000005	NOGOD5:	MOVEI	CH,5	;STR NAME THERE...IT SHOULD NOT BE
   280	000310'	254000	000331'		JRST	NOGOOD
   281	000311'	201540	000006	NOGOD6:	MOVEI	CH,6	;SOME KIND OF DISK ERROR...
   282	000312'	254000	000331'		JRST NOGOOD
   283	000313'	201540	000007	NOGOD7:	MOVEI CH,7	;BAD SITE
   284	000314'	254000	000331'		JRST NOGOOD
   285	000315'	201540	000011	NOGO11:	MOVEI CH,11	;CUSTOMER NO. ERROR
   286	000316'	254000	000331'		JRST NOGOOD
   287	000317'	201540	000012	NOGO12:	MOVEI CH,12	;BILLING FILE ERROR
   288	000320'	254000	000331'		JRST NOGOOD
   289	000321'	201540	000014	NOGO14:	MOVEI CH,14	;SOME FILE IS BUSY, TRY LATER
   290	000322'	254000	000331'		JRST NOGOOD
   291	000323'	260640	000242'	NOGO16:	PUSHJ P,GETSYS	;GET SYS INITED AGAIN
   292	000324'	201540	000016		MOVEI CH,16	;ERROR IN DELETING FILE
   293	000325'	254000	000500'		JRST DULERR+1	;RESTORE LUD ENTRY(DUL NOTMADE YET)
   294	000326'	201540	000017	NOGO17:	MOVEI CH,17	;USER IN DUL. CANNOT ENTER TIL EOM.
   295	000327'	070740	000000		CLOSE DSK,
   296	000330'	254000	000500'		JRST DULERR+1
   297	000331'	620000	000001	NOGOOD:	TRZ F,BACKUP
   298	000332'	666000	000020		TRON F,ERRF
   299	000333'	202540	003641'		MOVEM CH,ERRCOD
   300	000334'	622000	000100		TRZE F,ALLIOI
   301	000335'	364640	000550'		SOJA P,ERROUT
   302	000336'	602000	000010		TRNE F,TTYOUT
   303	000337'	364640	000550'		SOJA P,ERROUT
   304	000340'	263640	000000		POPJ P,0
   305
   306	000341'	660000	000100	BADCOD:	TRO F,ALLIOI
   307	000342'	201540	000015		MOVEI CH,15
   308	000343'	260640	002357'		PUSHJ P,OUCH
   309	000344'	200540	003610'		MOVE CH,CODE
   310	000345'	260640	002357'		PUSHJ P,OUCH
   311	000346'	254000	000027'		JRST LUDUP1
   312
   313	000347'	660000	000100	DELST:	TRO F,ALLIOI
   314	000350'	200040	003611'		MOVE A,OLDCOD
   315	000351'	323040	000341'		JUMPLE A,BADCOD
   316	000352'	306040	000007		CAIN A,7
   317	000353'	254000	000356'		JRST .+3
   318	000354'	303040	000004		CAILE A,4
LUDUPD - LUD UPDATER	MACRO 46-6 08:55 18-APR-73 PAGE 1-7
LUDUPD.MAC	19-JAN-73 09:37		- J. MARCIN 9/27/71

   319	000355'	306040	000026		CAIN A,26
   320	000356'	334000	000000		SKIPA
   321	000357'	254000	000341'		JRST BADCOD
   322	000360'	202040	003610'		MOVEM A,CODE
   323	000361'	201040	000021		MOVEI A,21
   324	000362'	202040	003611'		MOVEM A,OLDCOD
   325	000363'	260640	000242'		PUSHJ P,GETSYS
   326	000364'	260640	000256'		PUSHJ P,GETLUD
   327	000365'	260640	000311'		PUSHJ P,NOGOD6
   328	000366'	200040	003614'		MOVE A,SAVORG+2
   329	000367'	202040	003650'		MOVEM A,HLOC
   330	000370'	074760	003650'		USETI DSK,@HLOC
   331	000371'	066740	003603'		INPUT DSK,LUDLST
   332	000372'	063740	740000		STATZ DSK,740000
   333	000373'	254000	000311'		JRST NOGOD6
   334	000374'	200100	003613'		MOVE B,SAVORG+1	;FOUND ENTRY IN SAVORG
   335	000375'	200500	003612'		MOVE INDEX,SAVORG
   336	000376'	200052	004114'		MOVE A,LUDBLK(INDEX)
   337	000377'	202040	003651'		MOVEM A,PPN
   338	000400'	200040	003610'		MOVE A,CODE
   339	000401'	306040	000007		CAIN A,7
   340	000402'	260640	000441'		PUSHJ P,FIXQ
   341	000403'	306040	000003		CAIN A,3
   342	000404'	254000	000451'		JRST FIXCH	;IF CHG. NAME WAS LST CODE...GO DI IT
   343	000405'	306040	000001		CAIN A,1
   344	000406'	202112	004120'		MOVEM B,LUDBLK+4(INDEX)
   345	000407'	306040	000002		CAIN A,2
   346	000410'	402012	004120'		SETZM ,LUDBLK+4(INDEX)
   347	000411'	306040	000004		CAIN A,4	;IF CHG. PRIV.
   348	000412'	260640	000433'		PUSHJ P,FIXP	;RESTORE OLD PRIV.
   349	000413'	306040	000026		CAIN A,26	;IF CHG. DIST.
   350	000414'	260640	000436'		PUSHJ P,FIXD	;RESTORE OLD DIST
   351	000415'	260640	000553'		PUSHJ P,ENDLUD
   352	000416'	200040	003610'		MOVE A,CODE
   353	000417'	302040	000002		CAIE A,2
   354	000420'	254000	000572'		JRST DULAGN
   355	000421'	260640	000655'		PUSHJ P,GETDUL
   356	000422'	260640	000311'		PUSHJ P,NOGOD6
   357	000423'	200100	003620'		MOVE B,SAVORG+6
   358	000424'	312100	003650'		CAME B,HLOC
   359	000425'	260640	000311'		PUSHJ P,NOGOD6
   360	000426'	200500	003615'		MOVE INDEX,SAVORG+3
   361	000427'	402012	004114'		SETZM ,LUDBLK(INDEX)	;GET RID OF OLD DUL ENTRY
   362	000430'	402012	004115'		SETZM ,LUDBLK+1(INDEX)
   363	000431'	402012	004116'		SETZM ,LUDBLK+2(INDEX)
   364	000432'	254000	000564'		JRST DIDIT+2
   365
   366	000433'	200300	003622'	FIXP:	MOVE N,SAVORG+10
   367	000434'	202312	004117'		MOVEM N,LUDBLK+3(INDEX)
   368	000435'	263640	000000		POPJ P,0
   369	000436'	200300	003621'	FIXD:	MOVE N,SAVORG+7
   370	000437'	137300	003576'		DPB N,DISBP
   371	000440'	263640	000000		POPJ P,0
LUDUPD - LUD UPDATER	MACRO 46-6 08:55 18-APR-73 PAGE 1-8
LUDUPD.MAC	19-JAN-73 09:37		- J. MARCIN 9/27/71

   372
   373	000441'	200500	003631'	FIXQ:	MOVE INDEX,SAVDEX
   374	000442'	200300	003635'		MOVE N,OSTRN
   375	000443'	202312	004114'		MOVEM N,LUDBLK(INDEX)
   376	000444'	200300	003636'		MOVE N,OQUOTA
   377	000445'	202312	004115'		MOVEM N,LUDBLK+1(INDEX)
   378	000446'	200300	003637'		MOVE N,OQUOTA+1
   379	000447'	202312	004116'		MOVEM N,LUDBLK+2(INDEX)
   380	000450'	263640	000000		POPJ P,0
   381
   382	000451'	402012	004120'	FIXCH:	SETZM ,LUDBLK+4(INDEX)	;REMOVE OLD NAME
   383	000452'	260640	000553'		PUSHJ P,ENDLUD
   384	000453'	260640	000256'		PUSHJ P,GETLUD
   385	000454'	260640	000311'		PUSHJ P,NOGOD6
   386	000455'	200040	003632'		MOVE A,OLDBLK
   387	000456'	202040	003650'		MOVEM A,HLOC
   388	000457'	074760	003650'		UDSK,@HLOC
   389	000460'	066740	003603'		INPUT DSK,LUDLST
   390	000461'	063740	740000		STATZ DSK,740000
   391	000462'	254000	000311'		JRST NOGOD6
   392	000463'	200500	003631'		MOVE INDEX,SAVDEX
   393	000464'	200040	003630'		MOVE A,SAVHNM
   394	000465'	202052	004120'		MOVEM A,LUDBLK+4(INDEX)	;RESTORE ORIG. NAME
   395	000466'	260640	000553'		PUSHJ P,ENDLUD
   396	000467'	260640	000655'		PUSHJ P,GETDUL
   397	000470'	260640	000311'		PUSHJ P,NOGOD6
   398	000471'	200500	003615'		MOVE INDEX,SAVORG+3
   399	000472'	200040	003633'		MOVE A,OLDNAM
   400	000473'	202052	004115'		MOVEM A,LUDBLK+1(INDEX)
   401	000474'	200040	003634'		MOVE A,OLDNAM+1
   402	000475'	202052	004116'		MOVEM A,LUDBLK+2(INDEX)	;RESTORE ORIG. NAME IN DUL
   403	000476'	254000	000564'		JRST DIDIT+2
   404
   405	000477'	201540	000010	DULERR:	MOVEI CH,10	;SET ERROR CODE FOR DUL ERROR
   406	000500'	660000	000020		TRO F,ERRF
   407	000501'	202540	003641'		MOVEM CH,ERRCOD
   408	000502'	260640	000256'		PUSHJ P,GETLUD
   409	000503'	254000	000550'		JRST ERROUT
   410	000504'	200040	003614'		MOVE A,SAVORG+2
   411	000505'	202040	003650'		MOVEM A,HLOC
   412	000506'	074760	003650'		USETI DSK,@HLOC
   413	000507'	066740	003603'		INPUT DSK,LUDLST
   414	000510'	063740	740000		STATZ DSK,740000
   415	000511'	254000	000550'		JRST ERROUT
   416	000512'	200500	003612'		MOVE INDEX,SAVORG
   417	000513'	200040	003610'		MOVE A,CODE	;IF CODE WAS INSERT, DELETE IT
   418	000514'	306040	000002		CAIN A,2
   419	000515'	254000	000542'		JRST DELENT
   420	000516'	306040	000001		CAIN A,1
   421	000517'	254000	000537'		JRST ADDENT
   422	000520'	302040	000003		CAIE A,3
   423	000521'	254000	000550'		JRST ERROUT
   424	000522'	200300	003711'		MOVE N,NNAME	;GET RID OF NEW NAME FIRST
LUDUPD - LUD UPDATER	MACRO 46-6 08:55 18-APR-73 PAGE 1-9
LUDUPD.MAC	19-JAN-73 09:37		- J. MARCIN 9/27/71

   425	000523'	200340	003712'		MOVE N1,NNAME+1
   426	000524'	260640	002665'		PUSHJ P,HASHER
   427	000525'	202340	003650'		MOVEM N1,HLOC
   428	000526'	200040	003713'		MOVE A,HNNAME
   429	000527'	260640	003135'		PUSHJ P,SETDEX+1
   430	000530'	254000	000550'		JRST ERROUT
   431	000531'	402012	004120'		SETZM ,LUDBLK+4(INDEX)
   432	000532'	260640	000627'		PUSHJ P,GETBLK
   433	000533'	075760	003650'		USETO DSK,@HLOC
   434	000534'	067740	003603'		OUTPUT DSK,LUDLST
   435	000535'	063740	740000		STATZ DSK,740000
   436	000536'	254000	000550'		JRST ERROUT
   437	000537'	200040	003613'	ADDENT:	MOVE A,SAVORG+1
   438	000540'	202052	004120'		MOVEM A,LUDBLK+4(INDEX)
   439	000541'	254000	000543'		JRST ENDERR
   440	000542'	402012	004120'	DELENT:	SETZM ,LUDBLK+4(INDEX)
   441	000543'	075760	003650'	ENDERR:	USETO DSK,@HLOC
   442	000544'	067740	003603'		OUTPUT DSK,LUDLST
   443	000545'	063740	740000		STATZ DSK,740000
   444	000546'	254000	000550'		JRST ERROUT
   445	000547'	070740	000000		CLOSE DSK,
   446	000550'	200540	003641'	ERROUT:	MOVE CH,ERRCOD
   447	000551'	260640	002357'		PUSHJ P,OUCH
   448	000552'	254000	000027'		JRST LUDUP1
   449
   450	000553'	260640	000627'	ENDLUD:	PUSHJ P,GETBLK
   451	000554'	075760	003650'		USETO DSK,@HLOC
   452	000555'	067740	003603'		OUTPUT DSK,LUDLST
   453	000556'	063740	740000		STATZ DSK,740000
   454	000557'	260640	000311'		PUSHJ P,NOGOD6
   455	000560'	070740	000000		CLOSE DSK,
   456	000561'	263640	000000		POPJ P,0
   457
   458	000562'	606000	000001	DIDIT:	TRNN F,BACKUP
   459	000563'	622000	000200		TRZE F,CHACTE
   460	000564'	254000	000567'		JRST .+3
   461	000565'	200040	003610'		MOVE A,CODE
   462	000566'	202040	003611'		MOVEM A,OLDCOD
   463	000567'	602000	000020		TRNE F,ERRF
   464	000570'	254000	000550'		JRST ERROUT
   465	000571'	260640	000553'		PUSHJ P,ENDLUD
   466	000572'	606000	000006	DULAGN:	TRNN	F,ADDDUL+CHDUL
   467	000573'	254000	000612'		JRST	DIDIT2
   468	000574'	260640	000655'		PUSHJ P,GETDUL
   469	000575'	254000	000477'		JRST DULERR
   470	000576'	200040	003651'		MOVE A,PPN
   471	000577'	622000	000004		TRZE	F,ADDDUL
   472	000600'	254000	000702'		JRST	DULADD
   473	000601'	622000	000002		TRZE	F,CHDUL
   474	000602'	254000	000747'		JRST	DULCH
   475	000603'	260640	000627'	DULEND:	PUSHJ P,GETBLK
   476	000604'	075760	003650'		USETO DSK,@HLOC
   477	000605'	067740	003603'		OUTPUT DSK,LUDLST
LUDUPD - LUD UPDATER	MACRO 46-6 08:55 18-APR-73 PAGE 1-10
LUDUPD.MAC	19-JAN-73 09:37		- J. MARCIN 9/27/71

   478	000606'	063740	740000		STATZ DSK,740000
   479	000607'	254000	000477'		JRST DULERR
   480	000610'	070740	000000		CLOSE DSK,
   481	000611'	254000	000572'		JRST DULAGN
   482	000612'	071740	000000	DIDIT2:	RELEASE	DSK,
   483	000613'	602000	000020	DIDIT3:	TRNE F,ERRF
   484	000614'	254000	000550'		JRST ERROUT
   485	000615'	622000	000001		TRZE F,BACKUP
   486					JRST 	[SETZM ,EXT
   487	000616'	254000	004575'			JRST DIDIT4]
   488	000617'	623000	000200		TLZE F,FILOUT
   489	000620'	260640	000767'		PUSHJ P,BILOUT
   490	000621'	200040	003610'		MOVE A,CODE
   491	000622'	306040	000001		CAIN A,1
   492	000623'	260640	001011'		PUSHJ P,DELFIL
   493	000624'	201540	000001	DIDIT4:	MOVEI	CH,1
   494	000625'	260640	002357'		PUSHJ P,OUCH
   495	000626'	254000	000027'		JRST	LUDUP1
   496
   497	000627'	332040	003710'	GETBLK:	SKIPE A,OVBLK
   498	000630'	202040	003650'		MOVEM A,HLOC
   499	000631'	402000	003710'		SETZM ,OVBLK
   500	000632'	263640	000000		POPJ P,0
   501
   502	000633'	400140	000000	FINDUL:	SETZ	C,
   503	000634'	336003	004114'		SKIPN	,LUDBLK(C)
   504	000635'	254000	003157'		JRST NONE
   505	000636'	337003	004114'		SKIPG	,LUDBLK(C)
   506	000637'	254000	000646'		JRST	GETDL2
   507	000640'	316043	004114'		CAMN	A,LUDBLK(C)
   508	000641'	254000	000644'		JRST	PPNEQ
   509	000642'	271140	000003	NEXPPN:	ADDI	C,3
   510	000643'	254000	000634'		JRST	FINDUL+1
   511	000644'	350015	000000	PPNEQ:	AOS	(P)
   512	000645'	263640	000000		POPJ	P,0
   513	000646'	200500	000003	GETDL2:	MOVE INDEX,C
   514	000647'	260640	003165'		PUSHJ	P,ROVBLK
   515	000650'	254000	000633'		JRST	FINDUL
   516
   517
   518	000651'	602000	000001	SETEXT:	TRNE F,BACKUP
   519	000652'	334100	003627'		SKIPA B,EXT
   520	000653'	515100	637163		HRLZI B,(SIXBIT /SYS/)
   521	000654'	263640	000000		POPJ P,0
   522
   523	000655'	200040	004577'	GETDUL:	MOVE A,[SIXBIT/DUL/]
   524	000656'	260640	000651'		PUSHJ P,SETEXT
   525	000657'	403140	000004		SETZB C,D
   526	000660'	076740	000001		LOOKUP DSK,A
   527	000661'	263640	000000		POPJ P,0
   528	000662'	200040	004577'		MOVE A,[SIXBIT /DUL/]
   529	000663'	260640	000651'		PUSHJ P,SETEXT
   530	000664'	403140	000004		SETZB C,D
LUDUPD - LUD UPDATER	MACRO 46-6 08:55 18-APR-73 PAGE 1-11
LUDUPD.MAC	19-JAN-73 09:37		- J. MARCIN 9/27/71

   531	000665'	077740	000001		ENTER DSK,A
   532	000666'	263640	000000		POPJ P,0
   533	000667'	260640	002171'		PUSHJ P,GETLAS
   534	000670'	200040	003651'		MOVE A,PPN
   535	000671'	231040	000145		IDIVI	A,^D101
   536	000672'	271100	000001		ADDI B,1
   537	000673'	202100	003650'		MOVEM B,HLOC
   538	000674'	074760	000002		USETI	DSK,@B
   539	000675'	066740	003603'		INPUT	DSK,LUDLST
   540	000676'	063740	760000		STATZ DSK,760000
   541	000677'	263640	000000		POPJ P,0
   542	000700'	350015	000000		AOS (P)
   543	000701'	263640	000000		POPJ	P,0
   544
   545	000702'	260640	000633'	DULADD:	PUSHJ P,FINDUL
   546	000703'	254000	000705'		JRST .+2
   547	000704'	254000	000326'		JRST NOGO17	
   548	000705'	260640	000720'		PUSHJ P,DULFRE	;SETS C
   549	000706'	332043	004114'	ADDIT:	SKIPE A,LUDBLK(C)
   550	000707'	202043	004117'		MOVEM A,LUDBLK+3(C)
   551	000710'	200040	003651'		MOVE A,PPN
   552	000711'	202043	004114'		MOVEM A,LUDBLK(C)
   553	000712'	200040	003644'		MOVE A,UNAME
   554	000713'	202043	004115'		MOVEM A,LUDBLK+1(C)
   555	000714'	200040	003645'		MOVE A,UNAME+1
   556	000715'	202043	004116'		MOVEM A,LUDBLK+2(C)
   557	000716'	260640	001171'		PUSHJ P,ORGSV1
   558	000717'	254000	000603'		JRST DULEND
   559
   560	000720'	400140	000000	DULFRE:	SETZ C,
   561	000721'	332043	004114'		SKIPE A,LUDBLK(C)	;ZERO ENTRY FOUND??
   562	000722'	254000	000732'		JRST DULFR2	;NO, GO CHECK IT
   563	000723'	200300	000003		MOVE N,C
   564	000724'	271300	000003		ADDI N,3
   565	000725'	305300	000200		CAIGE N,200	;SEE IF ENTRY WILL FIT HERE
   566	000726'	263640	000000		POPJ P,0	;IT WILL, RETURN
   567	000727'	200500	000003		MOVE INDEX,C
   568	000730'	260640	002317'		PUSHJ P,NOFIT	;NO MAKE OVERFLOW BLOCK
   569	000731'	254000	000720'		JRST DULFRE
   570	000732'	321040	000735'	DULFR2:	JUMPL A,DULFR3	;NEGATIVE??
   571	000733'	271140	000003		ADDI C,3	;NO, REGULAR ENTRY, GO GET NEXT
   572	000734'	254000	000721'		JRST DULFRE+1
   573	000735'	200300	000003	DULFR3:	MOVE N,C
   574	000736'	271300	000003		ADDI N,3
   575	000737'	307300	000200		CAIG N,200	;WILL IT FIT BEFORE OVFL PTR??
   576	000740'	254000	000744'		JRST .+4	;YES
   577	000741'	200500	000003		MOVE INDEX,C
   578	000742'	260640	003165'		PUSHJ P,ROVBLK	;NO, GET OVERFLOW BLOCK
   579	000743'	254000	000720'		JRST DULFRE
   580	000744'	200203	004114'		MOVE D,LUDBLK(C)
   581	000745'	202203	004117'		MOVEM D,LUDBLK+3(C)	;SAVE PTR
   582	000746'	263640	000000		POPJ P,0
   583
LUDUPD - LUD UPDATER	MACRO 46-6 08:55 18-APR-73 PAGE 1-12
LUDUPD.MAC	19-JAN-73 09:37		- J. MARCIN 9/27/71

   584	000747'	260640	000633'	DULCH:	PUSHJ P,FINDUL
   585	000750'	254000	000477'		JRST	DULERR
   586	000751'	200043	004115'		MOVE A,LUDBLK+1(C)
   587	000752'	202040	003633'		MOVEM A,OLDNAM
   588	000753'	200043	004116'		MOVE A,LUDBLK+2(C)
   589	000754'	202040	003634'		MOVEM A,OLDNAM+1
   590	000755'	200040	003711'		MOVE A,NNAME
   591	000756'	202040	003616'		MOVEM A,SAVORG+4
   592	000757'	202043	004115'		MOVEM A,LUDBLK+1(C)
   593	000760'	200040	003712'		MOVE A,NNAME+1
   594	000761'	202040	003617'		MOVEM A,SAVORG+5
   595	000762'	202043	004116'		MOVEM A,LUDBLK+2(C)
   596	000763'	202140	003615'		MOVEM C,SAVORG+3
   597	000764'	200040	003650'		MOVE A,HLOC
   598	000765'	202040	003620'		MOVEM A,SAVORG+6
   599	000766'	254000	000603'		JRST DULEND
   600
   601
   602	000767'	261640	003651'	BILOUT:	PUSH P,PPN
   603	000770'	260640	000116'		PUSHJ P,TRANS
   604	000771'	200040	003610'		MOVE A,CODE
   605	000772'	202040	003666'		MOVEM A,PCODE	;SAVE ORIG COMMAND NUMBER
   606	000773'	201040	000003		MOVEI A,3
   607	000774'	202040	003664'		MOVEM A,SCODE
   608	000775'	262640	003651'		POP P,PPN
   609	000776'	254000	001470'		JRST USEUPD+2
   610
   611				;CODE 1
   612	000777'	260640	000137'	DELNAM:	PUSHJ P,USERCM
   613	001000'	260640	003134'		PUSHJ	P,SETDEX	;GET INDEX NO. OF RECORD
   614	001001'	260640	000303'		PUSHJ	P,NOGOD3		;NONE FOUND
   615	001002'	260640	002207'		PUSHJ P,CHKINF
   616	001003'	661000	000200		TLO F,FILOUT
   617	001004'	260640	001162'		PUSHJ P,ORGSAV
   618	001005'	402012	004120'		SETZM	,LUDBLK+4(INDEX)	;ZERO IT
   619	001006'	200052	004114'		MOVE A,LUDBLK(INDEX)
   620	001007'	202040	003651'		MOVEM A,PPN
   621	001010'	254000	000562'		JRST	DIDIT	;RETURN
   622
   623	001011'	200300	004600'	DELFIL:	MOVE N,[XWD 20,12]
   624	001012'	047300	000041		CALLI N,41
   625	001013'	254000	000323'		JRST NOGO16
   626	001014'	514100	000006	CHKJOB:	HRLZ B,N	;SEE IF USER IS LOGGED IN
   627	001015'	541100	000002		HRRI B,2
   628	001016'	047100	000041		CALLI B,41
   629	001017'	254000	000323'		JRST NOGO16
   630	001020'	316100	003651'		CAMN B,PPN
   631	001021'	254000	000323'		JRST NOGO16
   632	001022'	367300	001014'		SOJG N,CHKJOB
   633	001023'	201340	000000		MOVEI N1,0
   634	001024'	047340	000046	NXTST:	CALLI N1,46
   635	001025'	254000	000323'		JRST NOGO16
   636	001026'	322340	001107'		JUMPE N1,ENDSTR
LUDUPD - LUD UPDATER	MACRO 46-6 08:55 18-APR-73 PAGE 1-13
LUDUPD.MAC	19-JAN-73 09:37		- J. MARCIN 9/27/71

   637	001027'	202340	001031'		MOVEM N1,.+2
   638	001030'	041740	000017		INIT DSK,17
   639	001031'	000000	000000		0
   640	001032'	000000	000000		0
   641	001033'	254000	000323'		JRST NOGO16
   642	001034'	200040	003651'		MOVE A,PPN
   643	001035'	515100	654644		HRLZI B,(SIXBIT/UFD/)
   644	001036'	400140	000000		SETZ C,
   645	001037'	200200	004601'		MOVE D,[XWD 1,1]
   646	001040'	076740	000001		LOOKUP DSK,A
   647	001041'	254000	001024'		JRST NXTST
   648	001042'	066740	003603'		INPUT DSK,LUDLST
   649	001043'	063740	740000		STATZ DSK,740000
   650	001044'	254000	000323'		JRST NOGO16
   651	001045'	063740	020000		STATZ DSK,20000
   652	001046'	254000	001101'		JRST DELUFD+1	;IF END OF FILE, GO DELETE UFD...
   653	001047'	202340	001051'		MOVEM N1,.+2
   654	001050'	041640	000017		INIT DSK1,17
   655	001051'	000000	000000		0
   656	001052'	000000	000000		0
   657	001053'	254000	000323'		JRST NOGO16
   658	001054'	400500	000000		SETZ INDEX,
   659	001055'	200052	004114'	NXTFIL:	MOVE A,LUDBLK(INDEX)
   660	001056'	322040	001100'		JUMPE A,DELUFD
   661	001057'	510112	004115'		HLLZ B,LUDBLK+1(INDEX)
   662	001060'	400140	000000		SETZ C,
   663	001061'	200200	003651'		MOVE D,PPN
   664	001062'	076640	000001		LOOKUP DSK1,A
   665	001063'	254000	000323'		JRST NOGO16
   666	001064'	403040	000002		SETZB A,B
   667	001065'	400140	000000		SETZ C,
   668	001066'	200200	003651'		MOVE D,PPN
   669	001067'	055640	000001		RENAME DSK1,A
   670	001070'	254000	000323'		JRST NOGO16
   671	001071'	271500	000005		ADDI INDEX,5
   672	001072'	305500	000200		CAIGE INDEX,200
   673	001073'	254000	001055'		JRST NXTFIL
   674	001074'	066740	003603'		INPUT DSK,LUDLST
   675	001075'	063740	760000		STATZ DSK,760000
   676	001076'	254000	000323'		JRST NOGO16
   677	001077'	254000	001054'		JRST NXTFIL-1
   678	001100'	071640	000000	DELUFD:	RELEASE DSK1,
   679	001101'	403040	000002		SETZB A,B
   680	001102'	400140	000000		SETZ C,
   681	001103'	200200	004601'		MOVE D,[XWD 1,1]
   682	001104'	055740	000001		RENAME DSK,A
   683	001105'	254000	000323'		JRST NOGO16
   684	001106'	254000	001024'		JRST NXTST
   685	001107'	071740	000000	ENDSTR:	RELEASE DSK,
   686	001110'	602000	000010		TRNE F,TTYOUT
   687	001111'	263640	000000		POPJ P,0
   688	001112'	201540	000001		MOVEI CH,1
   689	001113'	260640	002357'		PUSHJ P,OUCH
LUDUPD - LUD UPDATER	MACRO 46-6 08:55 18-APR-73 PAGE 1-14
LUDUPD.MAC	19-JAN-73 09:37		- J. MARCIN 9/27/71

   690	001114'	554300	003651'		HLRZ N,PPN
   691	001115'	260640	002602'		PUSHJ P,NUMOUT
   692	001116'	550300	003651'		HRRZ N,PPN
   693	001117'	260640	002602'		PUSHJ P,NUMOUT
   694	001120'	254000	000027'		JRST LUDUP1
   695
   696				;CODE2
   697	001121'	260640	000137'	NEWNAM:	PUSHJ P,USERCM
   698	001122'	260640	003134'		PUSHJ P,SETDEX
   699	001123'	254000	001125'		JRST .+2
   700	001124'	260640	000301'		PUSHJ P,NOGOD2
   701	001125'	602000	000010	GETAUN:	TRNE F,TTYOUT
   702	001126'	051140	004602'		TTCALL 3,[ASCIZ /GAN: /]
   703	001127'	260640	002507'		PUSHJ P,GETNUM
   704	001130'	516300	003651'		HRLZM N,PPN
   705	001131'	602000	000010		TRNE F,TTYOUT
   706	001132'	051140	004604'		TTCALL 3,[ASCIZ /UUN: /]
   707	001133'	260640	002507'		PUSHJ P,GETNUM
   708	001134'	620300	400000		TRZ N,400000
   709	001135'	542300	003651'		HRRM N,PPN
   710	001136'	260640	002347'		PUSHJ P,GETDIS
   711	001137'	260640	002337'		PUSHJ P,GETPBT
   712	001140'	260640	002774'		PUSHJ P,GETSTR	;GET STRUCTURE INFO
   713	001141'	254000	001143'		JRST .+2	;STR NOT THERE...GOOD
   714	001142'	260640	000307'		PUSHJ P,NOGOD5	;STR ALLREADY THERE
   715	001143'	260640	002207'		PUSHJ P,CHKINF
   716	001144'	661000	000200		TLO F,FILOUT
   717	001145'	201300	000010		MOVEI N,^D8
   718	001146'	260640	002237'		PUSHJ P,GETFRE	;GET NEXT FREE SPACE BIG ENUF
   719	001147'	137300	004606'		DPB N,[POINT 7,DIST+1,35]	;SAVE SIZE OF ENTRY
   720	001150'	505040	003651'		HRLI A,PPN
   721	001151'	541040	004114'		HRRI A,LUDBLK
   722	001152'	270040	000012		ADD A,INDEX
   723	001153'	550100	000001		HRRZ B,A
   724	001154'	270100	000006		ADD B,N
   725	001155'	275100	000001		SUBI B,1
   726	001156'	251060	000002		BLT A,@B
   727	001157'	260640	001162'		PUSHJ P,ORGSAV
   728	001160'	660000	000004		TRO F,ADDDUL
   729	001161'	254000	000562'		JRST DIDIT
   730
   731	001162'	202500	003612'	ORGSAV:	MOVEM INDEX,SAVORG
   732	001163'	200052	004120'		MOVE A,LUDBLK+4(INDEX)
   733	001164'	202040	003613'		MOVEM A,SAVORG+1
   734	001165'	260640	000627'		PUSHJ P,GETBLK
   735	001166'	200040	003650'		MOVE A,HLOC
   736	001167'	202040	003614'		MOVEM A,SAVORG+2
   737	001170'	263640	000000		POPJ P,0
   738
   739	001171'	202140	003615'	ORGSV1:	MOVEM C,SAVORG+3
   740	001172'	200040	003644'		MOVE A,UNAME
   741	001173'	202040	003616'		MOVEM A,SAVORG+4
   742	001174'	200040	003645'		MOVE A,UNAME+1
LUDUPD - LUD UPDATER	MACRO 46-6 08:55 18-APR-73 PAGE 1-15
LUDUPD.MAC	19-JAN-73 09:37		- J. MARCIN 9/27/71

   743	001175'	202040	003617'		MOVEM A,SAVORG+5
   744	001176'	260640	000627'		PUSHJ P,GETBLK
   745	001177'	200040	003650'		MOVE A,HLOC
   746	001200'	202040	003620'		MOVEM A,SAVORG+6
   747	001201'	263640	000000		POPJ P,0
   748
   749				;CODE3
   750	001202'	260640	000137'	CHNAME:	PUSHJ P,USERCM
   751	001203'	260640	003134'		PUSHJ P,SETDEX	;GET INDEX OF OLD USER NAME
   752	001204'	260640	000303'		PUSHJ P,NOGOD3	;NOT FOUND, SET ERROR CODE
   753	001205'	260640	000627'		PUSHJ P,GETBLK	;SAVE BLK NO. OF OLD USER IN HLOC
   754	001206'	201300	000014		MOVEI N,^D12
   755	001207'	602000	000010		TRNE F,TTYOUT
   756	001210'	051140	004607'		TTCALL 3,[ASCIZ /NEW USER NAME: /]
   757	001211'	200700	004613'		MOVE BP,[POINT 6,NNAME]
   758	001212'	260640	002446'		PUSHJ P,GETWD
   759	001213'	260640	002207'		PUSHJ P,CHKINF
   760	001214'	661000	000200		TLO F,FILOUT
   761	001215'	202500	003631'		MOVEM INDEX,SAVDEX	;SAVE INDEX FOR OLD NAME
   762	001216'	260640	003054'		PUSHJ P,SAVIT	;SAVE ALL OLD INFO AS IS
   763	001217'	200052	004120'		MOVE A,LUDBLK+4(INDEX)
   764	001220'	202040	003630'		MOVEM A,SAVHNM
   765	001221'	402012	004120'		SETZM ,LUDBLK+4(INDEX)	;ZERO OLD ENTRY IN BLK
   766	001222'	200040	003650'		MOVE A,HLOC
   767	001223'	202040	003632'		MOVEM A,OLDBLK
   768	001224'	075760	003650'		USETO DSK,@HLOC
   769	001225'	067740	003603'		OUTPUT DSK,LUDLST
   770	001226'	063740	740000		STATZ DSK,740000
   771	001227'	260640	000311'		PUSHJ P,NOGOD6
   772	001230'	602000	000020		TRNE F,ERRF
   773	001231'	254000	000562'		JRST DIDIT
   774	001232'	200300	003711'		MOVE N,NNAME
   775	001233'	200340	003712'		MOVE N1,NNAME+1
   776	001234'	260640	002665'		PUSHJ P,HASHER
   777	001235'	202300	003713'		MOVEM N,HNNAME
   778	001236'	202340	003650'		MOVEM N1,HLOC
   779	001237'	074760	003650'		USETI DSK,@HLOC
   780	001240'	066740	003603'		INPUT DSK,LUDLST
   781	001241'	063740	760000		STATZ DSK,760000
   782	001242'	260640	000311'		PUSHJ P,NOGOD6
   783	001243'	602000	000020		TRNE F,ERRF
   784	001244'	254000	001250'		JRST BADCHG
   785	001245'	200040	003713'		MOVE A,HNNAME
   786	001246'	260640	003135'		PUSHJ P,SETDEX+1
   787	001247'	254000	001264'		JRST CHNAM1
   788	001250'	074760	003632'	BADCHG:	USETI DSK,@OLDBLK	;RETURN OLD INFO IF NAME ALLREADY THERE
   789	001251'	066740	003603'		INPUT DSK,LUDLST
   790	001252'	063740	760000		STATZ DSK,760000
   791	001253'	260640	000311'		PUSHJ P,NOGOD6
   792	001254'	200500	003631'		MOVE INDEX,SAVDEX
   793	001255'	260640	003065'		PUSHJ P,RETIT
   794	001256'	075760	003632'		USETO DSK,@OLDBLK
   795	001257'	067740	003603'		OUTPUT DSK,LUDLST
LUDUPD - LUD UPDATER	MACRO 46-6 08:55 18-APR-73 PAGE 1-16
LUDUPD.MAC	19-JAN-73 09:37		- J. MARCIN 9/27/71

   796	001260'	063740	740000		STATZ DSK,740000
   797	001261'	260640	000311'		PUSHJ P,NOGOD6
   798	001262'	260640	000301'		PUSHJ P,NOGOD2
   799	001263'	254000	000562'		JRST DIDIT
   800	001264'	200300	003642'	CHNAM1:	MOVE N,NENTRY
   801	001265'	260640	002237'		PUSHJ P,GETFRE
   802	001266'	260640	003065'		PUSHJ P,RETIT
   803	001267'	200040	003713'		MOVE A,HNNAME
   804	001270'	202052	004120'		MOVEM A,LUDBLK+4(INDEX)
   805	001271'	200052	004114'		MOVE A,LUDBLK(INDEX)
   806	001272'	202040	003651'		MOVEM A,PPN
   807	001273'	660000	000002		TRO F,CHDUL
   808	001274'	260640	001162'		PUSHJ P,ORGSAV
   809	001275'	254000	000562'		JRST DIDIT
   810
   811				;CODE4
   812	001276'	260640	000137'	PBITS:	PUSHJ P,USERCM
   813	001277'	260640	003134'		PUSHJ	P,SETDEX	;GET INDEX OF RECORD
   814	001300'	260640	000303'		PUSHJ P,NOGOD3		;USER NAME NOT FOUND
   815	001301'	200052	004117'		MOVE A,LUDBLK+3(INDEX)
   816	001302'	202040	003622'		MOVEM A,SAVORG+10
   817	001303'	660000	000040		TRO F,NEWF
   818	001304'	260640	002337'		PUSHJ	P,GETPBT
   819	001305'	202312	004117'		MOVEM N,LUDBLK+3(INDEX)
   820	001306'	260640	002207'		PUSHJ P,CHKINF
   821	001307'	260640	001162'		PUSHJ P,ORGSAV
   822	001310'	254000	000562'		JRST	DIDIT
   823
   824				;CODE5
   825	001311'	260640	000137'	ADDSTR:	PUSHJ P,USERCM
   826	001312'	260640	003134'		PUSHJ P,SETDEX
   827	001313'	260640	000303'		PUSHJ P,NOGOD3
   828	001314'	260640	002774'		PUSHJ P,GETSTR	;ORIG INDEX SAVED IN SAVDEX
   829	001315'	254000	001317'		JRST .+2
   830	001316'	260640	000307'		PUSHJ P,NOGOD5
   831	001317'	260640	002207'		PUSHJ P,CHKINF
   832	001320'	200500	003631'		MOVE INDEX,SAVDEX
   833	001321'	260640	003054'		PUSHJ P,SAVIT
   834	001322'	402012	004120'		SETZM ,LUDBLK+4(INDEX)
   835	001323'	661000	000020		TLO F,CHANGED
   836	001324'	200300	003642'		MOVE N,NENTRY
   837	001325'	271300	000003		ADDI N,3
   838	001326'	202300	003642'		MOVEM N,NENTRY
   839	001327'	260640	002237'		PUSHJ P,GETFRE
   840	001330'	137300	004614'		DPB N,[POINT 7,SAVINF+2,35]
   841	001331'	260640	003065'		PUSHJ P,RETIT
   842	001332'	270500	000006		ADD INDEX,N
   843	001333'	275500	000003		SUBI INDEX,3
   844	001334'	254000	003045'		JRST SAVSTR
   845
   846				;CODE 10 ADD CUSTOMER INFO TO NAMADD.DAT
   847	001335'	260640	000156'	ADDCUS:	PUSHJ P,CUSTIN
   848	001336'	260640	003075'		PUSHJ P,GETNAM
LUDUPD - LUD UPDATER	MACRO 46-6 08:55 18-APR-73 PAGE 1-17
LUDUPD.MAC	19-JAN-73 09:37		- J. MARCIN 9/27/71

   849	001337'	200700	004615'		MOVE BP,[POINT 7,CADDR]
   850	001340'	260640	003104'		PUSHJ P,GETADD
   851	001341'	200700	004616'		MOVE BP,[POINT 7,MAILAD]
   852	001342'	260640	003115'		PUSHJ P,GETMAIL
   853	001343'	260640	003120'		PUSHJ P,GETTAX
   854	001344'	260640	003126'		PUSHJ P,GETSLS
   855	001345'	201040	000001		MOVEI A,1
   856	001346'	202040	003664'	CUSUPD:	MOVEM A,SCODE
   857	001347'	260640	002207'		PUSHJ P,CHKINF
   858	001350'	606000	000010		TRNN F,TTYOUT
   859	001351'	071700	000000		RELEASE TTY,
   860	001352'	260640	002165'		PUSHJ P,SAVACS
   861	001353'	266700	000000*		JSA 16,NAMUP
   862	001354'	000000	003664'		0,SCODE
   863	001355'	000000	003663'		0,CUSTNO
   864	001356'	000000	003670'		0,SLSMAN
   865	001357'	254000	001512'		JRST BAKBIL
   866
   867				;CODE 11 CHANGE RUB
   868	001360'	260640	000137'	CHGRUB:	PUSHJ P,USERCM
   869	001361'	260640	003134'		PUSHJ P,SETDEX
   870	001362'	260640	000303'		PUSHJ P,NOGOD3
   871	001363'	606000	000010		TRNN F,TTYOUT
   872	001364'	254000	001374'		JRST GETBIT
   873	001365'	051140	004617'		TTCALL 3,[ASCIZ/SET RESTRICTED USE BIT?? /]
   874	001366'	260640	002221'		PUSHJ P,YORN
   875	001367'	334540	003626'		SKIPA CH,ONE
   876	001370'	400540	000000		SETZ CH,
   877	001371'	137540	004624'	SETRUB:	DPB CH,[POINT 1,LUDBLK+2(INDEX),2]
   878	001372'	260640	002207'		PUSHJ P,CHKINF
   879	001373'	254000	000562'		JRST DIDIT
   880	001374'	260640	002373'	GETBIT:	PUSHJ P,INCH
   881	001375'	254000	001371'		JRST SETRUB
   882
   883				;CODE 12 CHANGE CUSTOMER INFO
   884	001376'	260640	000156'	CHCUS:	PUSHJ P,CUSTIN
   885	001377'	602000	000010		TRNE F,TTYOUT
   886	001400'	051140	004625'		TTCALL 3,[ASCIZ /CODE: /]
   887	001401'	201600	000001		MOVEI Z,1
   888	001402'	260640	002507'		PUSHJ P,GETNUM
   889	001403'	322300	001405'	CHCUS2:	JUMPE N,.+2
   890	001404'	301300	000006		CAIL N,6
   891	001405'	254000	000341'		JRST BADCOD
   892	001406'	275300	000001		SUBI N,1
   893	001407'	602000	000010		TRNE F,TTYOUT
   894	001410'	051140	004567'		TTCALL 3,[ASCIZ /NEW /]
   895	001411'	254006	001412'		JRST DISTB(N)
   896
   897	001412'	254000	001417'	DISTB:	JRST CHNAM
   898	001413'	254000	001422'		JRST CHADDR
   899	001414'	254000	001426'		JRST CHMAIL
   900	001415'	254000	001432'		JRST CHTAX
   901	001416'	254000	001435'		JRST CHSLMN
LUDUPD - LUD UPDATER	MACRO 46-6 08:55 18-APR-73 PAGE 1-18
LUDUPD.MAC	19-JAN-73 09:37		- J. MARCIN 9/27/71

   902
   903	001417'	260640	003075'	CHNAM:	PUSHJ P,GETNAM
   904	001420'	201040	000003		MOVEI A,3
   905	001421'	254000	001346'		JRST CUSUPD
   906
   907	001422'	200700	004615'	CHADDR:	MOVE BP,[POINT 7,CADDR]
   908	001423'	260640	003104'		PUSHJ P,GETADD
   909	001424'	201040	000004		MOVEI A,4
   910	001425'	254000	001346'		JRST CUSUPD
   911
   912	001426'	200700	004616'	CHMAIL:	MOVE BP,[POINT 7,MAILAD]
   913	001427'	260640	003115'		PUSHJ P,GETMAIL
   914	001430'	201040	000005		MOVEI A,5
   915	001431'	254000	001346'		JRST CUSUPD
   916
   917	001432'	260640	003120'	CHTAX:	PUSHJ P,GETTAX
   918	001433'	201040	000006		MOVEI A,6
   919	001434'	254000	001346'		JRST CUSUPD
   920
   921	001435'	260640	003126'	CHSLMN:	PUSHJ P,GETSLS
   922	001436'	201040	000007		MOVEI A,7
   923	001437'	254000	001346'		JRST CUSUPD
   924
   925				;CODE 13 - CHANGE PRICING AND TRACKING CODE
   926	001440'	260640	000104'	CHPRIC:	PUSHJ P,USERIN
   927	001441'	260640	002557'		PUSHJ P,SETSIT
   928	001442'	660000	000040		TRO F,NEWF
   929	001443'	260640	002144'		PUSHJ P,SETCOD
   930	001444'	201040	000005		MOVEI A,5
   931	001445'	254000	001466'		JRST USEUPD
   932
   933				;CODE 14 CHANGE A NON-OFFICIAL LUD/DUL - SET UP FLAGS AND FOLLOW
   934				; 	THRU CODE AS NORMAL
   935	001446'	660000	000001	CHGLUD:	TRO F,BACKUP
   936	001447'	200700	004627'		MOVE BP,[POINT 6,EXT]
   937	001450'	602000	000010		TRNE F,TTYOUT
   938	001451'	051140	004630'		TTCALL 3,[ASCIZ/SITE: /]
   939	001452'	201300	000002		MOVEI N,2
   940	001453'	260640	002446'		PUSHJ P,GETWD
   941	001454'	254000	000027'		JRST LUDUP1
   942
   943				;CODE 15 DELETE AN ENTRY IN ACCOUNTING
   944	001455'	260640	000104'	DELBIL:	PUSHJ P,USERIN
   945	001456'	260640	002557'		PUSHJ P,SETSIT
   946	001457'	201040	000002		MOVEI A,2
   947	001460'	254000	001466'		JRST USEUPD
   948
   949				;CODE 16 ADD AN ENTRY TO THE ACCOUNTING (USERS.DAT)
   950	001461'	260640	000104'	ADDBIL:	PUSHJ P,USERIN
   951	001462'	260640	000156'		PUSHJ P,CUSTIN
   952	001463'	260640	002557'		PUSHJ P,SETSIT
   953	001464'	260640	002144'		PUSHJ P,SETCODE
   954	001465'	201040	000001		MOVEI A,1
LUDUPD - LUD UPDATER	MACRO 46-6 08:55 18-APR-73 PAGE 1-19
LUDUPD.MAC	19-JAN-73 09:37		- J. MARCIN 9/27/71

   955	001466'	202040	003664'	USEUPD:	MOVEM A,SCODE
   956	001467'	260640	002207'		PUSHJ P,CHKINF
   957	001470'	200040	003651'		MOVE A,PPN
   958	001471'	202040	003623'		MOVEM A,SAVBIL
   959	001472'	200040	003665'		MOVE A,SITE
   960	001473'	202040	003624'		MOVEM A,SAVBIL+1
   961	001474'	200040	003610'		MOVE A,CODE
   962	001475'	202040	003625'		MOVEM A,SAVBIL+2
   963	001476'	660000	000200		TRO F,CHACTE
   964	001477'	606000	000010		TRNN F,TTYOUT
   965	001500'	071700	000000		RELEASE TTY,
   966	001501'	260640	002165'		PUSHJ P,SAVACS
   967	001502'	266700	000000*		JSA 16,USERUP
   968	001503'	000000	003664'		0,SCODE
   969	001504'	000240	003644'		5,UNAME
   970	001505'	000240	003645'		5,UNAME+1
   971	001506'	000240	003665'		5,SITE
   972	001507'	000000	003666'		0,PCODE
   973	001510'	000000	003667'		0,TCODE
   974	001511'	000000	003663'		0,CUSTNO
   975	001512'	200700	004632'	BAKBIL:	MOVE 16,[XWD ACBLK,0]
   976	001513'	251700	000016		BLT 16,16
   977	001514'	606000	000010		TRNN F,TTYOUT
   978	001515'	260640	000234'		PUSHJ P,GETTTY
   979	001516'	200540	003664'		MOVE CH,SCODE
   980	001517'	602000	001000		TRNE F,LIST
   981	001520'	254000	001524'		JRST LISBAK
   982	001521'	306540	000001		CAIN CH,1
   983	001522'	254000	000613'		JRST DIDIT3
   984	001523'	254000	000331'		JRST NOGOOD
   985	001524'	620000	001000	LISBAK:	TRZ F,LIST
   986	001525'	302540	000001		CAIE CH,1
   987	001526'	254000	000331'		JRST NOGOOD
   988	001527'	370000	000015		SOS ,P
   989	001530'	660000	001000		TRO F,LIST
   990	001531'	602000	000010		TRNE F,TTYOUT
   991	001532'	263640	000000		POPJ P,0
   992	001533'	201540	000001		MOVEI CH,1
   993	001534'	260640	002357'		PUSHJ P,OUCH
   994	001535'	263640	000000		POPJ P,0
   995
   996				;CODE 27 - DELETE LAST BILLING ENTRY MADE
   997				;VALID CODE ONLY IF LAST BILLING COMMAND WAS 15 OR 16
   998	001536'	336040	003625'	REVBIL:	SKIPN A,SAVBIL+2	;GET CODE IN A
   999	001537'	254000	000341'		JRST BADCOD	;IF ZERO, ERROR
  1000	001540'	200300	003623'		MOVE N,SAVBIL	;GET OLD PPN
  1001	001541'	202300	003651'		MOVEM N,PPN	;SAVE IT
  1002	001542'	260640	000121'		PUSHJ P,TRANS+3
  1003	001543'	200300	003624'		MOVE N,SAVBIL+1	;GET SITE AND SAVE IT
  1004	001544'	202300	003665'		MOVEM N,SITE
  1005	001545'	200040	003625'		MOVE A,SAVBIL+2
  1006	001546'	306040	000015		CAIN A,15
  1007	001547'	254000	001554'		JRST REVD	;OLD CODE WAS DELETE...REVERSE IT
LUDUPD - LUD UPDATER	MACRO 46-6 08:55 18-APR-73 PAGE 1-20
LUDUPD.MAC	19-JAN-73 09:37		- J. MARCIN 9/27/71

  1008	001550'	302040	000016		CAIE A,16
  1009	001551'	254000	000341'		JRST BADCOD	;OLD CODE NOT 15 OR 16...ERROR
  1010	001552'	201040	000007		MOVEI A,7	;REMOVE ENTRY JUST MODE
  1011	001553'	254000	001466'		JRST USEUPD
  1012	001554'	201040	000010	REVD:	MOVEI A,10
  1013	001555'	254000	001466'		JRST USEUPD
  1014
  1015				;CODE 20 LIST ALL USERS FOR A PROJECT
  1016				;GUY GIVES ME THE GAN. I RETURN:
  1017				;1 OR 3
  1018				;IF 1:
  1019					;12 CHAR. NAMES
  1020					;377
  1021	001556'	661000	000100	LISALL:	TLO F,NOUSR
  1022	001557'	660000	001000		TRO F,LIST
  1023	001560'	260640	000104'		PUSHJ P,USERIN
  1024	001561'	260640	000242'		PUSHJ P,GETSYS
  1025	001562'	260640	000256'		PUSHJ P,GETLUD
  1026	001563'	260640	000311'		PUSHJ P,NOGOD6
  1027	001564'	660000	000100		TRO F,ALLIOI
  1028	001565'	201040	000001		MOVEI A,1
  1029	001566'	303040	001567	NXTLST:	CAILE A,^D887
  1030	001567'	254000	001613'		JRST LSTDON
  1031	001570'	074760	000001		USETI DSK,@A
  1032	001571'	066740	003603'		INPUT DSK,LUDLST
  1033	001572'	063740	760000		STATZ DSK,760000
  1034	001573'	260640	000311'		PUSHJ P,NOGOD6
  1035	001574'	400500	000000		SETZ INDEX,
  1036	001575'	335112	004114'	NXTBLK:	SKIPGE B,LUDBLK(INDEX)
  1037	001576'	254000	001611'		JRST GETOV
  1038	001577'	306100	000000		CAIN B,0
  1039	001600'	344040	001566'		AOJA A,NXTLST
  1040	001601'	336012	004120'		SKIPN ,LUDBLK+4(INDEX)
  1041	001602'	254000	001606'		JRST NXT
  1042	001603'	510100	000002		HLLZ B,B
  1043	001604'	316100	003651'		CAMN B,PPN
  1044	001605'	260640	001621'		PUSHJ P,USROUT
  1045	001606'	135300	003577'	NXT:	LDB N,NENTP
  1046	001607'	270500	000006		ADD INDEX,N
  1047	001610'	254000	001575'		JRST NXTBLK
  1048	001611'	260640	003165'	GETOV:	PUSHJ P,ROVBLK
  1049	001612'	254000	001574'		JRST NXTBLK-1
  1050	001613'	623000	000100	LSTDON:	TLZE F,NOUSR
  1051	001614'	260640	000303'		PUSHJ P,NOGOD3
  1052	001615'	201540	000377		MOVEI CH,377
  1053	001616'	606000	000010		TRNN F,TTYOUT
  1054	001617'	260640	002357'		PUSHJ P,OUCH
  1055	001620'	254000	000027'		JRST LUDUP1
  1056	001621'	627000	000100	USROUT:	TLZN F,NOUSR
  1057	001622'	254000	001626'		JRST .+4
  1058	001623'	201540	000001		MOVEI CH,1
  1059	001624'	606000	000010		TRNN F,TTYOUT
  1060	001625'	260640	002357'		PUSHJ P,OUCH
LUDUPD - LUD UPDATER	MACRO 46-6 08:55 18-APR-73 PAGE 1-21
LUDUPD.MAC	19-JAN-73 09:37		- J. MARCIN 9/27/71

  1061	001626'	041640	000017		INIT DSK1,17
  1062	001627'	637163	000000		SIXBIT /SYS/
  1063	001630'	000000	000000		0
  1064	001631'	260640	000311'		PUSHJ P,NOGOD6
  1065	001632'	200140	004577'		MOVE C,[SIXBIT/DUL/]
  1066	001633'	515200	637163		HRLZI D,(SIXBIT/SYS/)
  1067	001634'	403240	000006		SETZB E,N
  1068	001635'	076640	000003		LOOKUP DSK1,C
  1069	001636'	260640	000311'		PUSHJ P,NOGOD6
  1070	001637'	200152	004114'		MOVE C,LUDBLK(INDEX)
  1071	001640'	231140	000145		IDIVI C,^D101
  1072	001641'	271200	000001		ADDI D,1
  1073	001642'	074660	000004		USETI DSK1,@D
  1074	001643'	066640	003601'		INPUT DSK1,DULLST
  1075	001644'	063640	760000		STATZ DSK1,760000
  1076	001645'	260640	000311'		PUSHJ P,NOGOD6
  1077	001646'	200152	004114'		MOVE C,LUDBLK(INDEX)
  1078	001647'	400200	000000	GETPPN:	SETZ D,
  1079	001650'	336004	003714'		SKIPN ,DULBLK(D)
  1080	001651'	263640	000000		POPJ P,0
  1081	001652'	337004	003714'		SKIPG ,DULBLK(D)
  1082	001653'	254000	001660'		JRST RDOV
  1083	001654'	316144	003714'		CAMN C,DULBLK(D)
  1084	001655'	254000	001665'		JRST FNDIT
  1085	001656'	271200	000003		ADDI D,3
  1086	001657'	254000	001650'		JRST GETPPN+1
  1087	001660'	261640	000012	RDOV:	PUSH P,INDEX
  1088	001661'	200500	000004		MOVE INDEX,D
  1089	001662'	260640	003165'		PUSHJ P,ROVBLK
  1090	001663'	262640	000012		POP P,INDEX
  1091	001664'	254000	001647'		JRST GETPPN
  1092	001665'	201300	000014	FNDIT:	MOVEI N,^D12
  1093	001666'	200700	004633'		MOVE BP,[POINT 6,DULBLK+1(D)]
  1094	001667'	260640	002652'		PUSHJ P,WDSOUT
  1095	001670'	263640	000000		POPJ P,0
  1096
  1097				;CODE 22 LIST LUD ENTRY
  1098	001671'	260640	000137'	LISLUD:	PUSHJ P,USERCM
  1099	001672'	660000	000100		TRO F,ALLIOI
  1100	001673'	260640	003134'		PUSHJ P,SETDEX
  1101	001674'	260640	000303'		PUSHJ P,NOGOD3
  1102	001675'	660000	001000		TRO F,LIST
  1103	001676'	201540	000001		MOVEI CH,1
  1104	001677'	606000	000010		TRNN F,TTYOUT
  1105	001700'	260640	002357'		PUSHJ P,OUCH
  1106	001701'	602000	000010		TRNE F,TTYOUT
  1107	001702'	051140	004634'		TTCALL 3,[ASCIZ/PPN: /]
  1108	001703'	554312	004114'		HLRZ N,LUDBLK(INDEX)
  1109	001704'	260640	002602'		PUSHJ P,NUMOUT
  1110	001705'	201540	000054		MOVEI CH,","
  1111	001706'	602000	000010		TRNE F,TTYOUT
  1112	001707'	051040	000013		TTCALL 1,CH
  1113	001710'	550312	004114'		HRRZ N,LUDBLK(INDEX)
LUDUPD - LUD UPDATER	MACRO 46-6 08:55 18-APR-73 PAGE 1-22
LUDUPD.MAC	19-JAN-73 09:37		- J. MARCIN 9/27/71

  1114	001711'	260640	002602'		PUSHJ P,NUMOUT
  1115	001712'	602000	000010		TRNE F,TTYOUT
  1116					TTCALL 3,[ASCIZ/
  1117	001713'	051140	004636'	DISTRICT NO.: /]
  1118	001714'	661000	000010		TLO F,DECINF
  1119	001715'	200312	004115'		MOVE N,LUDBLK+1(INDEX)
  1120	001716'	405300	000377		ANDI N,377
  1121	001717'	260640	002602'		PUSHJ P,NUMOUT
  1122	001720'	606000	000010		TRNN F,TTYOUT
  1123	001721'	254000	001773'		JRST PRVOUT
  1124					TTCALL 3,[ASCIZ/
  1125	001722'	051140	004642'	PRIV. BITS: /]
  1126	001723'	554312	004117'		HLRZ N,LUDBLK+3(INDEX)
  1127	001724'	260640	002602'		PUSHJ P,NUMOUT
  1128	001725'	201540	000054		MOVEI CH,","
  1129	001726'	602000	000010		TRNE F,TTYOUT
  1130	001727'	051040	000013		TTCALL 1,CH
  1131	001730'	550312	004117'		HRRZ N,LUDBLK+3(INDEX)
  1132	001731'	260640	002602'		PUSHJ P,NUMOUT
  1133	001732'	260640	002662'	LSTBAK:	PUSHJ P,CRLF
  1134	001733'	200400	003642'		MOVE N2,NENTRY
  1135	001734'	602000	000400		TRNE F,INITF	;IF INIT FLAG SET, ADD 3 MORE
  1136	001735'	275400	000003		SUBI N2,3
  1137	001736'	275400	000005		SUBI N2,5
  1138	001737'	231400	000003		IDIVI N2,3
  1139	001740'	200540	000010		MOVE CH,N2
  1140	001741'	606000	000010		TRNN F,TTYOUT
  1141	001742'	260640	002357'		PUSHJ P,OUCH
  1142	001743'	271500	000005		ADDI INDEX,5
  1143	001744'	602000	000400		TRNE F,INITF
  1144	001745'	271500	000003		ADDI INDEX,3
  1145	001746'	602000	000010	LLUD2:	TRNE F,TTYOUT
  1146	001747'	051140	004645'		TTCALL 3,[ASCIZ/STR: /]
  1147	001750'	201300	000004		MOVEI N,4
  1148	001751'	200700	004647'		MOVE BP,[POINT 6,LUDBLK(INDEX)]
  1149	001752'	260640	002652'		PUSHJ P,WDSOUT
  1150	001753'	602000	000010		TRNE F,TTYOUT
  1151	001754'	051140	004650'		TTCALL 3,[ASCIZ /QUOTA IN: /]
  1152	001755'	200312	004115'		MOVE N,LUDBLK+1(INDEX)
  1153	001756'	661000	000010		TLO F,DECINF
  1154	001757'	260640	002602'		PUSHJ P,NUMOUT
  1155	001760'	200312	004116'		MOVE N,LUDBLK+2(INDEX)
  1156	001761'	602000	000010		TRNE F,TTYOUT
  1157					TTCALL 3,[ASCIZ/
  1158	001762'	051140	004653'	QUOTA OUT: /]
  1159	001763'	661000	000010		TLO F,DECINF
  1160	001764'	260640	002602'		PUSHJ P,NUMOUT
  1161	001765'	260640	002662'		PUSHJ P,CRLF
  1162	001766'	271500	000003		ADDI INDEX,3
  1163	001767'	367400	001746'		SOJG N2,LLUD2
  1164	001770'	070740	000000		CLOSE DSK,
  1165	001771'	071740	000000		RELEASE DSK,
  1166	001772'	254000	000027'		JRST LUDUP1
LUDUPD - LUD UPDATER	MACRO 46-6 08:55 18-APR-73 PAGE 1-23
LUDUPD.MAC	19-JAN-73 09:37		- J. MARCIN 9/27/71

  1167
  1168	001773'	200312	004117'	PRVOUT:	MOVE N,LUDBLK+3(INDEX)
  1169	001774'	260640	002602'		PUSHJ P,NUMOUT
  1170	001775'	254000	001732'		JRST LSTBAK
  1171				;CODE 23 - LIST ACCOUNTING ENTRY FOR A USER
  1172	001776'	260640	000104'	LISUSR:	PUSHJ P,USERIN
  1173	001777'	260640	002557'		PUSHJ P,SETSIT
  1174	002000'	201040	000006		MOVEI A,6
  1175	002001'	660000	001000		TRO F,LIST
  1176	002002'	260640	001466'		PUSHJ P,USEUPD
  1177	002003'	200300	003666'	LUSR2:	MOVE N,PCODE
  1178	002004'	602000	000010		TRNE F,TTYOUT
  1179	002005'	051140	004656'		TTCALL 3,[ASCIZ/PRICING CODE: /]
  1180	002006'	661000	000010		TLO F,DECINF
  1181	002007'	260640	002602'		PUSHJ P,NUMOUT
  1182	002010'	200300	003667'		MOVE N,TCODE
  1183	002011'	602000	000010		TRNE F,TTYOUT
  1184					TTCALL 3,[ASCIZ/
  1185	002012'	051140	004661'	TRACKING CODE: /]
  1186	002013'	661000	000010		TLO F,DECINF
  1187	002014'	260640	002602'		PUSHJ P,NUMOUT
  1188	002015'	200300	003663'		MOVE N,CUSTNO
  1189	002016'	602000	000010		TRNE F,TTYOUT
  1190					TTCALL 3,[ASCIZ/
  1191	002017'	051140	004665'	CUSTOMER NUMBER: /]
  1192	002020'	661000	000010		TLO F,DECINF
  1193	002021'	260640	002602'		PUSHJ P,NUMOUT
  1194	002022'	260640	002662'		PUSHJ P,CRLF
  1195	002023'	254000	000027'		JRST LUDUP1
  1196
  1197				;CODE 24 LIST ACCOUNTING ENTRY FOR A CUSTOMER
  1198	002024'	260640	000156'	LISACT:	PUSHJ P,CUSTIN
  1199	002025'	201040	000002		MOVEI A,2
  1200	002026'	660000	001000		TRO F,LIST
  1201	002027'	260640	001346'		PUSHJ P,CUSUPD
  1202	002030'	200700	004671'		MOVE BP,[POINT 7,CNAME]
  1203	002031'	201300	000036		MOVEI N,^D30
  1204	002032'	661000	000001		TLO F,ASCIF
  1205	002033'	602000	000010		TRNE F,TTYOUT
  1206	002034'	051140	004557'		TTCALL 3,[ASCIZ/NAME: /]
  1207	002035'	260640	002652'		PUSHJ P,WDSOUT
  1208	002036'	602000	000010		TRNE F,TTYOUT
  1209	002037'	051140	004672'		TTCALL 3,[ASCIZ/TAX RATE: /]
  1210	002040'	260640	002104'		PUSHJ P,TAXOUT
  1211	002041'	602000	000010		TRNE F,TTYOUT
  1212	002042'	051140	004675'		TTCALL 3,[ASCIZ/	SALESMAN: /]
  1213	002043'	200300	003670'		MOVE N,SLSMAN
  1214	002044'	661000	000010		TLO F,DECINF
  1215	002045'	260640	002602'		PUSHJ P,NUMOUT
  1216	002046'	602000	000010		TRNE F,TTYOUT
  1217					TTCALL 3,[ASCIZ/
  1218				ADDRESS:
  1219	002047'	051140	004700'	/]
LUDUPD - LUD UPDATER	MACRO 46-6 08:55 18-APR-73 PAGE 1-24
LUDUPD.MAC	19-JAN-73 09:37		- J. MARCIN 9/27/71

  1220	002050'	200700	004615'		MOVE BP,[POINT 7,CADDR]
  1221	002051'	260640	002057'		PUSHJ P,ADDOUT
  1222	002052'	602000	000010		TRNE F,TTYOUT
  1223					TTCALL 3,[ASCIZ/MAIL TO ADDRESS:
  1224	002053'	051140	004703'	/]
  1225	002054'	200700	004616'		MOVE BP,[POINT 7,MAILAD]
  1226	002055'	260640	002057'		PUSHJ P,ADDOUT
  1227	002056'	254000	000027'		JRST LUDUP1
  1228	002057'	201040	000226	ADDOUT:	MOVEI A,^D150
  1229	002060'	201200	000005		MOVEI D,5
  1230	002061'	200100	000001		MOVE B,A
  1231	002062'	200140	000016		MOVE	C,BP
  1232	002063'	134540	000016		ILDB CH,BP
  1233	002064'	302540	000040		CAIE CH,40
  1234	002065'	254000	002075'		JRST ADDR01
  1235	002066'	367100	002063'		SOJG B,.-3
  1236	002067'	260640	002662'		PUSHJ P,CRLF
  1237	002070'	602000	000010		TRNE F,TTYOUT
  1238	002071'	263640	000000		POPJ P,0
  1239	002072'	201540	000377		MOVEI CH,377
  1240	002073'	260640	002357'		PUSHJ P,OUCH
  1241	002074'	263640	000000		POPJ P,0
  1242	002075'	200700	000003	ADDR01:	MOVE BP,C
  1243	002076'	201300	000036		MOVEI N,^D30
  1244	002077'	661000	000001		TLO F,ASCIF
  1245	002100'	260640	002652'		PUSHJ P,WDSOUT
  1246	002101'	275040	000036		SUBI A,^D30
  1247	002102'	367200	002061'		SOJG D,ADDOUT+2
  1248	002103'	263640	000000		POPJ P,0
  1249
  1250	002104'	200300	000073*	TAXOUT:	MOVE N,TAX
  1251	002105'	602000	000010		TRNE F,TTYOUT
  1252	002106'	254000	002112'		JRST .+4
  1253	002107'	661000	000010		TLO F,DECINF
  1254	002110'	260640	002602'		PUSHJ P,NUMOUT
  1255	002111'	263640	000000		POPJ P,0
  1256	002112'	231300	000144		IDIVI N,^D100
  1257	002113'	271300	000060		ADDI N,60
  1258	002114'	051040	000006		TTCALL 1,N
  1259	002115'	400540	000000		SETZ CH,
  1260	002116'	051140	004707'		TTCALL 3,[ASCIZ/./]
  1261	002117'	200300	000007		MOVE N,N+1
  1262	002120'	661000	000010		TLO F,DECINF
  1263	002121'	260640	002602'		PUSHJ P,NUMOUT
  1264	002122'	263640	000000		POPJ P,0
  1265
  1266				;CODE 25 CHANGE A USER'S CUSTOMER NUMBER
  1267	002123'	260640	000104'	NEWCUS:	PUSHJ P,USERIN
  1268	002124'	260640	002557'		PUSHJ P,SETSIT
  1269	002125'	660000	000040		TRO F,NEWF
  1270	002126'	260640	000156'		PUSHJ P,CUSTIN
  1271	002127'	201040	000004		MOVEI A,4
  1272	002130'	254000	001466'		JRST USEUPD
LUDUPD - LUD UPDATER	MACRO 46-6 08:55 18-APR-73 PAGE 1-25
LUDUPD.MAC	19-JAN-73 09:37		- J. MARCIN 9/27/71

  1273
  1274				;CODE 26 - CHANGE A USER'S DISTRICT NO. IN THE LUD
  1275	002131'	260640	000137'	NEWDIS:	PUSHJ P,USERCM
  1276	002132'	260640	003134'		PUSHJ P,SETDEX
  1277	002133'	260640	000303'		PUSHJ P,NOGOD3
  1278	002134'	135300	003576'		LDB N,DISBP
  1279	002135'	202300	003621'		MOVEM N,SAVORG+7
  1280	002136'	260640	001162'		PUSHJ P,ORGSAV
  1281	002137'	660000	000040		TRO F,NEWF
  1282	002140'	260640	002347'		PUSHJ P,GETDIS
  1283	002141'	137300	003576'		DPB N,DISBP
  1284	002142'	260640	002207'		PUSHJ P,CHKINF
  1285	002143'	254000	000562'		JRST	DIDIT
  1286
  1287				;UTILITY ROUTINES:
  1288
  1289	002144'	661000	000010	SETCOD:	TLO F,DECINF
  1290	002145'	606000	000010		TRNN F,TTYOUT
  1291	002146'	254000	002152'		JRST .+4
  1292	002147'	602000	000040		TRNE F,NEWF
  1293	002150'	051140	004567'		TTCALL 3,[ASCIZ/NEW /]
  1294	002151'	051140	004656'		TTCALL 3,[ASCIZ/PRICING CODE: /]
  1295	002152'	260640	002507'		PUSHJ P,GETNUM
  1296	002153'	202300	003666'		MOVEM N,PCODE
  1297	002154'	606000	000010		TRNN F,TTYOUT
  1298	002155'	254000	002161'		JRST .+4
  1299	002156'	602000	000040		TRNE F,NEWF
  1300	002157'	051140	004567'		TTCALL 3,[ASCIZ/NEW /]
  1301	002160'	051140	004710'		TTCALL 3,[ASCIZ /TRACKING CODE: /]
  1302	002161'	661000	000010		TLO F,DECINF
  1303	002162'	260640	002507'		PUSHJ P,GETNUM
  1304	002163'	202300	003667'		MOVEM N,TCODE
  1305	002164'	263640	000000		POPJ P,0
  1306
  1307	002165'	202000	003671'	SAVACS:	MOVEM F,ACBLK
  1308	002166'	200000	004714'		MOVE F,[XWD A,ACBLK+1]
  1309	002167'	251000	003707'		BLT F,ACBLK+16
  1310	002170'	263640	000000		POPJ P,0
  1311
  1312	002171'	574300	000004	GETLAS:	HLRE N,D	;GET LAST BLOCK # IN LASBLK
  1313	002172'	217000	000006		MOVMS N
  1314	002173'	275300	000001		SUBI N,1
  1315	002174'	241300	777771		ROT N,-7
  1316	002175'	271300	000001		ADDI N,1
  1317	002176'	602000	000006		TRNE F,ADDDUL+CHDUL
  1318	002177'	254000	002204'		JRST DULLAS
  1319	002200'	305300	001567		CAIGE N,^D887
  1320	002201'	201300	001567		MOVEI N,^D887
  1321	002202'	202300	003643'	LASBAK:	MOVEM N,LASBLK
  1322	002203'	263640	000000		POPJ P,0
  1323
  1324	002204'	305300	000145	DULLAS: CAIGE N,^D101	;GET LAST BLOCK #
  1325	002205'	201300	000145		MOVEI N,^D101
LUDUPD - LUD UPDATER	MACRO 46-6 08:55 18-APR-73 PAGE 1-26
LUDUPD.MAC	19-JAN-73 09:37		- J. MARCIN 9/27/71

  1326	002206'	254000	002202'		JRST LASBAK
  1327
  1328	002207'	606000	000010	CHKINF:	TRNN F,TTYOUT
  1329	002210'	254000	002215'		JRST CHK1
  1330	002211'	051140	004715'		TTCALL 3,[ASCIZ /ALL ENTRIES CORRECT?? /]
  1331	002212'	260640	002221'		PUSHJ P,YORN
  1332	002213'	254000	002215'		JRST CHK1
  1333	002214'	254000	000027'		JRST LUDUP1
  1334	002215'	660000	000100	CHK1:	TRO F,ALLIOI
  1335	002216'	602000	000020		TRNE F,ERRF
  1336	002217'	254000	000550'		JRST ERROUT
  1337	002220'	263640	000000		POPJ P,0
  1338
  1339				;YES OR NO ROUTINE - Y=RETURN, N=RETURN+1, NEITHER=CALL-1
  1340	002221'	201300	000001	YORN:	MOVEI N,1
  1341	002222'	200700	004722'		MOVE BP,[POINT 6,A,29]
  1342	002223'	400040	000000		SETZ A,
  1343	002224'	260640	002446'		PUSHJ P,GETWD
  1344	002225'	306040	000071		CAIN A,(SIXBIT /  Y/)
  1345	002226'	263640	000000		POPJ P,0
  1346	002227'	350015	000000		AOS ,(P)
  1347	002230'	306040	000056		CAIN A,(SIXBIT /  N/)
  1348	002231'	263640	000000		POPJ P,0
  1349	002232'	370015	000000		SOS ,(P)
  1350	002233'	370015	000000		SOS ,(P)
  1351	002234'	370015	000000		SOS ,(P)
  1352					TTCALL 3,[ASCIZ /TYPE "Y" OR "N" PLEASE.
  1353	002235'	051140	004723'	/]
  1354	002236'	263640	000000		POPJ P,0
  1355
  1356	002237'	400500	000000	GETFRE:	SETZ INDEX,	;N/SIZE OF RECORD
  1357	002240'	332052	004114'		SKIPE A,LUDBLK(INDEX)
  1358	002241'	254000	002250'		JRST GETFR2
  1359	002242'	200140	000012		MOVE C,INDEX	;SAVE ROOM AT END OF BLK
  1360	002243'	270140	000006		ADD C,N
  1361	002244'	305140	000200		CAIGE C,200
  1362	002245'	263640	000000		POPJ P,0	;ROOM ENUF THERE
  1363	002246'	260640	002317'		PUSHJ P,NOFIT	;NOT ENUF ROOM, GET OVFLK BLK
  1364	002247'	254000	002237'		JRST GETFRE
  1365	002250'	321040	002270'	GETFR2:	JUMPL A,GETFR3	;PTS TO OVFL BLK - GO GET IT
  1366	002251'	135140	003577'		LDB C,NENTP	;REGUALR ENTRY GET SIZE
  1367	002252'	336012	004120'		SKIPN ,LUDBLK+4(INDEX)	;ZER ENTRY??
  1368	002253'	254000	002256'		JRST .+3	;YES..SEE IF BIG ENUF
  1369	002254'	270500	000003	GETFR4:	ADD INDEX,C	;NO, GET NEXT ENTRY
  1370	002255'	254000	002240'		JRST GETFRE+1	;AND GO LOOK AT IT
  1371	002256'	317300	000003		CAMG N,C	;ZER ENTRY , BIG ENUF??
  1372	002257'	254000	002304'		JRST ZEROIT	;YES, RETURN
  1373	002260'	200200	000003		MOVE D,C
  1374	002261'	270200	000012		ADD D,INDEX
  1375	002262'	200204	004114'		MOVE D,LUDBLK(D)
  1376	002263'	327200	002254'		JUMPG D,GETFR4
  1377	002264'	321200	002270'		JUMPL D,GETFR3
  1378	002265'	305300	000200		CAIGE N,200
LUDUPD - LUD UPDATER	MACRO 46-6 08:55 18-APR-73 PAGE 1-27
LUDUPD.MAC	19-JAN-73 09:37		- J. MARCIN 9/27/71

  1379	002266'	263640	000000		POPJ P,0
  1380	002267'	254000	002246'		JRST GETFR2-2
  1381	002270'	200340	000012	GETFR3:	MOVE N1,INDEX
  1382	002271'	270340	000006		ADD N1,N
  1383	002272'	307340	000200		CAIG N1,200
  1384	002273'	254000	002277'		JRST .+4
  1385	002274'	270500	000003		ADD INDEX,C
  1386	002275'	260640	003165'		PUSHJ P,ROVBLK	;READ OVERFL BLOCK
  1387	002276'	254000	002237'		JRST GETFRE
  1388	002277'	270140	000012		ADD C,INDEX
  1389	002300'	200203	004114'		MOVE D,LUDBLK(C)
  1390	002301'	202207	004114'		MOVEM D,LUDBLK(N1)
  1391	002302'	402003	004114'		SETZM ,LUDBLK(C)
  1392	002303'	263640	000000		POPJ P,0
  1393
  1394	002304'	316300	000003	ZEROIT:	CAMN N,C
  1395	002305'	263640	000000		POPJ P,0
  1396	002306'	551040	004114'		HRRZI A,LUDBLK
  1397	002307'	270040	000012		ADD A,INDEX
  1398	002310'	270040	000003		ADD A,C
  1399	002311'	507040	000001		HRLS A,A
  1400	002312'	541040	004114'		HRRI A,LUDBLK
  1401	002313'	270040	000012		ADD A,INDEX
  1402	002314'	270040	000006		ADD A,N
  1403	002315'	251040	004310'		BLT A,LUDBLK+174
  1404	002316'	263640	000000		POPJ P,0
  1405
  1406	002317'	200040	003643'	NOFIT:	MOVE A,LASBLK
  1407	002320'	271040	000001		ADDI	A,1
  1408	002321'	202040	003643'		MOVEM A,LASBLK
  1409	002322'	661040	400000		TLO A,OVFLF
  1410	002323'	202052	004114'		MOVEM A,LUDBLK(INDEX)
  1411	002324'	336100	003710'		SKIPN B,OVBLK
  1412	002325'	200100	003650'		MOVE B,HLOC
  1413	002326'	075760	000002		USETO DSK,@B
  1414	002327'	067740	003603'		OUTPUT DSK,LUDLST
  1415	002330'	063740	740000		STATZ DSK,740000
  1416	002331'	260640	000311'		PUSHJ P,NOGOD6
  1417	002332'	552040	003710'		HRRZM A,OVBLK
  1418	002333'	403500	004114'		SETZB INDEX,LUDBLK
  1419	002334'	200040	004731'		MOVE A,[XWD LUDBLK,LUDBLK+1]
  1420	002335'	251040	004314'		BLT A,LUDEND
  1421	002336'	263640	000000		POPJ	P,0
  1422
  1423	002337'	606000	000010	GETPBT:	TRNN F,TTYOUT
  1424	002340'	254000	002344'		JRST GETPB2
  1425	002341'	602000	000040		TRNE F,NEWF
  1426	002342'	051140	004567'		TTCALL 3,[ASCIZ /NEW /]
  1427	002343'	051140	004732'		TTCALL 3,[ASCIZ /PRIV. BITS: /]
  1428	002344'	260640	002507'	GETPB2:	PUSHJ P,GETNUM
  1429	002345'	202300	003654'		MOVEM N,PRIV
  1430	002346'	263640	000000		POPJ P,0
  1431
LUDUPD - LUD UPDATER	MACRO 46-6 08:55 18-APR-73 PAGE 1-28
LUDUPD.MAC	19-JAN-73 09:37		- J. MARCIN 9/27/71

  1432				;GET DISTRICT NO.
  1433	002347'	606000	000010	GETDIS:	TRNN F,TTYOUT
  1434	002350'	254000	002354'		JRST DIST2
  1435	002351'	602000	000040		TRNE F,NEWF
  1436	002352'	051140	004567'		TTCALL 3,[ASCIZ/NEW /]
  1437	002353'	051140	004735'		TTCALL 3,[ASCIZ/DISTRICT NO.: /]
  1438	002354'	260640	002507'	DIST2:	PUSHJ P,GETNUM
  1439	002355'	202300	003652'		MOVEM N,DIST
  1440	002356'	263640	000000		POPJ P,0
  1441
  1442	002357'	602000	000010	OUCH:	TRNE F,TTYOUT
  1443	002360'	254000	002363'		JRST TOUCH
  1444	002361'	051640	000013		TTCALL 15,CH
  1445	002362'	263640	000000		POPJ P,0
  1446	002363'	602000	001000	TOUCH:	TRNE F,LIST
  1447	002364'	254000	002370'		JRST ASCOUT
  1448	002365'	360540	000000		SOJ	CH,
  1449	002366'	051173	003556'		TTCALL 3,@MSG1(CH)
  1450	002367'	263640	000000		POPJ P,0
  1451	002370'	271540	000040	ASCOUT:	ADDI CH,40
  1452	002371'	051040	000013		TTCALL 1,CH
  1453	002372'	263640	000000		POPJ P,0
  1454
  1455	002373'	373000	003607'	INCH:	SOSLE ,TTYI+2
  1456	002374'	254000	002404'		JRST INCH1
  1457	002375'	066700	000000	INCH2:	INPUT TTY,
  1458	002376'	061700	020000		STATO TTY,20000
  1459	002377'	254000	002402'		JRST INCH3
  1460	002400'	070700	000000		CLOSE TTY,
  1461	002401'	254000	002375'		JRST INCH2
  1462	002402'	337000	003607'	INCH3:	SKIPG TTYI+2
  1463	002403'	254000	002375'		JRST INCH2
  1464	002404'	134540	003606'	INCH1:	ILDB CH,TTYI+1
  1465	002405'	405540	000377		ANDI CH,377
  1466	002406'	263640	000000		POPJ P,0
  1467
  1468	002407'	051200	000013	TINCH:	TTCALL 4,CH
  1469	002410'	306540	000077		CAIN CH,"??"
  1470	002411'	254000	002414'		JRST HELPIT
  1471	002412'	322540	002407'		JUMPE CH,TINCH
  1472	002413'	263640	000000		POPJ P,0
  1473
  1474	002414'	051440	000000	HELPIT:	TTCALL 11,0
  1475	002415'	051140	003244'		TTCALL 3,HELPMS
  1476	002416'	254000	000027'		JRST LUDUP1
  1477
  1478	002417'	201040	303240	DECDON:	MOVEI A,^D100000
  1479	002420'	254000	002422'		JRST .+2
  1480	002421'	231040	000012		IDIVI A,^D10
  1481	002422'	365340	002421'		SOJGE N1,.-1
  1482	002423'	400300	000000		SETZ N,
  1483	002424'	201340	000006		MOVEI N1,6
  1484	002425'	200547	003671'	NXTDIG:	MOVE CH,ACBLK(N1)
LUDUPD - LUD UPDATER	MACRO 46-6 08:55 18-APR-73 PAGE 1-29
LUDUPD.MAC	19-JAN-73 09:37		- J. MARCIN 9/27/71

  1485	002426'	220540	000001		IMUL CH,A
  1486	002427'	270300	000013		ADD N,CH
  1487	002430'	363340	002575'		SOJLE N1,GETRES
  1488	002431'	231040	000012		IDIVI A,^D10
  1489	002432'	302040	000001		CAIE A,1
  1490	002433'	254000	002425'		JRST NXTDIG
  1491	002434'	270307	003671'		ADD N,ACBLK(N1)
  1492	002435'	254000	002575'		JRST GETRES
  1493
  1494	002436'	603000	000010	NUMBAD:	TLNE F,DECINF
  1495	002437'	254000	002417'		JRST DECDON
  1496	002440'	242300	777775		LSH N,-3
  1497	002441'	367340	002440'		SOJG N1,.-1
  1498	002442'	254000	002575'		JRST GETRES
  1499
  1500				BADCHR:	TTCALL 3,[ASCIZ / ILLEGAL CHARACTER TYPED.
  1501	002443'	051140	004740'	/]
  1502	002444'	051440	000000		TTCALL 11,0
  1503	002445'	254000	000027'		JRST LUDUP1
  1504
  1505
  1506	002446'	606000	000010	GETWD:	TRNN F,TTYOUT
  1507	002447'	254000	002473'		JRST GET940
  1508	002450'	260640	002407'	GETWD1:	PUSHJ P,TINCH
  1509	002451'	306540	000015		CAIN CH,15
  1510	002452'	254000	002462'		JRST FILLIN	;FILL WITH 0'S OR " "'S
  1511	002453'	607000	000001		TLNN F,ASCIF
  1512	002454'	275540	000040		SUBI CH,40
  1513	002455'	306540	000175		CAIN CH,175
  1514	002456'	254000	002470'		JRST ALTMD
  1515	002457'	136540	000016		IDPB CH,BP
  1516	002460'	367300	002450'		SOJG N,GETWD1
  1517	002461'	254000	002575'		JRST GETRES
  1518	002462'	400540	000000	FILLIN:	SETZ CH,
  1519	002463'	603000	000001		TLNE F,ASCIF
  1520	002464'	201540	000040		MOVEI CH," "
  1521	002465'	136540	000016		IDPB CH,BP
  1522	002466'	367300	002465'		SOJG N,.-1
  1523	002467'	254000	002575'		JRST GETRES
  1524	002470'	621000	000011	ALTMD:	TLZ F,ASCIF+DECINF
  1525	002471'	661000	000002		TLO F,ENDTYD
  1526	002472'	263640	000000		POPJ P,0
  1527	002473'	260640	002373'	GET940:	PUSHJ P,INCH
  1528	002474'	405540	000377		ANDI CH,377
  1529	002475'	603000	000040		TLNE F,DIGINF
  1530	002476'	254000	002501'		JRST .+3
  1531	002477'	306540	000377		CAIN CH,377
  1532	002500'	254000	002470'		JRST ALTMD
  1533	002501'	603000	000001		TLNE F,ASCIF
  1534	002502'	271540	000040		ADDI CH,40
  1535	002503'	136540	000016		IDPB CH,BP
  1536	002504'	367300	002473'		SOJG N,GET940
  1537	002505'	621000	000040		TLZ F,DIGINF
LUDUPD - LUD UPDATER	MACRO 46-6 08:55 18-APR-73 PAGE 1-30
LUDUPD.MAC	19-JAN-73 09:37		- J. MARCIN 9/27/71

  1538	002506'	263640	000000		POPJ P,0
  1539
  1540	002507'	606000	000010	GETNUM:	TRNN F,TTYOUT
  1541	002510'	254000	002541'		JRST NUM940
  1542	002511'	403140	000006		SETZB C,N
  1543	002512'	201340	000006		MOVEI N1,6
  1544	002513'	200700	004746'		MOVE BP,[POINT 3,N,17]
  1545	002514'	260640	002407'	GETNXT:	PUSHJ P,TINCH
  1546	002515'	306540	000015		CAIN CH,15
  1547	002516'	254000	002436'		JRST NUMBAD
  1548	002517'	275540	000060		SUBI CH,60
  1549	002520'	325540	002525'		JUMPGE CH,.+5
  1550	002521'	623000	000004		TLZE F,TAXIN
  1551	002522'	312540	004747'		CAME CH,[XWD 777777,777776]
  1552	002523'	254000	002443'		JRST BADCHR
  1553	002524'	254000	002514'		JRST GETNXT
  1554	002525'	603000	000010		TLNE F,DECINF
  1555	002526'	254000	002534'		JRST SAVDIG
  1556	002527'	303540	000007		CAILE CH,7
  1557	002530'	254000	002443'		JRST BADCHR
  1558	002531'	136540	000016		IDPB CH,BP
  1559	002532'	367340	002514'		SOJG N1,GETNXT
  1560	002533'	254000	002575'		JRST GETRES
  1561	002534'	303540	000011	SAVDIG:	CAILE CH,11
  1562	002535'	254000	002443'		JRST BADCHR
  1563	002536'	202547	003671'		MOVEM CH,ACBLK(N1)
  1564	002537'	367340	002514'		SOJG N1,GETNXT
  1565	002540'	254000	002417'		JRST DECDON
  1566	002541'	661000	000040	NUM940:	TLO F,DIGINF
  1567	002542'	400340	000000		SETZ N1,
  1568	002543'	201300	000003		MOVEI N,3
  1569	002544'	200700	004750'		MOVE BP,[POINT 8,N1,11]
  1570	002545'	322600	002553'		JUMPE Z,.+6
  1571	002546'	200040	000006		MOVE A,N
  1572	002547'	274300	000014		SUB N,Z
  1573	002550'	133000	000016		IBP ,BP
  1574	002551'	367300	002550'		SOJG N,.-1
  1575	002552'	200300	000014		MOVE N,Z
  1576	002553'	400600	000000		SETZ Z,
  1577	002554'	260640	002473'		PUSHJ P,GET940
  1578	002555'	200300	000007		MOVE N,N1
  1579	002556'	263640	000000		POPJ P,0
  1580
  1581	002557'	602000	000010	SETSIT:	TRNE F,TTYOUT
  1582	002560'	051140	004630'		TTCALL 3,[ASCIZ/SITE: /]
  1583	002561'	661000	000010		TLO F,DECINF
  1584	002562'	201600	000001		MOVEI Z,1
  1585	002563'	260640	002507'		PUSHJ P,GETNUM
  1586	002564'	275300	000036		SUBI N,36
  1587	002565'	301300	000001		CAIL N,1
  1588	002566'	303300	000003		CAILE N,3
  1589	002567'	260640	000313'		PUSHJ P,NOGOD7	;NOT SYS 31,32 OR 33
  1590	002570'	271300	000060		ADDI N,60
LUDUPD - LUD UPDATER	MACRO 46-6 08:55 18-APR-73 PAGE 1-31
LUDUPD.MAC	19-JAN-73 09:37		- J. MARCIN 9/27/71

  1591	002571'	200100	004552'		MOVE B,[ASCIZ/     /]
  1592	002572'	137300	004751'		DPB N,[POINT 7,B,6]
  1593	002573'	202100	003665'		MOVEM B,SITE
  1594	002574'	263640	000000		POPJ P,0
  1595
  1596	002575'	621000	000011	GETRES:	TLZ F,ASCIF+DECINF
  1597	002576'	260640	002407'		PUSHJ P,TINCH
  1598	002577'	306540	000012		CAIN CH,12
  1599	002600'	263640	000000		POPJ P,0
  1600	002601'	254000	002576'		JRST GETRES+1
  1601
  1602				;NUMOUT OUTPUTS A NUMBER IN "N" EITHER:
  1603				;TO TTY (CAN BE DECIMAL OR OCTAL) <777777
  1604				;	OR
  1605				;IN IMAGE MODE IN THE FORM OF 3 8-BIT BYTES
  1606
  1607	002602'	602000	000010	NUMOUT:	TRNE F,TTYOUT
  1608	002603'	254000	002612'		JRST NUM01
  1609	002604'	200700	004752'		MOVE BP,[POINT 8,N,11]
  1610	002605'	201340	000003		MOVEI N1,3
  1611	002606'	134540	000016	NUM02:	ILDB CH,BP
  1612	002607'	260640	002357'		PUSHJ P,OUCH
  1613	002610'	367340	002606'		SOJG N1,NUM02
  1614	002611'	263640	000000		POPJ P,0
  1615	002612'	627000	000010	NUM01:	TLZN F,DECINF
  1616	002613'	254000	002640'		JRST OCTOUT
  1617	002614'	400040	000000		SETZ A,
  1618	002615'	201200	000012		MOVEI D,12
  1619	002616'	307300	000000		CAIG N,0
  1620	002617'	254000	002635'		JRST ZEROUT
  1621	002620'	313301	004540'	CHKD:	CAMLE N,TABD(A)
  1622	002621'	254000	002624'		JRST RDXPRT
  1623	002622'	271040	000001		ADDI A,1
  1624	002623'	254000	002620'		JRST CHKD
  1625	002624'	217000	000006	RDXPRT:	MOVMS N
  1626	002625'	231304	000000		IDIVI N,(D)
  1627	002626'	506355	000000		HRLM N1,0(P)
  1628	002627'	332000	000006		SKIPE N
  1629	002630'	260640	002624'		PUSHJ P,RDXPRT
  1630	002631'	554555	000000		HLRZ CH,0(P)
  1631	002632'	271540	000060		ADDI CH,"0"
  1632	002633'	051040	000013		TTCALL 1,CH
  1633	002634'	263640	000000		POPJ P,0
  1634	002635'	201540	000060	ZEROUT:	MOVEI CH,"0"
  1635	002636'	051040	000013		TTCALL 1,CH
  1636	002637'	263640	000000		POPJ P,0
  1637	002640'	201340	000007	OCTOUT:	MOVEI N1,7
  1638	002641'	200700	004746'		MOVE BP,[POINT 3,N,17]
  1639	002642'	134540	000016		ILDB CH,BP
  1640	002643'	363340	002635'		SOJLE N1,ZEROUT
  1641	002644'	322540	002642'		JUMPE CH,.-2
  1642	002645'	271540	000020		ADDI CH,20
  1643	002646'	260640	002357'		PUSHJ P,OUCH
LUDUPD - LUD UPDATER	MACRO 46-6 08:55 18-APR-73 PAGE 1-32
LUDUPD.MAC	19-JAN-73 09:37		- J. MARCIN 9/27/71

  1644	002647'	134540	000016		ILDB CH,BP
  1645	002650'	367340	002645'		SOJG N1,.-3
  1646	002651'	263640	000000		POPJ P,0
  1647
  1648	002652'	134540	000016	WDSOUT:	ILDB CH,BP
  1649	002653'	603000	000001		TLNE F,ASCIF
  1650	002654'	275540	000040		SUBI CH,40
  1651	002655'	260640	002357'		PUSHJ P,OUCH
  1652	002656'	367300	002652'		SOJG N,WDSOUT
  1653	002657'	260640	002662'		PUSHJ P,CRLF
  1654	002660'	621000	000001		TLZ F,ASCIF
  1655	002661'	263640	000000		POPJ P,0
  1656
  1657	002662'	602000	000010	CRLF:	TRNE F,TTYOUT
  1658					TTCALL 3,[ASCIZ/
  1659	002663'	051140	004702'	/]
  1660	002664'	263640	000000		POPJ P,0
  1661
  1662	002665'	201100	000000	HASHER:	MOVEI	B,0
  1663	002666'	200140	004753'		MOVE	C,[555555555555]
  1664	002667'	200200	004754'		MOVE	D,[361275431652]
  1665	002670'	200240	004755'		MOVE	E,[612754316523]
  1666	002671'	264000	002705'		JSR	RND
  1667	002672'	264000	002705'		JSR	RND
  1668	002673'	264000	002705'		JSR	RND
  1669	002674'	264000	002705'		JSR	RND
  1670	002675'	430240	000004		XOR	E,D
  1671	002676'	200300	000005		MOVE	N,E
  1672	002677'	621300	400000		TLZ	N,400000
  1673	002700'	231300	001567		IDIVI	N,^D887
  1674	002701'	200300	000005		MOVE	N,E
  1675	002702'	430300	000003		XOR	N,C
  1676	002703'	271340	000001		ADDI N1,1
  1677	002704'	263640	000000		POPJ	P,0
  1678	002705'	000000	000000	RND:	0
  1679	002706'	270200	000006		ADD	D,N
  1680	002707'	245300	777756		ROTC	N,-22
  1681	002710'	201040	000005		MOVEI	A,5
  1682	002711'	200402	000004	RND1:	MOVE	N2,C+1(B)
  1683	002712'	224400	004756'		MUL	N2,[5*5*5*5*5*5*5*5*5*5*5*5*5*5*5]
  1684	002713'	272442	000005		ADDM	N3,D+1(B)
  1685	002714'	342100	002722'		AOJE	B,RND2
  1686	002715'	211100	000001		MOVNI	B,1
  1687	002716'	602200	000001		TRNE	D,1
  1688	002717'	331000	000005		SKIPL	E
  1689	002720'	201100	000000		MOVEI	B,0
  1690	002721'	250140	000005		EXCH	C,E
  1691	002722'	367040	002711'	RND2:	SOJG	A,RND1
  1692	002723'	254020	002705'		JRST	@RND
  1693	002724'	263640	000000		POPJ	P,0
  1694
  1695	002725'	202500	003631'	STRNAM:	MOVEM INDEX,SAVDEX
  1696	002726'	606000	000010		TRNN F,TTYOUT
LUDUPD - LUD UPDATER	MACRO 46-6 08:55 18-APR-73 PAGE 1-33
LUDUPD.MAC	19-JAN-73 09:37		- J. MARCIN 9/27/71

  1697	002727'	254000	002733'		JRST .+4
  1698	002730'	622000	000040		TRZE F,NEWF
  1699	002731'	051140	004567'		TTCALL 3,[ASCIZ/NEW /]
  1700	002732'	051140	004757'		TTCALL 3,[ASCIZ /STR NAME: /]
  1701	002733'	403040	000002		SETZB	A,B
  1702	002734'	200700	004762'		MOVE	BP,[POINT 6,A]	;GET 4 CHAR LEFT JUSTIFIED
  1703	002735'	201300	000004		MOVEI	N,4
  1704	002736'	260640	002446'		PUSHJ	P,GETWD
  1705	002737'	200200	003642'	CHKSTR:	MOVE D,NENTRY
  1706	002740'	270200	000012		ADD D,INDEX
  1707	002741'	602000	000400		TRNE F,INITF
  1708	002742'	271500	000003		ADDI INDEX,3
  1709	002743'	271500	000005		ADDI INDEX,5
  1710	002744'	200152	004114'	NXTSTR:	MOVE	C,LUDBLK(INDEX)
  1711	002745'	421140	007777		ANDCMI	C,7777
  1712	002746'	316040	000003		CAMN	A,C	;MATCH??
  1713	002747'	254000	002754'		JRST	.+5
  1714	002750'	271500	000003		ADDI	INDEX,3	;NO, CHECK NEXT ONE
  1715	002751'	311500	000004		CAML	INDEX,D
  1716	002752'	263640	000000		POPJ	P,0
  1717	002753'	254000	002744'		JRST	NXTSTR
  1718	002754'	350015	000000		AOS	(P)
  1719	002755'	263640	000000		POPJ	P,0
  1720
  1721				;CODE6
  1722	002756'	260640	000137'	DELSTR:	PUSHJ P,USERCM
  1723	002757'	260640	003134'		PUSHJ	P,SETDEX	;GET INDEX FOR RECORD
  1724	002760'	260640	000303'		PUSHJ P,NOGOD3
  1725	002761'	260640	002725'		PUSHJ	P,STRNAM	;FIND STR IN LUDBLK
  1726	002762'	260640	000305'		PUSHJ	P,NOGOD4	;NOT FOUND
  1727	002763'	260640	002207'	ZERSTR:	PUSHJ P,CHKINF
  1728	002764'	201140	000003		MOVEI C,3
  1729	002765'	400300	000000		SETZ N,
  1730	002766'	260640	002306'		PUSHJ P,ZEROIT+2
  1731	002767'	200140	003642'		MOVE C,NENTRY
  1732	002770'	275140	000003		SUBI C,3
  1733	002771'	200500	003631'		MOVE INDEX,SAVDEX
  1734	002772'	137140	003577'		DPB C,NENTP
  1735	002773'	254000	000562'		JRST DIDIT
  1736
  1737	002774'			GETSTR:		;A ROUTINE TO GET STR INFO INTO STRBLK
  1738	002774'	260640	002725'		PUSHJ P,STRNAM	;GET STR NAME AND CHECK IT
  1739	002775'	254000	002777'		JRST .+2
  1740	002776'	350015	000000		AOS (P)
  1741	002777'	202040	003656'		MOVEM A,STRBLK
  1742	003000'	606000	000010	NONAME:	TRNN F,TTYOUT
  1743	003001'	254000	003005'		JRST .+4
  1744	003002'	602000	000040		TRNE F,NEWF
  1745	003003'	051140	004567'		TTCALL 3,[ASCIZ/NEW /]
  1746	003004'	051140	004650'		TTCALL 3,[ASCIZ /QUOTA IN: /]
  1747	003005'	661000	000010		TLO F,DECINF
  1748	003006'	260640	002507'		PUSHJ	P,GETNUM
  1749	003007'	202300	003657'		MOVEM N,STRBLK+1
LUDUPD - LUD UPDATER	MACRO 46-6 08:55 18-APR-73 PAGE 1-34
LUDUPD.MAC	19-JAN-73 09:37		- J. MARCIN 9/27/71

  1750	003010'	606000	000010		TRNN F,TTYOUT
  1751	003011'	254000	003015'		JRST .+4
  1752	003012'	602000	000040		TRNE F,NEWF
  1753	003013'	051140	004567'		TTCALL 3,[ASCIZ/NEW /]
  1754	003014'	051140	004763'		TTCALL 3,[ASCIZ /QUOTA OUT: /]
  1755	003015'	661000	000010		TLO F,DECINF
  1756	003016'	260640	002507'		PUSHJ	P,GETNUM
  1757	003017'	202300	003660'		MOVEM N,STRBLK+2
  1758	003020'	263640	000000		POPJ	P,0
  1759
  1760				;CODE7
  1761	003021'	260640	000137'	CHSTR:	PUSHJ P,USERCM
  1762	003022'	260640	003134'		PUSHJ	P,SETDEX	;GET INDEX FOR RECORD
  1763	003023'	260640	000303'		PUSHJ	P,NOGOD3	;USER NAME NOT FOUND
  1764	003024'	260640	001162'		PUSHJ P,ORGSAV
  1765	003025'	202500	003631'		MOVEM INDEX,SAVDEX
  1766	003026'	260640	002725'		PUSHJ	P,STRNAM	;GET INDEX FOR STR NAME
  1767	003027'	260640	000305'		PUSHJ P,NOGOD4
  1768	003030'	200052	004114'		MOVE A,LUDBLK(INDEX)
  1769	003031'	202040	003635'		MOVEM A,OSTRN	;SAVE OLD STR NAME
  1770	003032'	200052	004115'		MOVE A,LUDBLK+1(INDEX)
  1771	003033'	202040	003636'		MOVEM A,OQUOTA
  1772	003034'	200052	004116'		MOVE A,LUDBLK+2(INDEX)
  1773	003035'	202040	003637'		MOVEM A,OQUOTA+1
  1774	003036'	660000	000040		TRO F,NEWF
  1775	003037'	261640	000012		PUSH P,INDEX
  1776	003040'	260640	002774'		PUSHJ	P,GETSTR
  1777	003041'	254000	003043'		JRST .+2
  1778	003042'	260640	000307'		PUSHJ P,NOGOD5
  1779	003043'	262640	000012		POP P,INDEX
  1780	003044'	260640	002207'		PUSHJ P,CHKINF
  1781	003045'	505040	003656'	SAVSTR:	HRLI	A,STRBLK
  1782	003046'	541040	004114'		HRRI	A,LUDBLK
  1783	003047'	270040	000012		ADD	A,INDEX
  1784	003050'	550100	000001		HRRZ	B,A
  1785	003051'	271100	000002		ADDI	B,2
  1786	003052'	251060	000002		BLT	A,@B
  1787	003053'	254000	000562'		JRST	DIDIT
  1788
  1789
  1790	003054'			SAVIT:	;A ROUTINE TO SAVE A RECORD IN SAVINF
  1791	003054'	551040	004114'		HRRZI	A,LUDBLK
  1792	003055'	270040	000012		ADD	A,INDEX
  1793	003056'	507040	000001		HRLS	A,A
  1794	003057'	541040	004315'		HRRI	A,SAVINF
  1795	003060'	201100	004315'		MOVEI	B,SAVINF
  1796	003061'	270100	003642'		ADD	B,NENTRY
  1797	003062'	275100	000001		SUBI B,1
  1798	003063'	251060	000002		BLT	A,@B
  1799	003064'	263640	000000		POPJ	P,0
  1800
  1801	003065'			RETIT:		;A ROUTINET TO RETURN TO LUDBLK FROM SAVINF
  1802	003065'	505040	004315'		HRLI	A,SAVINF
LUDUPD - LUD UPDATER	MACRO 46-6 08:55 18-APR-73 PAGE 1-35
LUDUPD.MAC	19-JAN-73 09:37		- J. MARCIN 9/27/71

  1803	003066'	541040	004114'		HRRI	A,LUDBLK
  1804	003067'	270040	000012		ADD	A,INDEX
  1805	003070'	550100	000001		HRRZ	B,A
  1806	003071'	270100	003642'		ADD	B,NENTRY
  1807	003072'	275100	000001		SUBI B,1
  1808	003073'	251060	000002		BLT	A,@B
  1809	003074'	263640	000000		POPJ	P,0
  1810
  1811	003075'	200700	004671'	GETNAM:	MOVE BP,[POINT 7,CNAME]
  1812	003076'	201300	000036		MOVEI N,^D30
  1813	003077'	602000	000010		TRNE F,TTYOUT
  1814	003100'	051140	004766'		TTCALL 3,[ASCIZ /CUSTOMER NAME: /]
  1815	003101'	661000	000001		TLO F,ASCIF
  1816	003102'	260640	002446'		PUSHJ P,GETWD
  1817	003103'	263640	000000		POPJ P,0
  1818
  1819	003104'	602000	000010	GETADD:	TRNE F,TTYOUT
  1820					TTCALL 3,[ASCIZ/CUSTOMER ADDRESS:
  1821	003105'	051140	004772'	/]
  1822	003106'	201340	000005		MOVEI N1,5
  1823	003107'	201300	000036	GETAD1:	MOVEI N,^D30
  1824	003110'	661000	000001		TLO F,ASCIF
  1825	003111'	260640	002446'		PUSHJ P,GETWD
  1826	003112'	627000	000002		TLZN F,ENDTYD
  1827	003113'	367340	003107'		SOJG N1,GETAD1
  1828	003114'	263640	000000		POPJ P,0
  1829
  1830	003115'	602000	000010	GETMAIL:	TRNE F,TTYOUT
  1831					TTCALL 3,[ASCIZ/MAIL TO ADDRESS:
  1832	003116'	051140	004703'	/]
  1833	003117'	254000	003106'		JRST GETAD1-1
  1834
  1835	003120'	661000	000014	GETTAX:	TLO F,DECINF+TAXIN
  1836	003121'	602000	000010		TRNE F,TTYOUT
  1837	003122'	051140	004776'		TTCALL 3,[ASCIZ/TAX RATE (IN DECIMAL):/]
  1838	003123'	260640	002507'		PUSHJ P,GETNUM
  1839	003124'	202300	002104*		MOVEM N,TAX
  1840	003125'	263640	000000		POPJ P,0
  1841
  1842	003126'	661000	000010	GETSLS:	TLO F,DECINF
  1843	003127'	602000	000010		TRNE F,TTYOUT
  1844	003130'	051140	005003'		TTCALL 3,[ASCIZ/SALESMAN CODE: /]
  1845	003131'	260640	002507'		PUSHJ P,GETNUM
  1846	003132'	202300	003670'		MOVEM N,SLSMAN
  1847	003133'	263640	000000		POPJ P,0
  1848
  1849	003134'			SETDEX:		;A ROUTINE TO FIND A USER NAME IN A BLOCK
  1850	003134'	200040	003655'		MOVE	A,HUNAME	;IF ENTRY IS HERE, FIND HUNAME
  1851	003135'	400500	000000		SETZ	INDEX,
  1852	003136'	336012	004114'		SKIPN	,LUDBLK(INDEX)
  1853	003137'	254000	003157'		JRST NONE
  1854	003140'	135140	003577'		LDB	C,NENTP	;GET SIZ OF ENTRY
  1855	003141'	312052	004120'		CAME	A,LUDBLK+4(INDEX)	;MATCH??
LUDUPD - LUD UPDATER	MACRO 46-6 08:55 18-APR-73 PAGE 1-36
LUDUPD.MAC	19-JAN-73 09:37		- J. MARCIN 9/27/71

  1856	003142'	254000	003151'		JRST	.+7		;NO, GET NEXT
  1857	003143'	202140	003642'		MOVEM	C,NENTRY	;SAVE SIZE OF ENTRY
  1858	003144'	135140	003575'		LDB C,INITBP
  1859	003145'	602140	000001		TRNE C,1
  1860	003146'	660000	000400		TRO F,INITF
  1861	003147'	350015	000000		AOS	(P)
  1862	003150'	263640	000000		POPJ	P,0	;AND RETURN WITH INDEX ALL SET
  1863	003151'	337012	004114'		SKIPG	,LUDBLK(INDEX)	;WAS NO. NEGATIVE??
  1864	003152'	254000	003155'		JRST	.+3		;YES, GO GET  OVERFLOW BLOCK
  1865	003153'	270500	000003		ADD	INDEX,C	;NO, GOOD ENTRY, ADD SIZE OF IT TO INDEX
  1866	003154'	254000	003136'		JRST	SETDEX+2	;AND GO TRY NEXT ONE
  1867	003155'	260640	003165'		PUSHJ	P,ROVBLK	;READ OVERFLOW BLOCK IN
  1868	003156'	254000	003135'		JRST	SETDEX+1
  1869
  1870	003157'	403140	003710'	NONE:	SETZB C,OVBLK	;INCASE NONE FOUND,RESET FOR ORIG BLOCK
  1871	003160'	074760	003650'		USETI DSK,@HLOC
  1872	003161'	066740	003603'		INPUT DSK,LUDLST
  1873	003162'	063740	760000		STATZ DSK,760000
  1874	003163'	260640	000311'		PUSHJ P,NOGOD6
  1875	003164'	263640	000000		POPJ P,0
  1876
  1877	003165'			ROVBLK:		;READ OVERFLOW BLOCK
  1878	003165'	550152	004114'		HRRZ	C,LUDBLK(INDEX)
  1879	003166'	202140	003710'		MOVEM	C,OVBLK	;SAVE BLOCK NO.
  1880	003167'	607000	000020		TLNN F,CHANGE
  1881	003170'	254000	003177'		JRST ROVBL1
  1882	003171'	075760	003650'		USETO DSK,@HLOC
  1883	003172'	602000	000020		TRNE F,ERRF
  1884	003173'	254000	003177'		JRST ROVBL1
  1885	003174'	067740	003603'		OUTPUT DSK,LUDLST
  1886	003175'	063740	740000		STATZ DSK,740000
  1887	003176'	260640	000311'		PUSHJ P,NOGOD6
  1888	003177'	074760	003710'	ROVBL1:	USETI	DSK,@OVBLK
  1889	003200'	066740	003603'		INPUT	DSK,LUDLST	;READIT!
  1890	003201'	063740	760000		STATZ DSK,760000
  1891	003202'	260640	000311'		PUSHJ P,NOGOD6
  1892	003203'	400500	000000		SETZ INDEX,
  1893	003204'	263640	000000		POPJ	P,0
  1894
  1895
  1896	003205'	260640	003206'	UNSQZ:	PUSHJ P,.+1	;CHANGE OCTAL TO SIXBIT
  1897	003206'	200040	000006		MOVE A,N
  1898	003207'	201340	000003		MOVEI  N1,3
  1899	003210'	550100	000001		HRRZ B,A
  1900	003211'	231100	000050	SQZTS0:	IDIVI B,50
  1901	003212'	250100	000003		EXCH B,C
  1902	003213'	301100	000013		CAIL B,13
  1903	003214'	271100	000006		ADDI B,41-13-20
  1904	003215'	271100	000020		ADDI B,20
  1905	003216'	306100	000032		CAIN B,32
  1906	003217'	201100	000000		MOVEI B,0
  1907	003220'	245040	777772		ROTC A,-6
  1908	003221'	200100	000003		MOVE B,C
LUDUPD - LUD UPDATER	MACRO 46-6 08:55 18-APR-73 PAGE 1-37
LUDUPD.MAC	19-JAN-73 09:37		- J. MARCIN 9/27/71

  1909	003222'	367340	003211'		SOJG N1,SQZTS0
  1910	003223'	200300	000001		MOVE N,A
  1911	003224'	263640	000000		POPJ P,0
  1912
  1913	003225'	260640	003226'	SQZIT:	PUSHJ P,.+1	;CHANGE SIXBIT TO OCTAL
  1914	003226'	201040	000000		MOVEI A,0
  1915	003227'	201100	000003		MOVEI B,3
  1916	003230'	245300	000006	SXTSQ0:	ROTC N,6
  1917	003231'	405340	000077		ANDI N1,77
  1918	003232'	306340	000000		CAIN N1,0
  1919	003233'	201340	000032		MOVEI N1,32
  1920	003234'	275340	000020		SUBI N1,20
  1921	003235'	301340	000021		CAIL N1,41-20
  1922	003236'	301340	000006		CAIL N1,41-20-13
  1923	003237'	221040	000050		IMULI A,50
  1924	003240'	270040	000007		ADD A,N1
  1925	003241'	367100	003230'		SOJG B,SXTSQ0
  1926	003242'	540300	000001		HRR N,A
  1927	003243'	263640	000000		POPJ P,0
  1928
  1929	003244'	546372	520220	HELPMS:	ASCIZ/YOU HAVE THE FOLLOWING OPTIONS:
	003245'	406550	520250
	003246'	442124	043236
	003247'	462311	753622
	003250'	472164	047640
	003251'	522231	747246
  1930	003252'	350321	230422	1	DELETE A USER FROM THE LUD
	003253'	422131	442650
	003254'	425010	120252
	003255'	516132	220214
	003256'	512371	520250
	003257'	442124	046252
  1931	003260'	420321	231022	2	ADD A USER TO THE LUD
	003261'	406110	420202
	003262'	202532	342644
	003263'	202511	720250
	003264'	442124	046252
  1932	003265'	420321	231422	3	CHANGE A USER'S NAME IN THE LUD
	003266'	416210	147216
	003267'	425010	120252
	003270'	516132	223646
	003271'	202350	146612
	003272'	202231	620250
	003273'	442124	046252
  1933	003274'	420321	232022	4	CHANGE A USER'S PRIV. BITS
	003275'	416210	147216
	003276'	425010	120252
	003277'	516132	223646
	003300'	202412	244654
	003301'	271010	244650
  1934	003302'	514321	232422	5	ADD A STRUCTURE
	003303'	406110	420202
	003304'	202472	451252
LUDUPD - LUD UPDATER	MACRO 46-6 08:55 18-APR-73 PAGE 1-38
LUDUPD.MAC	19-JAN-73 09:37		- J. MARCIN 9/27/71

	003305'	416512	551212
  1935	003306'	064246	604610	6	DELETE A STRUCTURE
	003307'	426310	552212
	003310'	202024	051650
	003311'	512530	352252
  1936	003312'	512121	505156	7	CHANGE A STRUCTURE
	003313'	046071	040634
	003314'	436124	040500
	003315'	516512	252606
	003316'	522532	242432
  1937	003317'	051426	004602	10	ADD A NEW CUSTOMER TO NAMADD.DAT
	003320'	422104	040500
	003321'	472132	720206
	003322'	526472	447632
	003323'	426444	052236
	003324'	202350	146602
	003325'	422105	642202
  1938	003326'	520321	230542	11	CHANGE A USER'S RUB BIT
	003327'	046071	040634
	003330'	436124	040500
	003331'	526470	551116
	003332'	515012	252604
	003333'	202051	152032
  1939	003334'	051426	204606	12	CHANGE A CUSTOMER IN NAMADD.DAT
	003335'	442031	643612
	003336'	202024	041652
	003337'	516511	746612
	003340'	511011	147100
	003341'	472031	540610
	003342'	421350	440650
  1940	003343'	064241	152220		THE FOLLOWING MAY BE CHANGED:
	003344'	425010	647630
	003345'	462372	744634
	003346'	435011	540662
	003347'	202050	520206
	003350'	442031	643612
  1941	003351'	421641	505022		CODE
	003352'	416370	442432
  1942	003353'	050226	104606		1	CHANGE CUSTOMER NAME
	003354'	442031	643612
	003355'	202072	551650
	003356'	476330	551100
	003357'	472031	542432
  1943	003360'	050226	204606		2	CHANGE CUSTOMER MAIL TO ADDRESS
	003361'	442031	643612
	003362'	202072	551650
	003363'	476330	551100
	003364'	466031	146100
	003365'	522364	040610
	003366'	422450	551646
  1944	003367'	064241	131422		3	CHANGE CUSTOMER MAIL TO ADDRESS
	003370'	416210	147216
	003371'	425010	352646
LUDUPD - LUD UPDATER	MACRO 46-6 08:55 18-APR-73 PAGE 1-39
LUDUPD.MAC	19-JAN-73 09:37		- J. MARCIN 9/27/71

	003372'	522371	542644
	003373'	202330	144630
	003374'	202511	720202
	003375'	422112	242646
  1945	003376'	514321	204550		4	CHANGE CUSTOMER TAX RATE
	003377'	046071	040634
	003400'	436124	041652
	003401'	516511	746612
	003402'	511012	440660
	003403'	202450	152212
  1946	003404'	064241	132422		5	CHANGE CUSTOMER SALESMAN
	003405'	416210	147216
	003406'	425010	352646
	003407'	522371	542644
	003410'	202470	146212
	003411'	516330	147032
  1947	003412'	051426	304606	13	CHANGE PRICING FOR A USER IN USERS.DAT
	003413'	442031	643612
	003414'	202412	244606
	003415'	446350	720214
	003416'	476444	040500
	003417'	526470	551100
	003420'	446344	052646
	003421'	426452	327210
  1948	003422'	406501	505142	14	CHANGE A NON-OFFICIAL LUD - HAS TO BE USED AFTER ALL OTHER
	003423'	320230	344202
	003424'	472170	520202
	003425'	202351	747132
	003426'	476150	644606
	003427'	446031	420230
	003430'	526104	026500
	003431'	442032	320250
	003432'	475010	242500
	003433'	526470	542100
	003434'	406152	442644
	003435'	202031	446100
	003436'	476511	042644
  1949	003437'	064241	141636		COMMANDS THAT CHANGE THE NORMAL LUD...
	003440'	466330	147210
	003441'	515012	444202
	003442'	521010	344202
	003443'	472170	520250
	003444'	442124	047236
	003445'	512330	146100
	003446'	462530	427134
  1950	003447'	270321	230552	15	DELETE A USER FROM USERS.DAT
	003450'	046110	546212
	003451'	522124	040500
	003452'	526470	551100
	003453'	432451	746500
	003454'	526470	551246
	003455'	272110	152032
  1951	003456'	051426	604602	16	ADD A USER TO USERS.DAT
LUDUPD - LUD UPDATER	MACRO 46-6 08:55 18-APR-73 PAGE 1-40
LUDUPD.MAC	19-JAN-73 09:37		- J. MARCIN 9/27/71

	003457'	422104	040500
	003460'	526470	551100
	003461'	522364	052646
	003462'	426452	327210
  1952	003463'	406501	505144	20	LIST ALL USERS FOR A PROJECT
	003464'	300231	444646
	003465'	521010	146230
	003466'	202532	342644
	003467'	515010	647644
	003470'	202024	050244
	003471'	476250	541650
  1953	003472'	064246	230422	21	REVERSE LAST LUD AND DUL CHANGE
	003473'	512132	642644
	003474'	516124	046202
	003475'	516504	046252
	003476'	421010	147210
	003477'	202112	546100
	003500'	416210	147216
  1954	003501'	424321	231144	22	LIST LUD ENTRY FOR A USER
	003502'	046311	151650
	003503'	202312	542100
	003504'	426352	451262
	003505'	202151	751100
	003506'	405012	551612
  1955	003507'	510321	231146	23	LIST ACCOUNTING ENTRY FOR A USER(USERS.DAT)
	003510'	046311	151650
	003511'	202030	341636
	003512'	526352	444634
	003513'	435010	547250
	003514'	512624	043236
	003515'	511010	120252
	003516'	516132	224252
	003517'	516132	251534
	003520'	422032	424432
  1956	003521'	051446	404630	24	LIST ACCOUNTING ENTRY FOR A CUSTOMER (NAMADD.DAT)
	003522'	446472	420202
	003523'	416071	752634
	003524'	522231	643500
	003525'	426352	451262
	003526'	202151	751100
	003527'	405010	352646
	003530'	522371	542644
	003531'	201211	640632
	003532'	406110	427210
  1957	003533'	406505	106424	25	CHANGE CUSTOMER NUMBER FOR A USER IN USERS.DAT
	003534'	311521	141620
	003535'	406350	742500
	003536'	416532	352236
	003537'	466132	220234
	003540'	526330	242644
	003541'	202151	751100
	003542'	405012	551612
	003543'	511011	147100
LUDUPD - LUD UPDATER	MACRO 46-6 08:55 18-APR-73 PAGE 1-41
LUDUPD.MAC	19-JAN-73 09:37		- J. MARCIN 9/27/71

	003544'	526470	551246
	003545'	272110	152032
  1958	003546'	051446	604606	26	CHANGE USER'S DISTRICT NUMBER
	003547'	442031	643612
	003550'	202532	342644
	003551'	236464	042222
	003552'	516512	244606
	003553'	521011	652632
  1959	003554'	412132	206424	/
	003555'	000000	000000
  1960
  1961				MSG1:	[ASCIZ/ENTRY COMPLETED.
  1962	003556'	000000	005007'	/]
  1963					[ASCIZ/USER NAME OR CUSTOMER NUMBER ALLREADY THERE.
  1964	003557'	000000	005013'	/]
  1965					[ASCIZ/USER NAME OR CUSTOMER NUMBER NOT FOUND.
  1966	003560'	000000	005025'	/]
  1967					[ASCIZ/STR NAME NOT FOUND.
  1968	003561'	000000	005036'	/]
  1969					[ASCIZ/STR NAME ALLREADY THERE.
  1970	003562'	000000	005043'	/]
  1971					[ASCIZ/SOME KIND OF DISK ERROR.
  1972	003563'	000000	005051'	/]
  1973					[ASCIZ/BAD SITE.
  1974	003564'	000000	005057'	/]
  1975					[ASCIZ/DUL ERROR.
  1976	003565'	000000	005062'	/]
  1977					[ASCIZ/CUSTOMER NO. ERROR.
  1978	003566'	000000	005065'	/]
  1979					[ASCIZ/BILLING FILE ERROR.
  1980	003567'	000000	005072'	/]
  1981					[ASCIZ/ERROR IN DELETING FILE.
  1982	003570'	000000	005077'	/]
  1983					[ASCIZ/SOME FILE IS BUSY.  TRY LATER.
  1984	003571'	000000	005105'	/]
  1985					[ASCIZ/ BAD CODE.
  1986	003572'	000000	005114'	/]
  1987					[ASCIZ/ERROR IN DELETING FILES OR UFD.
  1988	003573'	000000	005117'	/]
  1989					[ASCIZ/USER CANNOT BE ENTERED UNTIL NEXT BILLING PERIOD.
  1990	003574'	000000	005126'	/]
  1991
  1992				;STORAGE
  1993				;FIRST BYTE POINTERS...
  1994	003575'	100112	004116'	INITBP:	POINT 1,LUDBLK+2(INDEX),27	;POINTER FOR INIT FLAG 
  1995	003576'	001012	004115'	DISBP:	POINT 8,LUDBLK+1(INDEX),35
  1996	003577'	000712	004116'	NENTP:	POINT 7,LUDBLK+2(INDEX),35	;POINTS TO NO. OF WDS IN RECORD
  1997	003600'	030300	003610'	CODEP:	POINT 3,CODE,32
  1998	003601'	777600	003713'	DULLST:	IOWD 200,DULBLK
  1999	003602'	000000	000000		0
  2000	003603'	777600	004113'	LUDLST:	IOWD 200,LUDBLK
  2001	003604'	000000	000000		0
  2002	003605'			TTYI:	BLOCK 3
LUDUPD - LUD UPDATER	MACRO 46-6 08:55 18-APR-73 PAGE 1-42
LUDUPD.MAC	19-JAN-73 09:37		- J. MARCIN 9/27/71

  2003	003610'	000000	000000	CODE:	0
  2004	003611'	000000	000000	OLDCOD:	0
  2005	003612'	000000	000000	SAVORG:	0	;INDEX OF OLD LUD RECORD
  2006	003613'	000000	000000		0	;HASH OF OLD NAME
  2007	003614'	000000	000000		0	;BLK NO. OF OLD LUD RECORD
  2008	003615'	000000	000000		0	;INDEX OF OLD DUL RECORD
  2009	003616'	000000	000000		0	;FIRST HALF OF NAME
  2010	003617'	000000	000000		0	;SECOND HALF OF NAME
  2011	003620'	000000	000000		0	;BLK. NO OF OLD DUL RECORD
  2012	003621'	000000	000000		0	;OLD DISTRICT
  2013	003622'	000000	000000		0	;OLD P-BITS
  2014	003623'	000000	000000	SAVBIL:	0	;SAVE LAST PPN FROM BILLING ENTRY
  2015	003624'	000000	000000		0	;SAVE LAST SITE FROM BILLING ENTRY
  2016	003625'	000000	000000		0	;LAST BILLING CODE USED
  2017	003626'	000000	000001	ONE:	1
  2018	003627'	000000	000000	EXT:	0	;EXTENSION FOR NON-OFFICIAL LUD/DUL
  2019	003630'	000000	000000	SAVHNM:	0	;ORIG. USER'S HASHED NAME
  2020	003631'	000000	000000	SAVDEX:	0	;ORIG. USER'S LUD INDEX
  2021	003632'	000000	000000	OLDBLK:	0	;ORIG USER'S LUD BLOCK
  2022	003633'	000000	000000	OLDNAM:	0	;FIRST HALF OF ORIG. USER'S NAME
  2023	003634'	000000	000000		0	;SECOND HALF OF ORIG. USER'S NAME
  2024	003635'	000000	000000	OSTRN:	0	;OLD STRUCTURE NAME
  2025	003636'	000000	000000	OQUOTA:	0	;OLD LOGGED IN QUOTA
  2026	003637'	000000	000000			0	;OLD LOGGED OUT QUOTA
  2027	003640'	000000	000000	ZERST:	0	;ZER OUT EVERYTHING FROM HERE TO ZEREND
  2028	003641'	000000	000000	ERRCOD:	0
  2029	003642'	000000	000000	NENTRY:	0	;NO. OF WORDS IN ENTRY
  2030	003643'	000000	000000	LASBLK:	0	;BLOCK NO. OF LAST BLOCK IN FILE
  2031	003644'			UNAME:	BLOCK	4	;USER NAME
  2032	003650'	000000	000000	HLOC:	0	;HASH LOCATION
  2033	003651'	000000	000000	PPN:	0	;PPN
  2034	003652'			DIST:	BLOCK 2
  2035	003654'	000000	000000	PRIV:	0
  2036	003655'	000000	000000	HUNAME:	0
  2037	003656'			STRBLK:	BLOCK 5
  2038	003663'	000000	000000	CUSTNO:	0
  2039	003664'	000000	000000	SCODE:	0
  2040	003665'	000000	000000	SITE:	0
  2041	003666'	000000	000000	PCODE:	0
  2042	003667'	000000	000000	TCODE:	0
  2043	003670'	000000	000000	SLSMAN:	0
  2044	003671'			ACBLK:	BLOCK 17
  2045	003710'	000000	000000	OVBLK:	0
  2046	003711'			NNAME:	BLOCK	2	;NEW NAME
  2047	003713'	000000	000000	HNNAME:	0	;HASHED NEW NAME
  2048	003714'			DULBLK:	BLOCK 200
  2049	004114'			LUDBLK:	BLOCK	200
  2050	004314'	000000	000000	LUDEND:	0
  2051	004315'			SAVINF:	BLOCK	200
  2052	004515'	000000	000000	ZEREND:	0
  2053	004516'	777760	004516'	PDP:	XWD -20,.
  2054	004517'				BLOCK	21
  2055	004540'	000046	113177	TABD:	^D9999999	;A=0(TYPE 8 PLACES)
LUDUPD - LUD UPDATER	MACRO 46-6 08:55 18-APR-73 PAGE 1-43
LUDUPD.MAC	19-JAN-73 09:37		- J. MARCIN 9/27/71

  2056	004541'	000003	641077		^D999999	;A=1(7 PLACES)
  2057	004542'	000000	303237		^D99999	;A=2(6 PLACES)
  2058	004543'	000000	023417		^D9999	;A=3(5 PLACES)
  2059	004544'	000000	001747		^D999	;A=4(4 PLACES)
  2060	004545'	000000	000143		^D99	;A=5(3 PLACES)
  2061	004546'	000000	000011		^D9	;A=6(2 PLACES)
  2062	004547'	000000	000000		0	;A=7(1 PLACE)
  2063			000001'		END	LUDUP+1
  2064
NO ERRORS DETECTED
PROGRAM BREAK IS 005141
3K CORE USED
LUDUPD - LUD UPDATER	MACRO 46-6 08:55 18-APR-73 PAGE 2
LUDUPD.MAC	19-JAN-73 09:37		SYMBOL TABLE

A		000001		CUSTNO		003663'		FIXD		000436'		LISACT		002024'	
ACBLK		003671'		CUSUPD		001346'		FIXP		000433'		LISALL		001556'	
ADDBIL		001461'		D		000004		FIXQ		000441'		LISBAK		001524'	
ADDCUS		001335'		DECDON		002417'		FNDIT		001665'		LISLUD		001671'	
ADDDUL		000004	SPD	DECINF		000010	SPD	GET940		002473'		LIST		001000	SPD
ADDENT		000537'		DELBIL		001455'		GETAD1		003107'		LISUSR		001776'	
ADDIT		000706'		DELENT		000542'		GETADD		003104'		LLUD2		001746'	
ADDOUT		002057'		DELFIL		001011'		GETAUN		001125'		LSTBAK		001732'	
ADDR01		002075'		DELNAM		000777'		GETBIT		001374'		LSTDON		001613'	
ADDSTR		001311'		DELST		000347'		GETBLK		000627'		LUDBLK		004114'	
ALLIOI		000100	SPD	DELSTR		002756'		GETCD1		000041'		LUDEND		004314'	
ALTMD		002470'		DELUFD		001100'		GETDIS		002347'		LUDLST		003603'	
ASCIF		000001	SPD	DIDIT		000562'		GETDL2		000646'		LUDUP		000000'	
ASCOUT		002370'		DIDIT2		000612'		GETDSK		000251'		LUDUP1		000027'	
B		000002		DIDIT3		000613'		GETDUL		000655'		LUSR2		002003'	
BACKUP		000001	SPD	DIDIT4		000624'		GETFR2		002250'		MAILAD		004616'	EXT
BADCHG		001250'		DIGINF		000040	SPD	GETFR3		002270'		MAXCOD		000027	SPD
BADCHR		002443'		DISBP		003576'		GETFR4		002254'		MSG1		003556'	
BADCOD		000341'		DISP		000074'		GETFRE		002237'		N		000006	
BAKBIL		001512'		DIST		003652'		GETLAS		002171'		N1		000007	
BILOUT		000767'		DIST2		002354'		GETLUD		000256'		N2		000010	
BP		000016		DISTAB		000204'		GETMAI		003115'		N3		000011	
C		000003		DISTB		001412'		GETNAM		003075'		NAMUP		001353'	EXT
CADDR		004615'	EXT	DSK		000017		GETNUM		002507'		NENTP		003577'	
CH		000013		DSK1		000015		GETNXT		002514'		NENTRY		003642'	
CHACTE		000200	SPD	DULADD		000702'		GETOV		001611'		NEWCUS		002123'	
CHADDR		001422'		DULAGN		000572'		GETPB2		002344'		NEWDIS		002131'	
CHANGE		000020	SPD	DULBLK		003714'		GETPBT		002337'		NEWF		000040	SPD
CHCUS		001376'		DULCH		000747'		GETPPN		001647'		NEWNAM		001121'	
CHCUS2		001403'		DULEND		000603'		GETRES		002575'		NEXPPN		000642'	
CHDUL		000002	SPD	DULERR		000477'		GETSLS		003126'		NNAME		003711'	
CHGLUD		001446'		DULFR2		000732'		GETSTR		002774'		NOFIT		002317'	
CHGRUB		001360'		DULFR3		000735'		GETSYS		000242'		NOGO11		000315'	
CHK1		002215'		DULFRE		000720'		GETTAX		003120'		NOGO12		000317'	
CHKD		002620'		DULLAS		002204'		GETTTY		000234'		NOGO14		000321'	
CHKINF		002207'		DULLST		003601'		GETWD		002446'		NOGO16		000323'	
CHKJOB		001014'		E		000005		GETWD1		002450'		NOGO17		000326'	
CHKSTR		002737'		ENDERR		000543'		HASHER		002665'		NOGOD2		000301'	
CHKUSR		000167'		ENDIT		000176'		HELPIT		002414'		NOGOD3		000303'	
CHMAIL		001426'		ENDLUD		000553'		HELPMS		003244'		NOGOD4		000305'	
CHNAM		001417'		ENDSTR		001107'		HLOC		003650'		NOGOD5		000307'	
CHNAM1		001264'		ENDTYD		000002	SPD	HNNAME		003713'		NOGOD6		000311'	
CHNAME		001202'		ERRCOD		003641'		HUNAME		003655'		NOGOD7		000313'	
CHPRIC		001440'		ERRF		000020	SPD	INCH		002373'		NOGOOD		000331'	
CHSLMN		001435'		ERROUT		000550'		INCH1		002404'		NONAME		003000'	
CHSTR		003021'		EXIT		000012	SPD	INCH2		002375'		NONE		003157'	
CHTAX		001432'		EXIT.		000000	EXT	INCH3		002402'		NOUSR		000100	SPD
CNAME		004671'	EXT	EXT		003627'		INDEX		000012		NUM01		002612'	
CODE		003610'		F		000000		INITBP		003575'		NUM02		002606'	
CODEP		003600'		FILLIN		002462'		INITF		000400	SPD	NUM940		002541'	
CODOK		000061'		FILOUT		000200	SPD	JOBVER		000137		NUMBAD		002436'	
CRLF		002662'		FINDUL		000633'		LASBAK		002202'		NUMOUT		002602'	
CUSTIN		000156'		FIXCH		000451'		LASBLK		003643'		NXT		001606'	
LUDUPD - LUD UPDATER	MACRO 46-6 08:55 18-APR-73 PAGE 2-2
LUDUPD.MAC	19-JAN-73 09:37		SYMBOL TABLE

NXTBLK		001575'		SITE		003665'		
NXTCHR		000124'		SIXNAM		000076'		
NXTDIG		002425'		SLSMAN		003670'		
NXTFIL		001055'		SQZIT		003225'		
NXTLST		001566'		SQZTS0		003211'		
NXTST		001024'		STRBLK		003656'		
NXTSTR		002744'		STRNAM		002725'		
OCTOUT		002640'		SXTSQ0		003230'		
OLDBLK		003632'		TABD		004540'		
OLDCOD		003611'		TAX		003124'	EXT	
OLDNAM		003633'		TAXIN		000004	SPD	
ONE		003626'		TAXOUT		002104'		
OQUOTA		003636'		TCODE		003667'		
ORGSAV		001162'		TINCH		002407'		
ORGSV1		001171'		TOUCH		002363'		
OSTRN		003635'		TRANS		000116'		
OUCH		002357'		TRPINI		000000	EXT	
OVBLK		003710'		TRYAGN		000016'		
OVFLF		400000	SPD	TTY		000016		
P		000015		TTYI		003605'		
PBITS		001276'		TTYOUT		000010	SPD	
PCODE		003666'		UNAME		003644'		
PDP		004516'		UNSQZ		003205'		
PPN		003651'		USERCM		000137'		
PPNEQ		000644'		USERIN		000104'		
PRIV		003654'		USERUP		001502'	EXT	
PRVOUT		001773'		USEUPD		001466'		
RDOV		001660'		USROUT		001621'		
RDXPRT		002624'		VUPDAT		000017		
RESET		000000	SPD	WDSOUT		002652'		
RETIT		003065'		YORN		002221'		
REVBIL		001536'		Z		000014		
REVD		001554'		ZEREND		004515'		
RND		002705'		ZEROIT		002304'		
RND1		002711'		ZEROUT		002635'		
RND2		002722'		ZERST		003640'		
ROVBL1		003177'		ZERSTR		002763'		
ROVBLK		003165'		
SAVACS		002165'		
SAVBIL		003623'		
SAVDEX		003631'		
SAVDIG		002534'		
SAVHNM		003630'		
SAVINF		004315'		
SAVIT		003054'		
SAVORG		003612'		
SAVSTR		003045'		
SCODE		003664'		
SETCOD		002144'		
SETDEX		003134'		
SETEXT		000651'		

LUDUPD - LUD UPDATER	MACRO 46-6 08:55 18-APR-73
LUDUPD.MAC	19-JAN-73 09:37		SYMBOL CROSS REFERENCE

A	    20#	   119	   120	   121	   122	   123	   124	   125	   126	   254	   257	   259	   262	   314
	   315	   316	   318	   319	   322	   323	   324	   328	   329	   336	   337	   338	   339	   341
	   343	   345	   347	   349	   352	   353	   386	   387	   393	   394	   399	   400	   401	   402
	   410	   411	   417	   418	   420	   422	   428	   437	   438	   461	   462	   470	   490	   491
	   497	   498	   507	   523	   526	   528	   531	   534	   535	   549	   550	   551	   552	   553
	   554	   555	   556	   561	   570	   586	   587	   588	   589	   590	   591	   592	   593	   594
	   595	   597	   598	   604	   605	   606	   607	   619	   620	   642	   646	   659	   660	   664
	   666	   669	   679	   682	   720	   721	   722	   723	   726	   732	   733	   735	   736	   740
	   741	   742	   743	   745	   746	   763	   764	   766	   767	   785	   803	   804	   805	   806
	   815	   816	   855	   856	   904	   909	   914	   918	   922	   930	   946	   954	   955	   957
	   958	   959	   960	   961	   962	   998	  1005	  1006	  1008	  1010	  1012	  1028	  1029	  1031
	  1039	  1174	  1199	  1228	  1230	  1246	  1271	  1308	  1341	  1342	  1344	  1347	  1357	  1365
	  1396	  1397	  1398	  1399	  1400	  1401	  1402	  1403	  1406	  1407	  1408	  1409	  1410	  1417
	  1419	  1420	  1478	  1480	  1485	  1488	  1489	  1571	  1617	  1621	  1623	  1681	  1691	  1701
	  1702	  1712	  1741	  1768	  1769	  1770	  1771	  1772	  1773	  1781	  1782	  1783	  1784	  1786
	  1791	  1792	  1793	  1794	  1798	  1802	  1803	  1804	  1805	  1808	  1850	  1855	  1897	  1899
	  1907	  1910	  1914	  1923	  1924	  1926
ACBLK	   975	  1307	  1308	  1309	  1484	  1491	  1563	  2044#
ADDBIL	   221	   950#
ADDCUS	   215	   847#
ADDDUL	    37#	   466	   471	   728	  1317
ADDENT	   421	   437#
ADDIT	   549#
ADDOUT	  1221	  1226	  1228#	  1247
ADDR01	  1234	  1242#
ADDSTR	   212	   825#
ALLIOI	    42#	   300	   306	   313	  1027	  1099	  1334
ALTMD	  1514	  1524#	  1532
ASCIF	    49#	  1204	  1244	  1511	  1519	  1524	  1533	  1596	  1649	  1654	  1815	  1824
ASCOUT	  1447	  1451#
B	    21#	   151	   155	   160	   161	   334	   344	   357	   358	   519	   520	   536	   537	   538
	   626	   627	   628	   630	   643	   661	   666	   679	   723	   724	   725	   726	  1036	  1038
	  1042	  1043	  1230	  1235	  1411	  1412	  1413	  1591	  1592	  1593	  1662	  1682	  1684	  1685
	  1686	  1689	  1701	  1784	  1785	  1786	  1795	  1796	  1797	  1798	  1805	  1806	  1807	  1808
	  1899	  1900	  1901	  1902	  1903	  1904	  1905	  1906	  1908	  1915	  1925
BACKUP	    36#	   104	   239	   297	   458	   485	   518	   935
BADCHG	   784	   788#
BADCHR	  1500#	  1552	  1557	  1562
BADCOD	   103	   107	   115	   222	   306#	   315	   321	   891	   999	  1009
BAKBIL	   865	   975#
BILOUT	   489	   602#
BP	    32#	    95	   130	   150	   153	   757	   849	   851	   907	   912	   936	  1093	  1148	  1202
	  1220	  1225	  1231	  1232	  1242	  1341	  1515	  1521	  1535	  1544	  1558	  1569	  1573	  1609
	  1611	  1638	  1639	  1644	  1648	  1702	  1811
C	    22#	   256	   261	   502	   503	   505	   507	   509	   513	   525	   530	   549	   550	   552
	   554	   556	   560	   561	   563	   567	   571	   573	   577	   580	   581	   586	   588	   592
	   595	   596	   644	   662	   667	   680	   739	  1065	  1068	  1070	  1071	  1077	  1083	  1231
	  1242	  1359	  1360	  1361	  1366	  1369	  1371	  1373	  1385	  1388	  1389	  1391	  1394	  1398
	  1542	  1663	  1675	  1682	  1690	  1710	  1711	  1712	  1728	  1731	  1732	  1734	  1854	  1857
	  1858	  1859	  1865	  1870	  1878	  1879	  1901	  1908
CADDR	    16%	   849	   907	  1220
CH	    29#	    76	    79	    82	    85	    88	   153	   154	   155	   159	   160	   161	   273	   275
	   277	   279	   281	   283	   285	   287	   289	   292	   294	   299	   307	   309	   405	   407
LUDUPD - LUD UPDATER	MACRO 46-6 08:55 18-APR-73
LUDUPD.MAC	19-JAN-73 09:37		SYMBOL CROSS REFERENCE

	   446	   493	   688	   875	   876	   877	   979	   982	   986	   992	  1052	  1058	  1103	  1110	  1112
	  1128	  1130	  1139	  1232	  1233	  1239	  1259	  1444	  1448	  1449	  1451	  1452	  1464	  1465
	  1468	  1469	  1471	  1484	  1485	  1486	  1509	  1512	  1513	  1515	  1518	  1520	  1521	  1528
	  1531	  1534	  1535	  1546	  1548	  1549	  1551	  1556	  1558	  1561	  1563	  1598	  1611	  1630
	  1631	  1632	  1634	  1635	  1639	  1641	  1642	  1644	  1648	  1650
CHACTE	    43#	   459	   963
CHADDR	   898	   907#
CHANGE	    47#	   835	  1880
CHCUS	   217	   884#
CHCUS2	   889#
CHDUL	    38#	   466	   473	   807	  1317
CHGLUD	   219	   935#
CHGRUB	   216	   868#
CHK1	  1329	  1332	  1334#
CHKD	  1621#	  1624
CHKINF	   615	   715	   759	   820	   831	   857	   878	   956	  1284	  1328#	  1727	  1780
CHKJOB	   626#	   632
CHKSTR	  1705#
CHKUSR	    68	   191#
CHMAIL	   899	   912#
CHNAM	   897	   903#
CHNAM1	   787	   800#
CHNAME	   210	   750#
CHPRIC	   218	   926#
CHSLMN	   901	   921#
CHSTR	   214	  1761#
CHTAX	   900	   917#
CNAME	    16%	   124	   125	  1202	  1811
CODE	    90	   100	   127	   309	   322	   338	   352	   417	   461	   490	   604	   961	  1997	  2003#
CODEP	    95	  1997#
CODOK	   105	   111	   116#
CRLF	  1133	  1161	  1194	  1236	  1653	  1657#
CUSTIN	   181#	   847	   884	   951	  1198	  1270
CUSTNO	   123	   188	   863	   974	  1188	  2038#
CUSUPD	   856#	   905	   910	   915	   919	   923	  1201
D	    23#	   256	   261	   525	   530	   580	   581	   645	   663	   668	   681	  1066	  1072	  1073
	  1078	  1079	  1081	  1083	  1085	  1088	  1093	  1229	  1247	  1312	  1373	  1374	  1375	  1376
	  1377	  1389	  1390	  1618	  1626	  1664	  1670	  1679	  1684	  1687	  1705	  1706	  1715
DECDON	  1478#	  1495	  1565
DECINF	    52#	   186	  1118	  1153	  1159	  1180	  1186	  1192	  1214	  1253	  1262	  1289	  1302	  1494
	  1524	  1554	  1583	  1596	  1615	  1747	  1755	  1835	  1842
DELBIL	   220	   944#
DELENT	   419	   440#
DELFIL	   492	   623#
DELNAM	   208	   612#
DELST	   224	   313#
DELSTR	   213	  1722#
DELUFD	   652	   660	   678#
DIDIT	   364	   403	   458#	   621	   729	   773	   799	   809	   822	   879	  1285	  1735	  1787
DIDIT2	   467	   482#
DIDIT3	   483#	   983
DIDIT4	   487	   493#
DIGINF	    53#	  1529	  1537	  1566
LUDUPD - LUD UPDATER	MACRO 46-6 08:55 18-APR-73
LUDUPD.MAC	19-JAN-73 09:37		SYMBOL CROSS REFERENCE

DISBP	   370	  1278	  1283	  1995#
DISP	   117	   127#
DIST	   719	  1439	  2034#
DIST2	  1434	  1438#
DISTAB	   128	   207#
DISTB	   895	   897#
DSK	    59#	   174	   175	   176	   241	   247	   257	   262	   295	   330	   331	   332	   388	   389
	   390	   412	   413	   414	   433	   434	   435	   441	   442	   443	   445	   451	   452	   453
	   455	   476	   477	   478	   480	   482	   526	   531	   538	   539	   540	   638	   646	   648
	   649	   651	   674	   675	   682	   685	   768	   769	   770	   779	   780	   781	   788	   789
	   790	   794	   795	   796	  1031	  1032	  1033	  1164	  1165	  1413	  1414	  1415	  1871	  1872
	  1873	  1882	  1885	  1886	  1888	  1889	  1890
DSK1	    61#	   654	   664	   669	   678	  1061	  1068	  1073	  1074	  1075
DULADD	   472	   545#
DULAGN	   354	   466#	   481
DULBLK	  1079	  1081	  1083	  1093	  1998	  2048#
DULCH	   474	   584#
DULEND	   475#	   558	   599
DULERR	   293	   296	   405#	   469	   479	   585
DULFR2	   562	   570#
DULFR3	   570	   573#
DULFRE	   548	   560#	   569	   572	   579
DULLAS	  1318	  1324#
DULLST	  1074	  1998#
E	    24#	   127	   128	  1067	  1665	  1670	  1671	  1674	  1688	  1690
ENDERR	   439	   441#
ENDIT	   101	   199#	   207
ENDLUD	   351	   383	   395	   450#	   465
ENDSTR	   636	   685#
ENDTYD	    50#	  1525	  1826
ERRCOD	   299	   407	   446	  2028#
ERRF	    40#	   298	   406	   463	   483	   772	   783	  1335	  1883
ERROUT	   301	   303	   409	   415	   423	   430	   436	   444	   446#	   464	   484	  1336
EXIT	    65#	   194	   197	   200	   204	   235
EXIT.	    15%
EXT	   486	   519	   936	  2018#
F	    19#	    67	    69	    73	    91	    93	    96	   104	   108	   131	   137	   141	   143	   181
	   183	   186	   191	   199	   239	   266	   297	   298	   300	   302	   306	   313	   406	   458
	   459	   463	   466	   471	   473	   483	   485	   488	   518	   616	   686	   701	   705	   716
	   728	   755	   760	   772	   783	   807	   817	   835	   858	   871	   885	   893	   928	   935
	   937	   963	   964	   977	   980	   985	   989	   990	  1021	  1022	  1027	  1050	  1053	  1056
	  1059	  1099	  1102	  1104	  1106	  1111	  1115	  1118	  1122	  1129	  1135	  1140	  1143	  1145
	  1150	  1153	  1156	  1159	  1175	  1178	  1180	  1183	  1186	  1189	  1192	  1200	  1204	  1205
	  1208	  1211	  1214	  1216	  1222	  1237	  1244	  1251	  1253	  1262	  1269	  1281	  1289	  1290
	  1292	  1297	  1299	  1302	  1307	  1308	  1309	  1317	  1328	  1334	  1335	  1423	  1425	  1433
	  1435	  1442	  1446	  1494	  1506	  1511	  1519	  1524	  1525	  1529	  1533	  1537	  1540	  1550
	  1554	  1566	  1581	  1583	  1596	  1607	  1615	  1649	  1654	  1657	  1696	  1698	  1707	  1742
	  1744	  1747	  1750	  1752	  1755	  1774	  1813	  1815	  1819	  1824	  1826	  1830	  1835	  1836
	  1842	  1843	  1860	  1880	  1883
FILLIN	  1510	  1518#
FILOUT	    55#	   488	   616	   716	   760
FINDUL	   502#	   510	   515	   545	   584
FIXCH	   342	   382#
LUDUPD - LUD UPDATER	MACRO 46-6 08:55 18-APR-73
LUDUPD.MAC	19-JAN-73 09:37		SYMBOL CROSS REFERENCE

FIXD	   350	   369#
FIXP	   348	   366#
FIXQ	   340	   373#
FNDIT	  1084	  1092#
GET940	  1507	  1527#	  1536	  1577
GETAD1	  1823#	  1827	  1833
GETADD	   850	   908	  1819#
GETAUN	   701#
GETBIT	   872	   880#
GETBLK	   432	   450	   475	   497#	   734	   744	   753
GETCD1	   100#
GETDIS	   710	  1282	  1433#
GETDL2	   506	   513#
GETDSK	   240	   247#
GETDUL	   355	   396	   468	   523#
GETFR2	  1358	  1365#	  1380
GETFR3	  1365	  1377	  1381#
GETFR4	  1369#	  1376
GETFRE	   718	   801	   839	  1356#	  1364	  1370	  1387
GETLAS	   178	   533	  1312#
GETLUD	   172	   253#	   268	   326	   384	   408	  1025
GETMAI	   852	   913	  1830#
GETNAM	   848	   903	  1811#
GETNUM	    99	   139	   145	   187	   703	   707	   888	  1295	  1303	  1428	  1438	  1540#	  1585	  1748
	  1756	  1838	  1845
GETNXT	  1545#	  1553	  1559	  1564
GETOV	  1037	  1048#
GETPB2	  1424	  1428#
GETPBT	   711	   818	  1423#
GETPPN	  1078#	  1086	  1091
GETRES	  1487	  1492	  1498	  1517	  1523	  1560	  1596#	  1600
GETSLS	   854	   921	  1842#
GETSTR	   712	   828	  1737#	  1776
GETSYS	   171	   239#	   291	   325	  1024
GETTAX	   853	   917	  1835#
GETTTY	    75	   232#	   978
GETWD	   134	   758	   940	  1343	  1506#	  1704	  1816	  1825
GETWD1	  1508#	  1516
HASHER	   168	   426	   776	  1662#
HELPIT	  1470	  1474#
HELPMS	  1475	  1929#
HLOC	   170	   174	   329	   330	   358	   387	   388	   411	   412	   427	   433	   441	   451	   476
	   498	   537	   597	   735	   745	   766	   768	   778	   779	  1412	  1871	  1882	  2032#
HNNAME	   428	   777	   785	   803	  2047#
HUNAME	   169	  1850	  2036#
INCH	    81	    84	    87	   880	  1455#	  1527
INCH1	  1456	  1464#
INCH2	  1457#	  1461	  1463
INCH3	  1459	  1462#
INDEX	    33#	   335	   336	   344	   346	   360	   361	   362	   363	   367	   373	   375	   377	   379
	   382	   392	   394	   398	   400	   402	   416	   431	   438	   440	   513	   567	   577	   618
	   619	   658	   659	   661	   671	   672	   722	   731	   732	   761	   763	   765	   792	   804
	   805	   815	   819	   832	   834	   842	   843	   877	  1035	  1036	  1040	  1046	  1070	  1077
LUDUPD - LUD UPDATER	MACRO 46-6 08:55 18-APR-73
LUDUPD.MAC	19-JAN-73 09:37		SYMBOL CROSS REFERENCE

	  1087	  1088	  1090	  1108	  1113	  1119	  1126	  1131	  1142	  1144	  1148	  1152	  1155	  1162	  1168
	  1356	  1357	  1359	  1367	  1369	  1374	  1381	  1385	  1388	  1397	  1401	  1410	  1418	  1695
	  1706	  1708	  1709	  1710	  1714	  1715	  1733	  1765	  1768	  1770	  1772	  1775	  1779	  1783
	  1792	  1804	  1851	  1852	  1855	  1863	  1865	  1878	  1892	  1994	  1995	  1996
INITBP	  1858	  1994#
INITF	    56#	  1135	  1143	  1707	  1860
JOBVER	     5#	     6
LASBAK	  1321#	  1326
LASBLK	  1321	  1406	  1408	  2030#
LISACT	   227	  1198#
LISALL	   223	  1021#
LISBAK	   981	   985#
LISLUD	   225	  1098#
LIST	    44#	   980	   985	   989	  1022	  1102	  1175	  1200	  1446
LISUSR	   226	  1172#
LLUD2	  1145#	  1163
LSTBAK	  1133#	  1170
LSTDON	  1030	  1050#
LUDBLK	   336	   344	   346	   361	   362	   363	   367	   375	   377	   379	   382	   394	   400	   402
	   431	   438	   440	   503	   505	   507	   549	   550	   552	   554	   556	   561	   580	   581
	   586	   588	   592	   595	   618	   619	   659	   661	   721	   732	   763	   765	   804	   805
	   815	   819	   834	   877	  1036	  1040	  1070	  1077	  1108	  1113	  1119	  1126	  1131	  1148
	  1152	  1155	  1168	  1357	  1367	  1375	  1389	  1390	  1391	  1396	  1400	  1403	  1410	  1418
	  1419	  1710	  1768	  1770	  1772	  1782	  1791	  1803	  1852	  1855	  1863	  1878	  1994	  1995
	  1996	  2000	  2049#
LUDEND	  1420	  2050#
LUDLST	   175	   331	   389	   413	   434	   442	   452	   477	   539	   648	   674	   769	   780	   789
	   795	  1032	  1414	  1872	  1885	  1889	  2000#
LUDUP	    67#	   196	  2063
LUDUP1	    74	    90#	   311	   448	   495	   694	   941	  1055	  1166	  1195	  1227	  1333	  1476	  1503
LUSR2	  1177#
MAILAD	    16%	   851	   912	  1225
MAXCOD	   102	   206#
MSG1	  1449	  1961#
N	    25#	    94	   100	   101	   102	   106	   110	   112	   113	   116	   133	   140	   146	   147
	   149	   152	   156	   157	   162	   166	   169	   188	   253	   268	   366	   367	   369	   370
	   374	   375	   376	   377	   378	   379	   424	   563	   564	   565	   573	   574	   575	   623
	   624	   626	   632	   690	   692	   704	   708	   709	   717	   719	   724	   754	   774	   777
	   800	   819	   836	   837	   838	   840	   842	   889	   890	   892	   895	   939	  1000	  1001
	  1003	  1004	  1045	  1046	  1067	  1092	  1108	  1113	  1119	  1120	  1126	  1131	  1147	  1152
	  1155	  1168	  1177	  1182	  1188	  1203	  1213	  1243	  1250	  1256	  1257	  1258	  1261	  1278
	  1279	  1283	  1296	  1304	  1312	  1313	  1314	  1315	  1316	  1319	  1320	  1321	  1324	  1325
	  1340	  1360	  1371	  1378	  1382	  1394	  1402	  1429	  1439	  1482	  1486	  1491	  1496	  1516
	  1522	  1536	  1542	  1544	  1568	  1571	  1572	  1574	  1575	  1578	  1586	  1587	  1588	  1590
	  1592	  1609	  1619	  1621	  1625	  1626	  1628	  1638	  1652	  1671	  1672	  1673	  1674	  1675
	  1679	  1680	  1703	  1729	  1749	  1757	  1812	  1823	  1839	  1846	  1897	  1910	  1916	  1926
N1	    26#	   167	   170	   425	   427	   633	   634	   636	   637	   653	   775	   778	  1381	  1382
	  1383	  1390	  1481	  1483	  1484	  1487	  1491	  1497	  1543	  1559	  1563	  1564	  1567	  1569
	  1578	  1610	  1613	  1627	  1637	  1640	  1645	  1676	  1822	  1827	  1898	  1909	  1917	  1918
	  1919	  1920	  1921	  1922	  1924
N2	    27#	  1134	  1136	  1137	  1138	  1139	  1163	  1682	  1683
N3	    28#	  1684
NAMUP	    15%	   861
LUDUPD - LUD UPDATER	MACRO 46-6 08:55 18-APR-73
LUDUPD.MAC	19-JAN-73 09:37		SYMBOL CROSS REFERENCE

NENTP	  1045	  1366	  1734	  1854	  1996#
NENTRY	   800	   836	   838	  1134	  1705	  1731	  1796	  1806	  1857	  2029#
NEWCUS	   228	  1267#
NEWDIS	   229	  1275#
NEWF	    41#	   183	   817	   928	  1269	  1281	  1292	  1299	  1425	  1435	  1698	  1744	  1752	  1774
NEWNAM	   209	   697#
NEXPPN	   509#
NNAME	   424	   425	   590	   593	   757	   774	   775	  2046#
NOFIT	   568	  1363	  1406#
NOGO11	   285#
NOGO12	   287#
NOGO14	   269	   289#
NOGO16	   291#	   625	   629	   631	   635	   641	   650	   657	   665	   670	   676	   683
NOGO17	   294#	   547
NOGOD2	   273#	   700	   798
NOGOD3	   275#	   614	   752	   814	   827	   870	  1051	  1101	  1277	  1724	  1763
NOGOD4	   277#	  1726	  1767
NOGOD5	   279#	   714	   830	  1778
NOGOD6	   173	   177	   244	   250	   281#	   327	   333	   356	   359	   385	   391	   397	   454	   771
	   782	   791	   797	  1026	  1034	  1064	  1069	  1076	  1416	  1874	  1887	  1891
NOGOD7	   283#	  1589
NOGOOD	   274	   276	   278	   280	   282	   284	   286	   288	   290	   297#	   984	   987
NONAME	  1742#
NONE	   504	  1853	  1870#
NOUSR	    54#	   141	  1021	  1050	  1056
NUM01	  1608	  1615#
NUM02	  1611#	  1613
NUM940	  1541	  1566#
NUMBAD	  1494#	  1547
NUMOUT	   691	   693	  1109	  1114	  1121	  1127	  1132	  1154	  1160	  1169	  1181	  1187	  1193	  1215
	  1254	  1263	  1607#
NXT	  1041	  1045#
NXTBLK	  1036#	  1047	  1049
NXTCHR	   153#	   158	   162
NXTDIG	  1484#	  1490
NXTFIL	   659#	   673	   677
NXTLST	  1029#	  1039
NXTST	   634#	   647	   684
NXTSTR	  1710#	  1717
OCTOUT	  1616	  1637#
OLDBLK	   386	   767	   788	   794	  2021#
OLDCOD	   314	   324	   462	  2004#
OLDNAM	   399	   401	   587	   589	  2022#
ONE	   875	  2017#
OQUOTA	   376	   378	  1771	  1773	  2025#
ORGSAV	   617	   727	   731#	   808	   821	  1280	  1764
ORGSV1	   557	   739#
OSTRN	   374	  1769	  2024#
OUCH	    77	    78	    80	   308	   310	   447	   494	   689	   993	  1054	  1060	  1105	  1141	  1240
	  1442#	  1612	  1643	  1651
OVBLK	   497	   499	  1411	  1417	  1870	  1879	  1888	  2045#
OVFLF	    48#	  1409
P	    31#	    72	    75	    77	    78	    80	    81	    84	    87	    92	    99	   134	   135	   139
LUDUPD - LUD UPDATER	MACRO 46-6 08:55 18-APR-73
LUDUPD.MAC	19-JAN-73 09:37		SYMBOL CROSS REFERENCE

	   142	   145	   148	   163	   165	   168	   171	   172	   173	   177	   178	   179	   187	   189	   237
	   244	   245	   250	   251	   255	   258	   260	   264	   265	   267	   269	   270	   271	   291
	   301	   303	   304	   308	   310	   325	   326	   327	   340	   348	   350	   351	   355	   356
	   359	   368	   371	   380	   383	   384	   385	   395	   396	   397	   408	   426	   429	   432
	   447	   450	   454	   456	   465	   468	   475	   489	   492	   494	   500	   511	   512	   514
	   521	   524	   527	   529	   532	   533	   541	   542	   543	   545	   548	   557	   566	   568
	   578	   582	   584	   602	   603	   608	   612	   613	   614	   615	   617	   687	   689	   691
	   693	   697	   698	   700	   703	   707	   710	   711	   712	   714	   715	   718	   727	   734
	   737	   744	   747	   750	   751	   752	   753	   758	   759	   762	   771	   776	   782	   786
	   791	   793	   797	   798	   801	   802	   808	   812	   813	   814	   818	   820	   821	   825
	   826	   827	   828	   830	   831	   833	   839	   841	   847	   848	   850	   852	   853	   854
	   857	   860	   868	   869	   870	   874	   878	   880	   884	   888	   903	   908	   913	   917
	   921	   926	   927	   929	   940	   944	   945	   950	   951	   952	   953	   956	   966	   978
	   988	   991	   993	   994	  1002	  1023	  1024	  1025	  1026	  1034	  1044	  1048	  1051	  1054
	  1060	  1064	  1069	  1076	  1080	  1087	  1089	  1090	  1094	  1095	  1098	  1100	  1101	  1105
	  1109	  1114	  1121	  1127	  1132	  1133	  1141	  1149	  1154	  1160	  1161	  1169	  1172	  1173
	  1176	  1181	  1187	  1193	  1194	  1198	  1201	  1207	  1210	  1215	  1221	  1226	  1236	  1238
	  1240	  1241	  1245	  1248	  1254	  1255	  1263	  1264	  1267	  1268	  1270	  1275	  1276	  1277
	  1280	  1282	  1284	  1295	  1303	  1305	  1310	  1322	  1331	  1337	  1343	  1345	  1346	  1348
	  1349	  1350	  1351	  1354	  1362	  1363	  1379	  1386	  1392	  1395	  1404	  1416	  1421	  1428
	  1430	  1438	  1440	  1445	  1450	  1453	  1466	  1472	  1508	  1526	  1527	  1538	  1545	  1577
	  1579	  1585	  1589	  1594	  1597	  1599	  1612	  1614	  1627	  1629	  1630	  1633	  1636	  1643
	  1646	  1651	  1653	  1655	  1660	  1677	  1693	  1704	  1716	  1718	  1719	  1722	  1723	  1724
	  1725	  1726	  1727	  1730	  1738	  1740	  1748	  1756	  1758	  1761	  1762	  1763	  1764	  1766
	  1767	  1775	  1776	  1778	  1779	  1780	  1799	  1809	  1816	  1817	  1825	  1828	  1838	  1840
	  1845	  1847	  1861	  1862	  1867	  1874	  1875	  1887	  1891	  1893	  1896	  1911	  1913	  1927
PBITS	   211	   812#
PCODE	   605	   972	  1177	  1296	  2041#
PDP	    72	    92	  2053#
PPN	   140	   146	   147	   149	   150	   337	   470	   534	   551	   602	   608	   620	   630	   642
	   663	   668	   690	   692	   704	   709	   720	   806	   957	  1001	  1043	  2033#
PPNEQ	   508	   511#
PRIV	  1429	  2035#
PRVOUT	  1123	  1168#
RDOV	  1082	  1087#
RDXPRT	  1622	  1625#	  1629
RESET	    64#	    70
RETIT	   793	   802	   841	  1801#
REVBIL	   230	   998#
REVD	  1007	  1012#
RND	  1666	  1667	  1668	  1669	  1678#	  1692
RND1	  1682#	  1691
RND2	  1685	  1691#
ROVBL1	  1881	  1884	  1888#
ROVBLK	   514	   578	  1048	  1089	  1386	  1867	  1877#
SAVACS	   860	   966	  1307#
SAVBIL	   958	   960	   962	   998	  1000	  1003	  1005	  2014#
SAVDEX	   373	   392	   761	   792	   832	  1695	  1733	  1765	  2020#
SAVDIG	  1555	  1561#
SAVHNM	   393	   764	  2019#
SAVINF	   840	  1794	  1795	  1802	  2051#
SAVIT	   762	   833	  1790#
SAVORG	   328	   334	   335	   357	   360	   366	   369	   398	   410	   416	   437	   591	   594	   596
LUDUPD - LUD UPDATER	MACRO 46-6 08:55 18-APR-73
LUDUPD.MAC	19-JAN-73 09:37		SYMBOL CROSS REFERENCE

	   598	   731	   733	   736	   739	   741	   743	   746	   816	  1279	  2005#
SAVSTR	   844	  1781#
SCODE	   607	   856	   862	   955	   968	   979	  2039#
SETCOD	   929	   953	  1289#
SETDEX	   429	   613	   698	   751	   786	   813	   826	   869	  1100	  1276	  1723	  1762	  1849#	  1866
	  1868
SETEXT	   255	   260	   518#	   524	   529
SETRUB	   877#	   881
SETSIT	   927	   945	   952	  1173	  1268	  1581#
SITE	   959	   971	  1004	  1593	  2040#
SIXNAM	   130#	   165
SLSMAN	   122	   864	  1213	  1846	  2043#
SQZIT	  1913#
SQZTS0	  1900#	  1909
STRBLK	  1741	  1749	  1757	  1781	  2037#
STRNAM	  1695#	  1725	  1738	  1766
SXTSQ0	  1916#	  1925
TABD	  1621	  2055#
TAX	    16%	   126	  1250	  1839
TAXIN	    51#	  1550	  1835
TAXOUT	  1210	  1250#
TCODE	   973	  1182	  1304	  2042#
TINCH	  1468#	  1471	  1508	  1545	  1597
TOUCH	  1443	  1446#
TRANS	   147#	   603	  1002
TRPINI	    15%
TRYAGN	    81#	    83	    86	    89
TTY	    60#	   201	   203	   232	   236	   859	   965	  1457	  1458	  1460
TTYI	   234	  1455	  1462	  1464	  2002#
TTYOUT	    39#	    67	    73	    96	   108	   131	   137	   143	   181	   199	   302	   686	   701	   705
	   755	   858	   871	   885	   893	   937	   964	   977	   990	  1053	  1059	  1104	  1106	  1111
	  1115	  1122	  1129	  1140	  1145	  1150	  1156	  1178	  1183	  1189	  1205	  1208	  1211	  1216
	  1222	  1237	  1251	  1290	  1297	  1328	  1423	  1433	  1442	  1506	  1540	  1581	  1607	  1657
	  1696	  1742	  1750	  1813	  1819	  1830	  1836	  1843
UNAME	   130	   151	   166	   167	   553	   555	   740	   742	   969	   970	  2031#
UNSQZ	   148	  1896#
USERCM	   165#	   612	   697	   750	   812	   825	   868	  1098	  1275	  1722	  1761
USERIN	   137#	   926	   944	   950	  1023	  1172	  1267
USERUP	    15%	   967
USEUPD	   609	   931	   947	   955#	  1011	  1013	  1176	  1272
USROUT	  1044	  1056#
VUPDAT	     4#	     7
WDSOUT	  1094	  1149	  1207	  1245	  1648#	  1652
YORN	   874	  1331	  1340#
Z	    30#	    98	   887	  1570	  1572	  1575	  1576	  1584
ZEREND	   120	  2052#
ZEROIT	  1372	  1394#	  1730
ZEROUT	  1620	  1634#	  1640
ZERST	   118	   119	  2027#
ZERSTR	  1727#   