PAGE 01  NLM24.VAS  15-MAR-73  22:04:27.983

      	      	00010	*NLM24         02/28/73
      	      	00030	* NLM VERSION
      	      	00160	* 201 CARD VERSION
00000	001100	00200	       JSS1    *
00001	000000	
00002	002000	00210	       JMPM    CRASH
00003	000504	
00004	000000	00220	LINER  0; 0; 0                 LINE ERROR COUNT FOR LINES 0,1, AND 2
00005	000000	
00006	000000	
00007	000000	00230	POWFAL 0                       POWER FAILURE COUNT
00010	      	00240	       R       10              TRAP LOCATION FOR POWER FAILSAFE
00010	000000	00250	       0; 0
00011	000000	
00012	100077	00260	       EXC     77
00013	040007	00270	       INR     POWFAL
00014	002000	00280	       JMPM    CRASH
00015	000504	
00016	      	00290	       R       20
00020	000000	00310	LINES  0; -1; -1; -1; -1; -1; -1
00021	177777	
00022	177777	
00023	177777	
00024	177777	
00025	177777	
00026	177777	
00027	000021	00320	ZDET   21; 23; 25
00030	000023	
00031	000025	
00032	      	00330	       R       36
00036	002000	00340	       JMPM    RNG
00037	000751	
00040	002000	00350	       JMPM    OUT0
00041	000652	
00042	002000	00360	       JMPM    IN0
00043	000702	
00044	002000	00370	       JMPM    OUT1
00045	000662	
00046	002000	00380	       JMPM    IN1
00047	000716	
00050	002000	00390	       JMPM    OUT2
00051	000672	
00052	002000	00400	       JMPM    IN2
00053	000732	
00054	002000	00410	       JMPM    CRASH
00055	000504	
00056	002000	00420	       JMPM    CRASH
00057	000504	
00060	002000	00430	       JMPM    CRASH
00061	000504	
00062	002000	00440	       JMPM    CRASH
00063	000504	
00064	002000	00450	       JMPM    CRASH
00065	000504	
PAGE 01  NLM24.VAS  15-MAR-73  22:04:30.500

00066	002000	00460	       JMPM    CRASH
00067	000504	
00070	002000	00470	       JMPM    CRASH
00071	000504	
00072	002000	00480	       JMPM    CRASH
00073	000504	
00074	002000	00490	       JMPM    CRASH
00075	000504	
00076	002000	00500	       JMPM    CRASH
00077	000504	
00100	      	00550	       R       100
00100	000033	00560	MACHNO	33	$$$$$$$$$$$$$$$$$$$$$$$$$$$$
00101	000024	00570	       24                      VERSION NUMBER
00102	000000	00580	DLOCK  0                       DEBUGGER LOCK
00103	000000	00590	DSWICH 0                       DOWNSTREAM SWITCH
00104	000000	00600	CRSHCT 0                       CRASH COUNT
00105	000101	00610	N370L  100+NLINES
00106	000062	00620		50D	$$$$$$$$$$$$$$$$$$$$$$$$$$$
00107	177777	00630	UPDOWN -1
00110	000000	00640	SWTCHO 0; 0; 0; 0; 0
00111	000000	
00112	000000	
00113	000000	
00114	000000	
00115	001022	00650	MACH	+1022;0;0;0;0	$$$$$$$$$$$$$$$$$$$$$$$$$
00116	000000	
00117	000000	
00120	000000	
00121	000000	
00122	010407	00660	IOTA   +IOTAB0; 0; 0; 0; 0; +INTERN ADDRESS OF IO TABLES
00123	000000	
00124	000000	
00125	000000	
00126	000000	
00127	010447	
00130	177774	00670	IOTABS	-4D;0;0;0;0;-2D
00131	000000	
00132	000000	
00133	000000	
00134	000000	
00135	177776	
00136	000002	00671	GROUPN	2;0;0;0;0
00137	000000	
00140	000000	
00141	000000	
00142	000000	
00143	000000	00672	GROUPI	00;02;02;02;02;+NUMGRP-1
00144	000002	
00145	000002	
00146	000002	
00147	000002	
00150	000006	
00151	010000	00673	BORO	10000
00152	010000	00674	BORI	10000;10000;10000;10000;10000
PAGE 01  NLM24.VAS  15-MAR-73  22:04:31.100

00153	010000	
00154	010000	
00155	010000	
00156	010000	
00157	147314	00675	ASCII	ASC  'NLM'
00160	146600	
      	000161	00680	FLAG   E       *
      	      	00690	* GENBUF MUST BE FIRST   UNASSIGNED BUFFERS USE BIT 0 OF GENBUF
00161	000000	00700	GENBUF 0
00162	      	00710	TCW    R       *+1             TERMINAL CHARACTER WAITING
00163	      	00720	TCW2   R       *+1
00164	      	00730	IFT    R       *+2             INPUT FROM TERMINAL
      	      	00740	* RT6 REQUIRES CFOB TO BE LAST GROUP OF FLAGS
      	000007	00750	NUMGRP E       7
00166	      	00760	CFOB   R       *+NUMGRP        CANDIDATES FOR OUTPUT BUFFER
00175	      	00770	PCFOB  R       *+NUMGRP        PROCESSED CANDIDATES FOR OUTPUT BUFFER
00204	      	00780	RSBF   R       *+NUMGRP        RESTRICTED BUFFER FLAGS
00213	000000	00790	TIMSEC 0                       TIME SINCE LAST ONE QUARTER SECOND
00214	000000	00800	TIMMIN 0                       TIME SINCE LAST MINUTE
00215	000000	00810	TIMEH  0                       HIGH ORDER REAL TIME
00216	000000	00820	TIMEL  0                       LOW ORDER REAL TIME
00217	000000	00830	RGX    0
00220	000000	00840	SBX    0
00221	000000	00850	SBA    0
00222	000000	00860	SBA2   0
00223	      	00870	PACTH  R       *+2             PORT ACTIVE HISTORY
00225	      	00880	START  R       *+40            START TIME
00265	      	00890	OCOUNT R       *+40            OUTPUT CHARACTER COUNT
00325	      	00900	ICOUNT R       *+40            INPUT CHARACTER COUNT
00365	      	00910	T20M   R       *+40            20 MINUTE TIMEOUT
00425	      	00920	ATIME  R       *+1             TIME TO SEND IN ACCOUNTING
00426	      	00930	ACSTAT R       *+1             ACCOUNTING STATUS
      	      	00940	* -1 READY TO TRANSMIT
      	      	00950	* 0 INITIAL STATE  NOT LOGGED IN
      	      	00960	* 1 FIRST TYPE 5 SENT
      	      	00970	* 2 SECOND TYPE 5 SENT
      	      	00980	* 3 WAITING FOR CONTROL C
00427	      	00990	ACTIMO R       *+1             TIMEOUT FOR CONTROL C AND TYPE 5
00430	      	01000	APORT  R       *+1             TYMNET PORT FOR ACCOUNTING
00431	      	01010	CCOUNT R       *+1             CONTROL C COUNT
00432	      	01020	ANAME  R       *+1             MODIFIER FOR ACCOUNTING LOGIN NAME
00433	      	01030	LRESET R       *+3
00436	      	01040	TIME1  R       *+3             TIME SINCE LAST RECORD MADE
00441	      	01050	OSF    R       *+3             OUTPUT SECTOR FLAGS
00444	      	01060	ISF    R       *+3             INPUT SECTOR FLAGS
00447	      	01070	CAOS   R       *+3             CURRENT ASSEMBLING OUTPUT SECTOR
00452	      	01080	COS    R       *+3             CURRENT OUTPUT SECTOR
00455	      	01090	CDIS   R       *+3             CURRENT DISASSEMBLING INPUT SECTOR
00460	      	01100	CIS    R       *+3             CURRENT INPUT SECTOR
00463	      	01110	LRR    R       *+3             LAST RECORD RECEIVED
00466	      	01120	ASDW   R       *+3             ASSEMBLED WORD
00471	      	01130	NDASW  R       *+3             NEXT DISASSEMBLING WORD
00474	      	01190	TSLR   R       *+3             TIME SINCE LAST RESET
00477	      	01200	QOVERT R       *+3             OUTPUT VERTICAL CHECKSUM
PAGE 01  NLM24.VAS  15-MAR-73  22:04:32.166

00502	      	01210	QODIAG R       *+3             OUTPUT DIAGONAL CHECKSUM
00505	      	01220	QIFRST R       *+3             FIRST WORD OF RECORD
00510	      	01230	QIVERT R       *+3             INPUT VERTICAL CHECKSUM
00513	      	01240	QIDIAG R       *+3             INPUT DIAGONAL CHECKSUM
00516	      	01250	IRC    R       *+3             INPUT RECORD COUNT
00521	      	01260	ORC    R       *+3             OUTPUT RECORD COUNT
00524	      	01270	INLIST R       *+3             LIST OF INPUT CLEANUP TO DO
00527	      	01280	OUTLST R       *+3             LIST OF OUTPUT CLEANUP TO DO
00532	      	01290	SWTCHI R       *+3             SWITCH FOR INPUT CLEANUP
00535	      	01300	LINSAT R       *+3             LINE SATURATION COUNTER
00540	      	01310	INDATA R       *+3             INCOMING DATA FLAG FOR DIAGNOSTICS
00543	      	01320	CLNLOK R       *+1             CLEANUP LOCK
00544	      	01330	ORA    R       *+3             OUTPUT RECORD ADDRESS
00547	      	01340	IRA    R       *+3             INPUT RECORD ADDRESS
00552	      	01350	INA    R       *+1             A REGISTER SAVE LOCATION FOR INTERRUPT ROUTINES
00553	      	01400	RNGA   R       *+1             SAVE LOCATIONS FOR RINGDRIVER
00554	      	01410	RNGX   R       *+1
00555	      	01420	SWI    R       *+1             INDIRECT POINTER FOR 16 SECOND LOGIC
00556	      	01430	USWICH R       *+1
00557	      	01440	CNA    R       *+1             SAVE LOCATIONS FOR CLEANUP ROUTINE
00560	      	01450	CNB    R       *+1
00561	      	01460	CNX    R       *+1
00562	      	01470	RNG1   R       *+2             OUTPUT BITS FOR RINGDRIVER
00564	      	01490	RNG2   R       *+2             INPUT BITS FOR RINGDRIVER
00566	177777	01510	TAM    -1
00567	177777	01520	TAM2   -1
00570	000000	01530	PINP   0; 0                    PORT IS IN INPUT MODE
00571	000000	
00572	000000	01540	MASD   0; 0                    MESSAGE ASSEMBLED
00573	000000	
00574	000000	01560	MASG   0; 0                    MESSAGE ASSEMBLING
00575	000000	
00576	000000	01570	GNBL   0; 0                    GREEN BALL
00577	000000	
00600	000000	01580	QSO    0; 0                    QUARTER SECOND OUTPUT
00601	000000	
00602	000000	01590	OSTD   0; 0                    OUTPUT STARTED
00603	000000	
00604	000000	01690	DED    0; 0                    DEDICATED PORT FOR UP/DOWN HANDSHAKE
00605	000000	
00606	000000	01700	T64SI  0; 0                    64 SECOND TIMEOUT FOR INPUT
00607	000000	
00610	000000	01720	YBT    0; 0; 0; 0              YELLOW BALL TIMEOUT
00611	000000	
00612	000000	
00613	000000	
00614	000000	01730	IGNO   0; 0                    IGNORE OUTPUT
00615	000000	
00616	000000	01740	PASD   0; 0                    PORT ASSIGNED
00617	000000	
00620	000000	01750	NPORT  0; 0                    NEW PORT
00621	000000	
00622	000000	01760	CEXZ   0; 0                    CIRCUIT EXTERNALLY ZAPPED
00623	000000	
PAGE 01  NLM24.VAS  15-MAR-73  22:04:33.483

00624	000000	01780	PACT   0; 0                    PORT IS ACTIVE
00625	000000	
00626	000000	01790	CRO    0; 0                    INPUT CARRIAGE RETURN ONLY (PLUS CONTROL Z FOR PDP 9)
00627	000000	
00630	      	01900	MA     R       *+2
00632	      	01910	CRSAVE R       *+10            ARRAY TO SAVE CRASH INFORMATION
00642	000000	01920	W1     0
00643	000000	01930	W2     0
00644	000000	01940	W3     0
00645	000000	01950	W4     0
00646	000000	01960	W5     0
00647	000000	01970	W6     0
00650	000000	01980	W7     0
00651	000000	01990	W8     0
00652	000000	02000	W9     0
00653	000000	02010	W10    0
00654	000000	02020	W11    0
00655	000000	02030	W12    0
00656	000000	02040	W13    0
00657	      	02050	       I       *
00657	      	02060	       R       *+3
00662	000001	02070	MASK   1; 2; 4; 10; 20; 40; 100; 200; 400; 1000; 2000; 4000
00663	000002	
00664	000004	
00665	000010	
00666	000020	
00667	000040	
00670	000100	
00671	000200	
00672	000400	
00673	001000	
00674	002000	
00675	004000	
00676	010000	02080	       10000; 20000; 40000; 100000
00677	020000	
00700	040000	
00701	100000	
00702	177776	02090	CMSK   177776; 177775; 177773; 177767; 177757; 177737; 177677; 177577; 177377
00703	177775	
00704	177773	
00705	177767	
00706	177757	
00707	177737	
00710	177677	
00711	177577	
00712	177377	
00713	176777	02100	       176777; 175777; 173777; 167777; 157777; 137777; 77777
00714	175777	
00715	173777	
00716	167777	
00717	157777	
00720	137777	
00721	077777	
00722	000021	02110	RSF    21; 42; 104; 210; 231; 63; 146; 314; 335; 273; 167; 356
PAGE 01  NLM24.VAS  15-MAR-73  22:04:34.366

00723	000042	
00724	000104	
00725	000210	
00726	000231	
00727	000063	
00730	000146	
00731	000314	
00732	000335	
00733	000273	
00734	000167	
00735	000356	
      	      	02120	* CHECK BR BEFORE CHANGING OSEC
00736	013300	02130	OSEC   13300
00737	013500	02140	ISEC   13500
      	013700	02150	RING   E       13700
      	015700	02160	POINT  E       15700
      	020000	02170	BUF    E       20000
00740	000712	02190	INZD   +IN0+10; +IN1+10; +IN2+10  JUMP ADDRESS FOR ZERO DETECT
00741	000726	
00742	000742	
00743	100702	02200	INNORM +IN0+.; +IN1+.; +IN2+.  NORMAL JUMP ADDRESS
00744	100716	
00745	100732	
00746	000711	02210	INAD   +IN0+7; +IN1+7; +IN2+7  ADDRESS OF ADDRESS OF JUMP INSTRUCTION
00747	000725	
00750	000741	
00751	      	02280	CTS    R       *+4
00755	177777	02290	P370   -1; -1; -1; -1; -1; -1; -1; -1
00756	177777	
00757	177777	
00760	177777	
00761	177777	
00762	177777	
00763	177777	
00764	177777	
00765	177777	02300	       -1; -1; -1; -1; -1; -1; -1; -1
00766	177777	
00767	177777	
00770	177777	
00771	177777	
00772	177777	
00773	177777	
00774	177777	
00775	177777	02310	       -1; -1; -1; -1; -1; -1; -1; -1
00776	177777	
00777	177777	
01000	177777	
01001	177777	
01002	177777	
01003	177777	
01004	177777	
01005	177777	02320	       -1; -1; -1; -1; -1; -1; -1; -1
01006	177777	
01007	177777	
PAGE 01  NLM24.VAS  15-MAR-73  22:04:35.950

01010	177777	
01011	177777	
01012	177777	
01013	177777	
01014	177777	
01015	000000	02330	ZAPP   0
01016	000000	02340	LFREE  0
      	000304	02350	NBUF   E       304
01017	      	02360	BUFERS R       *+NBUF+NBUF
      	      	02370	* 0 IS FOR GATHERING ACCOUNTING
      	      	02380	* 1 HOLDS ACCOUNTING DATA UNTIL ACKNOWLEDGED BY 940
      	      	02390	* 2 OUTPUTS TO DEBUGGER TELETYPE
      	      	02400	* 3 INPUTS FROM DEBUGGER TELETYPE
      	      	02410	* 4 OUTPUTS TO TEST PORT
      	      	02420	* 20 TO 57 USED FOR LOGON INFO
      	      	02430	* 60 TO 177 USED BY SUPERVISOR TO TERMINATE CIRCUITS
      	      	02440	* 200 TO 237 INPUT TO 370
      	      	02450	* 240 TO 277 MESSAGE ASSEMBLY
      	      	02460	* 300 TO 301 SUPERVISOR CHANNELS
      	      	02470	* 302 TO 303 FLOW CONTROL CHANNELS
01627	000017	02480	       17; 17; 20; 17; 21; 0; 0; 0
01630	000017	
01631	000020	
01632	000017	
01633	000021	
01634	000000	
01635	000000	
01636	000000	
01637	000000	02490	       0; 0; 0; 0; 0; 0; 0; 0
01640	000000	
01641	000000	
01642	000000	
01643	000000	
01644	000000	
01645	000000	
01646	000000	
01647	000017	02500	       17; 17; 17; 17; 17; 17; 17; 17
01650	000017	
01651	000017	
01652	000017	
01653	000017	
01654	000017	
01655	000017	
01656	000017	
01657	000017	02510	       17; 17; 17; 17; 17; 17; 17; 17
01660	000017	
01661	000017	
01662	000017	
01663	000017	
01664	000017	
01665	000017	
01666	000017	
01667	000017	02520	       17; 17; 17; 17; 17; 17; 17; 17
01670	000017	
PAGE 01  NLM24.VAS  15-MAR-73  22:04:36.516

01671	000017	
01672	000017	
01673	000017	
01674	000017	
01675	000017	
01676	000017	
01677	000017	02530	       17; 17; 17; 17; 17; 17; 17; 17
01700	000017	
01701	000017	
01702	000017	
01703	000017	
01704	000017	
01705	000017	
01706	000017	
01707	000017	02540	       17; 0; 17; 0; 17; 0; 17; 0
01710	000000	
01711	000017	
01712	000000	
01713	000017	
01714	000000	
01715	000017	
01716	000000	
01717	000017	02550	       17; 0; 17; 0; 17; 0; 17; 0
01720	000000	
01721	000017	
01722	000000	
01723	000017	
01724	000000	
01725	000017	
01726	000000	
01727	000017	02560	       17; 0; 17; 0; 17; 0; 17; 0
01730	000000	
01731	000017	
01732	000000	
01733	000017	
01734	000000	
01735	000017	
01736	000000	
01737	000017	02570	       17; 0; 17; 0; 17; 0; 17; 0
01740	000000	
01741	000017	
01742	000000	
01743	000017	
01744	000000	
01745	000017	
01746	000000	
01747	000017	02580	       17; 0; 17; 0; 17; 0; 17; 0
01750	000000	
01751	000017	
01752	000000	
01753	000017	
01754	000000	
01755	000017	
01756	000000	
PAGE 01  NLM24.VAS  15-MAR-73  22:04:39.133

01757	000017	02590	       17; 0; 17; 0; 17; 0; 17; 0
01760	000000	
01761	000017	
01762	000000	
01763	000017	
01764	000000	
01765	000017	
01766	000000	
01767	000017	02600	       17; 0; 17; 0; 17; 0; 17; 0
01770	000000	
01771	000017	
01772	000000	
01773	000017	
01774	000000	
01775	000017	
01776	000000	
01777	000017	02610	       17; 0; 17; 0; 17; 0; 17; 0
02000	000000	
02001	000017	
02002	000000	
02003	000017	
02004	000000	
02005	000017	
02006	000000	
02007	000017	02620	       17; 0; 17; 0; 17; 0; 17; 0
02010	000000	
02011	000017	
02012	000000	
02013	000017	
02014	000000	
02015	000017	
02016	000000	
02017	000017	02630	       17; 0; 17; 0; 17; 0; 17; 0
02020	000000	
02021	000017	
02022	000000	
02023	000017	
02024	000000	
02025	000017	
02026	000000	
      	      	02640	* **** CHANGE TO 20 AND 21 IN FINAL VERSION ****
02027	000000	02650	       00; 00; 22; 23; 24; 25; 26; 27
02030	000000	
02031	000022	
02032	000023	
02033	000024	
02034	000025	
02035	000026	
02036	000027	
02037	000030	02660	       30; 31; 32; 33; 34; 35; 36; 37
02040	000031	
02041	000032	
02042	000033	
02043	000034	
PAGE 01  NLM24.VAS  15-MAR-73  22:04:40.333

02044	000035	
02045	000036	
02046	000037	
02047	000040	02670	       40; 41; 42; 43; 44; 45; 46; 47
02050	000041	
02051	000042	
02052	000043	
02053	000044	
02054	000045	
02055	000046	
02056	000047	
02057	000050	02680	       50; 51; 52; 53; 54; 55; 56; 57
02060	000051	
02061	000052	
02062	000053	
02063	000054	
02064	000055	
02065	000056	
02066	000057	
02067	000017	02690	       17; 17; 17; 17; 17; 17; 17; 17
02070	000017	
02071	000017	
02072	000017	
02073	000017	
02074	000017	
02075	000017	
02076	000017	
02077	000017	02700	       17; 17; 17; 17; 17; 17; 17; 17
02100	000017	
02101	000017	
02102	000017	
02103	000017	
02104	000017	
02105	000017	
02106	000017	
02107	000017	02710	       17; 17; 17; 17; 17; 17; 17; 17
02110	000017	
02111	000017	
02112	000017	
02113	000017	
02114	000017	
02115	000017	
02116	000017	
02117	000017	02720	       17; 17; 17; 17; 17; 17; 17; 17
02120	000017	
02121	000017	
02122	000017	
02123	000017	
02124	000017	
02125	000017	
02126	000017	
02127	000120	02730	       120; 1; 121; 2
02130	000001	
02131	000121	
PAGE 01  NLM24.VAS  15-MAR-73  22:04:41.616

02132	000002	
      	000000	02740	BP     E       0
      	000304	02750	BC     E       NBUF
      	000610	02760	BF     E       BC+NBUF
02133	      	02770	       R NBUF*
02437	      	02780	       L       *
02437	      	02790	       R       *+200
      	      	02800	* A FATAL ERROR HAS OCCURRED
      	      	02810	* SAVE ERROR NUMBER AND (SOMETIMES) MARK LOCATION
      	      	02820	* OF ROUTINE IN WHICH ERROR WAS DETECTED
02637	000000	02830	CRASH  0
02640	100077	02840	       EXC     77
02641	010104	02850	       LDA     CRSHCT
02642	040104	02860	       INR     CRSHCT
02643	150304	02870	       ANA     =3
02644	005014	02880	       TAX
02645	020504	02890	       LDB     CRASH
02646	065651	02900	       STB     CRSAVE,57	016000	02910	       LDA     0,6
02650	055655	02920	       STA     CRSAVE+4,5
02651	005002	02930	INIT   TZB
02652	030305	02940	       LDX     =BUFERS+BC+NBUF
02653	010306	02950	       LDA     =NBUF+NBUF-1
02654	005311	02960	       DAR
02655	005344	02970	       DXR
02656	065000	02980	       STB     0,5
02657	001002	02990	       JAP     *-3
02660	002654	
02661	010307	03000	       LDA     =1777
02662	030310	03010	       LDX     =RING+2000
02663	005311	03020	       DAR
02664	005344	03030	       DXR
02665	065000	03040	       STB     0,5
02666	001002	03050	       JAP     *-3
02667	002663	
02670	030311	03060	       LDX     =RNG1
02671	010312	03070	       LDA     =RNG1-FLAG-1
02672	005344	03080	       DXR
02673	005311	03090	       DAR
02674	065000	03100	       STB     0,5
02675	001002	03110	       JAP     *-3
02676	002672	
02677	060110	03120	       STB     SWTCHO
02700	060111	03130	       STB     SWTCHO+1
02701	060112	03140	       STB     SWTCHO+2
02702	030122	03150	       LDX     IOTA
02703	010313	03160	       LDA     =BR-IOTAB0-1
02704	065060	03170	       STB     BR-IOTAB0,5
02705	005144	03180	       IXR
02706	005311	03190	       DAR
02707	001002	03200	       JAP     *-3
02710	002704	
02711	050562	03270	       STA     RNG1
02712	050563	03280	       STA     RNG1+1
PAGE 01  NLM24.VAS  15-MAR-73  22:04:43.550

02713	050566	03290	       STA     TAM
02714	050567	03300	       STA     TAM2
02715	005102	03310	       INC     ,B
02716	061035	03320	       STB     LFREE
02717	030310	03330	       LDX     =POINT
02720	005122	03340	       IBR
02721	065001	03350	       STB     1,5
02722	005145	03360	       INC     X,AX
02723	140314	03370	       SUB     =POINT+1776
02724	001004	03380	       JAN     *-4
02725	002720	
02726	005001	03390	       TZA
02727	055001	03400	       STA     1,5
02730	010315	03500	       LDA     =17
02731	103177	03510	       OAR     77
02732	005311	03520	       DAR
02733	001002	03530	       JAP     *-2
02734	002731	
02735	020316	03540	       LDB     =7
02736	001020	03550	EN     JBZ     SEN
02737	000631	
02740	005322	03560	       DBR
02741	016020	03570	       LDA     LINES,6
02742	001004	03580	       JAN     EN
02743	000615	
02744	005021	03590	       TBA
02745	004241	03600	       LRLA    1
02746	110705	03610	       ORA     MASK+4
02747	103177	03620	       OAR     77
02750	001000	03630	       JMP     EN
02751	000615	
      	      	03640	* EXC 76 RESETS OVERFLOW FLIPFLOP, EXC 276 ENSURES THAT CLOCK IS WORKING
02752	100076	03650	SEN    EXC     76
02753	100276	03660	       EXC     276
02754	010635	03670	       LDA     EN3
02755	050746	03680	       STA     ENABLE
02756	100377	03700	EN3    EXC     377
02757	002000	03710	EXEC   JMPM    SBOD
02760	002723	
02761	002000	03720	       JMPM    RMAKE
02762	002142	
02763	002000	03730	       JMPM    SBOD
02764	002723	
02765	002000	03740	       JMPM    RTD
02766	001567	
02767	002000	03750	       JMPM    SEC
02770	004323	
02771	001000	03760	       JMP     EXEC
02772	000636	
02773	000000	03780	OUT0   0
02774	103076	03790	       OME     76,NDASW
02775	000471	
02776	040527	03800	       INR     OUTLST
02777	003000	03810	       XEC     ENABLE
PAGE 01  NLM24.VAS  15-MAR-73  22:04:45.333

03000	000746	
03001	001000	03820	       JMP     OUT0+.
03002	100652	
03003	000000	03830	OUT1   0
03004	103076	03840	       OME     76,NDASW+1
03005	000472	
03006	040530	03850	       INR     OUTLST+1
03007	003000	03860	       XEC     ENABLE
03010	000746	
03011	001000	03870	       JMP     OUT1+.
03012	100662	
03013	000000	03880	OUT2   0
03014	103076	03890	       OME     76,NDASW+2
03015	000473	
03016	040531	03900	       INR     OUTLST+2
03017	003000	03910	       XEC     ENABLE
03020	000746	
03021	001000	03920	       JMP     OUT2+.
03022	100672	
03023	000000	03930	IN0    0
03024	102076	03940	       IME     76,ASDW
03025	000466	
03026	040524	03950	       INR     INLIST
03027	003000	03960	       XEC     ENABLE
03030	000746	
03031	001000	03970	       JMP     IN0+.
03032	100702	
03033	103077	03980	       OME     77,ZDET
03034	000027	
03035	001000	03990	       JMP     IN0+.
03036	100702	
03037	000000	04000	IN1    0
03040	102076	04010	       IME     76,ASDW+1
03041	000467	
03042	040525	04020	       INR     INLIST+1
03043	003000	04030	       XEC     ENABLE
03044	000746	
03045	001000	04040	       JMP     IN1+.
03046	100716	
03047	103077	04050	       OME     77,ZDET+1
03050	000030	
03051	001000	04060	       JMP     IN1+.
03052	100716	
03053	000000	04070	IN2    0
03054	102076	04080	       IME     76,ASDW+2
03055	000470	
03056	040526	04090	       INR     INLIST+2
03057	003000	04100	       XEC     ENABLE
03060	000746	
03061	001000	04110	       JMP     IN2+.
03062	100732	
03063	103077	04120	       OME     77,ZDET+2
03064	000031	
03065	001000	04130	       JMP     IN2+.
PAGE 01  NLM24.VAS  15-MAR-73  22:04:49.216

03066	100732	
03067	100377	04140	ENABLE EXC     377
      	      	04150	* RING DRIVER
      	      	04160	* SERIALIZES AND DESERIALIZES CHARACTERS FOR 103 DATA SETS
03070	002000	04170	RNGH   JMPM    CRASH           START BAUD SCANNER BEHIND
03071	000504	
03072	000000	04180	RNG    0
03073	103060	04190	       OME     60,RNG1
03074	000562	
03075	103062	04200	       OME     62,RNG1+1
03076	000563	
03077	102060	04210	       IME     60,RNG2
03100	000564	
03101	102062	04220	       IME     62,RNG2+1
03102	000565	
03103	050553	04230	       STA     RNGA
03104	010764	04240	       LDA     EN2
03105	100277	04250	EN2    EXC     277
03106	050746	04260	       STA     ENABLE
03107	070554	04270	       STX     RNGX
03110	010217	04280	       LDA     RGX
03111	120703	04290	       ADD     MASK+2
03112	150317	04300	       ANA     =1774
03113	050217	04310	       STA     RGX
03114	140220	04320	       SUB     SBX
03115	001010	04330	       JAZ     RNGH
03116	000747	
03117	010217	04340	       LDA     RGX
03120	120320	04350	       ADD     =RING
03121	005014	04360	       TAX
03122	010562	04370	       LDA     RNG1
03123	135000	04380	       ERA     0,5
03124	050562	04390	       STA     RNG1
03125	010564	04400	       LDA     RNG2
03126	055000	04410	       STA     0,5
03127	010563	04420	       LDA     RNG1+1
03130	135002	04430	       ERA     2,5
03131	050563	04440	       STA     RNG1+1
03132	010565	04450	       LDA     RNG2+1
03133	055002	05620	       STA     2,5
03134	010566	05630	       LDA     TAM
03135	115001	05640	       ORA     1,5
03136	050566	05650	       STA     TAM
03137	010567	05660	       LDA     TAM2
03140	115003	05670	       ORA     3,5
03141	050567	05680	       STA     TAM2
03142	005001	05690	       TZA
03143	055001	05700	       STA     1,5
03144	055003	05710	       STA     3,5
03145	030554	05730	       LDX     RNGX
03146	010543	05740	       LDA     CLNLOK
03147	001010	05820	       JAZ     RNGC
03150	001037	
03151	010635	05830	       LDA     EN3
PAGE 01  NLM24.VAS  15-MAR-73  22:04:51.750

03152	100077	05840	       EXC     77
03153	050746	05850	       STA     ENABLE
03154	010553	05890	       LDA     RNGA
03155	100377	05900	       EXC     377
03156	001000	05910	       JMP     RNG+.
03157	100751	
03160	005201	05920	RNGC   COM     ,A
03161	050543	05930	       STA     CLNLOK
03162	010751	05940	       LDA     RNG
03163	051566	05950	       STA     CLENRT+1
03164	010635	05970	       LDA     EN3
03165	100077	05980	       EXC     77
03166	050746	05990	       STA     ENABLE
03167	010553	06010	       LDA     RNGA
03170	100377	06020	       EXC     377
      	      	06030	* CLEANUP FOR 201 INTERRUPTS
03171	050557	06040	       STA     CNA
03172	060560	06050	       STB     CNB
03173	070561	06060	       STX     CNX
03174	010527	06070	CLNOUT LDA     OUTLST
03175	001002	06080	       JAP     BUMPT
03176	001250	
03177	001000	06090	       JMP     CLENIN
03200	001261	
      	      	06100	* OUTPUT INTERRUPT CLEANUP ROUTINE  LINE NUMBER IN X
03201	005201	06110	QIO    COM     ,A
03202	055527	06120	       STA     OUTLST,5
03203	015110	06130	       LDA     SWTCHO,5
03204	001004	06140	       JAN     QOH
03205	001200	
03206	004241	06150	       LRLA    1
03207	001004	06160	       JAN     QOE
03210	001132	
03211	004241	06170	       LRLA    1
03212	001004	06180	       JAN     QOC
03213	001116	
      	      	06190	* OUTPUT ONES, AFTER WHICH CHECK BIT 3 OF SWITCH
      	      	06200	* TO SEE WHETHER TO OUTPUT RESET PATTERN OR RETRANSMIT
03214	025521	06210	       LDB     ORC,5
03215	001020	06220	       JBZ     QOB
03216	001104	
03217	005322	06230	       DBR
03220	065521	06240	       STB     ORC,5
03221	005201	06250	QOA    COM     ,A
03222	055471	06260	       STA     NDASW,5
03223	001000	06270	       JMP     CLNOUT
03224	001053	
03225	004241	06280	QOB    LRLA    1
03226	001004	06290	       JAN     QOK
03227	001235	
03230	004343	06300	       LSRA    3
03231	110716	06310	       ORA     MASK+15
03232	055110	06320	       STA     SWTCHO,5
03233	010321	06330	       LDA     =5253
PAGE 01  NLM24.VAS  15-MAR-73  22:04:52.516

03234	055471	06340	       STA     NDASW,5
03235	001000	06350	       JMP     CLNOUT
03236	001053	
      	      	06360	* TRANSMIT SECOND HALF OF RESET PATTERN, THEN CHECK BIT 4 OF SWITCH
      	      	06370	* TO SEE WHETHER TO OUTPUT ONES OR LOOK FOR NEW RECORD
03237	010100	06380	QOC    LDA     MACHNO
03240	055471	06390	       STA     NDASW,5
03241	015110	06400	       LDA     SWTCHO,5
03242	004244	06410	       LRLA    4
03243	001004	06420	       JAN     QOJ+2
03244	001231	
03245	005001	06430	       TZA
03246	055110	06440	       STA     SWTCHO,5
03247	010322	06450	       LDA     =41
03250	055521	06460	       STA     ORC,5
03251	001000	06470	       JMP     CLNOUT
03252	001053	
      	      	06480	* LOOK FOR NEW RECORD TO OUTPUT
03253	015452	06490	QOE    LDA     COS,5
03254	150304	06500	       ANA     =3
03255	    [.m¹