    P R O G R A M   W S S A 4 0 		COBOL 3A(43)-1	 9-OCT-72  09:36		PAGE 1

    0001            IDENTIFICATION DIVISION.
    0002            PROGRAM-ID. WSSA40.
    0003            AUTHOR. BILL MORRISSEY.
    0004            INSTALLATION. PCCI.
    0005            REMARKS. THIS PROGRAM UPDATES THE DAILY SALES MASTER FILE
    0006                     WITH THE CURRENT MONTHS TRANSACTIONS.
    0007            ENVIRONMENT DIVISION.
    0008            CONFIGURATION SECTION.
    0009            SOURCE-COMPUTER. PDP-10. 
    0010            OBJECT-COMPUTER. CENTURY-200, MEMORY SIZE 32768 CHARACTERS.
		                    ^^

***					PERIOD ASSUMED
***					PDP-10 ASSUMED
***					FATAL - IMPROPER PARAGRAPH NAME

    0011            INPUT-OUTPUT SECTION.
    0012            FILE-CONTROL.
    0013            FPLANFILE  0001P1108002                     S
		   1^                                          2^

***					1) FATAL - IMPROPER CLAUSE
***					2) FATAL - IMPROPER CLAUSE

    0014            FMASTERIN  1452S20080FN0400NNSCR      MASTERIN            M01UN
		              1^                                             2^

***					1) FATAL - IMPROPER CLAUSE
***					2) FATAL - IMPROPER CLAUSE

    0015            FDSMMASTER 1452S23250FN3250  SCR      DSMMASTER           M02UN
		              1^                         2^

***					1) FATAL - IMPROPER CLAUSE
***					2) FATAL - IMPROPER CLAUSE

    0016            FSAMASTER  1452D23250FN3250  SCR      SAMASTER            M03UN
		   1^                           2^                           3^

***					1) FATAL - IMPROPER CLAUSE
***					2) FATAL - IMPROPER CLAUSE
***					3) FATAL - IMPROPER CLAUSE

    0017            FDISCTEMP  1322D20018FN0504  WM    002DISCTEMP
		              1^                      2^

***					1) FATAL - IMPROPER CLAUSE
***					2) FATAL - IMPROPER CLAUSE

    0018            F          23
		               ^

***					FATAL - IMPROPER CLAUSE

    0019            F          3D01101      0200
		               ^    P R O G R A M   W S S A 4 0 		COBOL 3A(43)-1	 9-OCT-72  09:36		PAGE 1-1


***					FATAL - IMPROPER CLAUSE

    0020            FPRINTFILE 623 P01136            060
		   1^             2^

***					1) FATAL - IMPROPER CLAUSE
***					2) FATAL - IMPROPER CLAUSE

    0021                SELECT PLANFILE ASSIGN TO NCR682-100.
		                                  ^

***					FATAL - IMPROPER DEVICE NAME

    0022                SELECT PRINTFILE ASSIGN TO NCR640-200.
		                                   ^

***					FATAL - IMPROPER DEVICE NAME

    0023                SELECT MASTERIN ASSIGN TO NCR633-119.
		                                  ^

***					FATAL - IMPROPER DEVICE NAME

    0024                SELECT DSMMASTER ASSIGN TO NCR633-119.
		                                   ^

***					FATAL - IMPROPER DEVICE NAME

    0025                SELECT SAMASTER  ASSIGN TO NCR633-119.
		                                   ^

***					FATAL - IMPROPER DEVICE NAME

    0026                SELECT DISCTEMP ASSIGN TO NCR655-201.
		                                  ^

***					FATAL - IMPROPER DEVICE NAME

    0027            DATA DIVISION.
    0028            FILE SECTION.
    0029            FD  DISCTEMP
		        ^

***					FATAL - VALUE OF ID REQUIRED

    0030                LABEL RECORD IS STANDARD.
    0031            01  DISC-REC.
    0032                03  D-STORE         PIC 99.
    0033                03  D-MG            PIC 99.
    0034                03  D-DEPT          PIC 999.
    0035                03  D-TRANS         PIC S9999999V99 COMP-3.
		                                            ^

***					FATAL - IMPROPER CLAUSE
    P R O G R A M   W S S A 4 0 		COBOL 3A(43)-1	 9-OCT-72  09:36		PAGE 1-2

    0036                03  D-AMOUNT        PIC S999999999V99 COMP-3.
		                                              ^

***					FATAL - IMPROPER CLAUSE

    0037            FD  PLANFILE
    0038                LABEL RECORD IS OMITTED.
    0039            01  PLAN-REC.
    0040                03  P-STORE         PIC 99.
    0041                03  P-INDEX OCCURS 7 TIMES INDEXED  BY PIN.
    0042                    05  P-FIELD     PIC 999.
    0043                    05  P-AMOUNT    PIC S99999999.
    0044            01  DATE-REC.
    0045                03  MO-RUN     PIC 99.
    0046                03  FILLER              PIC X.
    0047                03  LY-JUL              PIC S9(3).
    0048                03  FILLER              PIC 9(2).
    0049                03  DAYS-IN-MONTH       PIC S9(2).
    0050                03  FILLER              PIC X(37).
    0051                03  AST                 PIC XX.
    0052                03  FILLER              PIC X(31).
    0053            01  CHANGE-REC.
    0054                03  C-TRANS    PIC 99.
    0055                03  C-COMP.
    0056                    05  C-STORE    PIC 99.
    0057                    05  C-MG       PIC 99.
    0058                    05  C-DEPT      PIC 999.
    0059                03  C-MO     PIC 99.
    0060                03  C-NO       PIC S9(7).
    0061                03  C-AMOUNT       PIC S9(9)V99.
    0062            FD  SAMASTER
		        ^

***					FATAL - VALUE OF ID REQUIRED

    0063                LABEL RECORD IS STANDARD.
    0064            01  OUT-REC.
		        ^

***					FATAL - A RECORD IN THE FILE SECTION MAY NOT EXCEED 4095 CHARACTERS

    0065                03  X-COMP.
    0066                    05  X-STORE         PIC 99.
    0067                    05  X-MER           PIC 99.
    0068                    05  X-DEPT          PIC 999.
    0069                03  X-LY OCCURS 366 TIMES INDEXED BY INX.
    0070                    05  XT-TOT      PIC S99999  COMP-3.
		                                        ^

***					FATAL - IMPROPER CLAUSE

    0071                    05  XT-AMOUNT   PIC S9(7)V99    COMP-3.
		                                            ^

***					FATAL - IMPROPER CLAUSE
    P R O G R A M   W S S A 4 0 		COBOL 3A(43)-1	 9-OCT-72  09:36		PAGE 1-3

    0072                03  X-YTD           PIC S9(9)V99    COMP-3.
		                                            ^

***					FATAL - IMPROPER CLAUSE

    0073                03  XT-YTD          PIC S9(7)       COMP-3.
		                                            ^

***					FATAL - IMPROPER CLAUSE

    0074                03  PX-YTD          PIC S9(9)V99    COMP-3.
		                                            ^

***					FATAL - IMPROPER CLAUSE

    0075                03  PXT-YTD         PIC S9(7)       COMP-3.
		                                            ^

***					FATAL - IMPROPER CLAUSE

    0076                03  X-PER OCCURS 12 TIMES INDEXED BY PX.
    0077                    05  XP-ID       PIC S99V9.
    0078                03  X-RET OCCURS 12 TIMES INDEXED BY RETX.
    0079                    05  XR-TRANS      PIC S99999   COMP-3.
		                                           ^

***					FATAL - IMPROPER CLAUSE

    0080                    05  XR-AMOUNT       PIC S9(7)V99     COMP-3.
		                                                 ^

***					FATAL - IMPROPER CLAUSE

    0081                03  LY-RET OCCURS 12 TIMES INDEXED BY LYRX.
    0082                    05  LYX-TRANS     PIC S99999   COMP-3.
		                                           ^

***					FATAL - IMPROPER CLAUSE

    0083                    05  LYX-AMOUNT     PIC S9(7)V99    COMP-3.
		                                               ^

***					FATAL - IMPROPER CLAUSE

    0084                03  FILLER       PIC X(67).
    0085            01  P-OUT.
    0086                03  PL-COMP.
    0087                    05  PL-STORE    PIC 99.
    0088                    05  PL-MER      PIC 99.
    0089                    05  PL-DEPT     PIC 999.
    0090                03  PL-IN OCCURS 366 TIMES INDEXED BY PLIN.
    0091                    05  PL-ID       PIC S9(8).
    0092                03  FILLER          PIC X(315).
    0093            FD  DSMMASTER
		        ^
    P R O G R A M   W S S A 4 0 		COBOL 3A(43)-1	 9-OCT-72  09:36		PAGE 1-4

***					FATAL - VALUE OF ID REQUIRED

    0094                LABEL RECORD IS STANDARD.
    0095            01  TRANS-REC.
		        ^

***					FATAL - A RECORD IN THE FILE SECTION MAY NOT EXCEED 4095 CHARACTERS

    0096                03  T-COMP.
    0097                    05  STORE           PIC 99.
    0098                    05  MERCH-GRP       PIC 99.
    0099                    05  DEPT            PIC 999.
    0100                03  T-LY OCCURS 366 TIMES INDEXED BY TX.
    0101                    05  TY-ID           PIC S9(5)       COMP-3.
		                                                ^

***					FATAL - IMPROPER CLAUSE

    0102                    05  TY-AMT          PIC S9(7)V99    COMP-3.
		                                                ^

***					FATAL - IMPROPER CLAUSE

    0103                03  T-YTD               PIC S9(9)V99    COMP-3.
		                                                ^

***					FATAL - IMPROPER CLAUSE

    0104                03  XTYTD              PIC S9(7)       COMP-3.
		                                               ^

***					FATAL - IMPROPER CLAUSE

    0105                03  XYTD               PIC S9(9)V99    COMP-3.
		                                               ^

***					FATAL - IMPROPER CLAUSE

    0106                03  TX-YTD              PIC S9(7)       COMP-3.
		                                                ^

***					FATAL - IMPROPER CLAUSE

    0107                03  T-PER OCCURS 12 TIMES INDEXED BY TPX.
    0108                    05  PER-ID          PIC S99V9.
    0109                03  XO-RET OCCURS 12 TIMES INDEXED BY ROX.
    0110                    05  XO-TRANS     PIC S99999   COMP-3.
		                                          ^

***					FATAL - IMPROPER CLAUSE

    0111                    05  XO-AMOUNT       PIC S9(7)V99   COMP-3.
		                                               ^

***					FATAL - IMPROPER CLAUSE
    P R O G R A M   W S S A 4 0 		COBOL 3A(43)-1	 9-OCT-72  09:36		PAGE 1-5

    0112                03  LYXO-RET OCCURS 12 TIMES INDEXED BY LYOX.
    0113                    05  LYXO-TRANS     PIC S99999  COMP-3.
		                                           ^

***					FATAL - IMPROPER CLAUSE

    0114                    05  LYXO-AMOUNT     PIC S9(7)V99   COMP-3.
		                                               ^

***					FATAL - IMPROPER CLAUSE

    0115                03  FILLER     PIC X(67).
    0116            01  TPLAN-REC.
    0117                03  TP-COMP.
    0118                    05  STORE-A         PIC 99.
    0119                    05  MER-A           PIC 99.
    0120                    05  DEPT-A          PIC 999.
    0121                03  TP-LY OCCURS 366 TIMES INDEXED BY TPLX.
    0122                    04  TP-X.
    0123                    05  TP-ID           PIC 9(8).
    0124                03  FILLER              PIC X(315).
    0125            FD  MASTERIN
		        ^

***					FATAL - VALUE OF ID REQUIRED

    0126                LABEL RECORD IS STANDARD.
    0127            01  NEW-REC.
    0128                03  MAST-REC.
    0129                    05  TRAN-CD-N       PIC 99.
    0130                    05  JUL-DATE-N      PIC 999.
    0131                    05  STORE-N         PIC 99.
    0132                    05  DEPT-N          PIC 999.
    0133                    05  MER-GRP-N       PIC 99.
    0134                    05  TRANS-C-N       PIC S9(5).
    0135                    05  TRANS-AMT-N     PIC S9(5)V99.
    0136                    05  FILLER          PIC X(56).
    0137            FD  PRINTFILE
    0138                LABEL RECORD IS OMITTED.
    0139            01  PRINT-REC.
    0140                03  P-TRANS-AREA        PIC X(80).
    0141                03  ERROR-AREA          PIC X(52).
    0142            WORKING-STORAGE SECTION.
    0143            01  E-COMP.
    0144                03  E-STORE             PIC 99.
    0145                03  E-MERCH-GRP         PIC 99.
    0146                03  E-DEPT              PIC 999.
    0147            01  SWITCH-P                PIC 9       VALUE ZERO.
    0148            01  STORED-DATE             PIC  999.
    0149            01  STORED-DA-MO            PIC  99.
    0150            01  SWITCHX                 PIC 9       VALUE ZERO.
    0151            01  E-COMP-STORE.
    0152                03  EC-STORE            PIC 99.
    0153                03  EC-MER              PIC 99.
    0154                03  EC-DEPT             PIC 999.
    0155            01  Z-COMP              PIC 9(7).    P R O G R A M   W S S A 4 0 		COBOL 3A(43)-1	 9-OCT-72  09:36		PAGE 1-6

    0156            01  Y-COMP              PIC 9(7).
    0157            01  DAY-MO              PIC 99.
    0158            01 F-STORE              PIC 99       VALUE ZERO.
    0159            01  IN-COUNT            PIC 99.
    0160            PROCEDURE DIVISION.
    0161            OPEN-SECTION.
    0162                OPEN INPUT PLANFILE, MASTERIN, DSMMASTER.
    0163                OPEN OUTPUT SAMASTER, DISCTEMP, PRINTFILE.
    0164                READ PLANFILE AT END GO TO EOF-CARDS.
    0165                IF AST NOT EQUAL :**: DISPLAY :NO DATE CARD - RESTART RUN:
		                         ^^

***					FATAL - INVALID CHARACTER
***					SYNTAX SCAN SUSPENDED AT THIS CHARACTER
***					FATAL - CANNOT BE A DATA-NAME

    0166                    STOP RUN.
    0167                MOVE DATE-REC TO OUT-REC  WRITE OUT-REC
		 1^    2^

***					1) SYNTAX SCAN RESUMED AT THIS CHARACTER
***					2) FATAL - STATEMENT EXPECTED

    0168                MOVE LY-JUL TO STORED-DATE
    0169                MOVE DAYS-IN-MONTH TO DAY-MO.
    0170                MOVE DAY-MO TO STORED-DA-MO
    0171                READ DSMMASTER AT END GO TO END-MAST.
    0172                READ DSMMASTER AT END GO TO END-MAST.
    0173            READ-TRANS.
    0174                READ MASTERIN AT END GO TO END-TRANS.
    0175                IF MER-GRP-N EQ 90 OR 35 OR 30
		                     ^

***					SYNTAX SCAN SUSPENDED AT THIS CHARACTER
***					FATAL - RELATIONAL OPERATOR EXPECTED

    0176                    GO TO READ-TRANS.
    0177                IF TRAN-CD-N EQ 99
		 1^    2^           3^

***					1) SYNTAX SCAN RESUMED AT THIS CHARACTER
***					2) FATAL - STATEMENT EXPECTED
***					3) SYNTAX SCAN SUSPENDED AT THIS CHARACTER
***					3) FATAL - RELATIONAL OPERATOR EXPECTED

    0178                    GO TO READ-TRANS.
    0179                READ PLANFILE AT END GO TO FIRST-EOF.
		 1^    2^

***					1) SYNTAX SCAN RESUMED AT THIS CHARACTER
***					2) FATAL - STATEMENT EXPECTED

    0180                GO TO CHECK-UP.
    0181            READ-DSM.
    0182                READ DSMMASTER AT END GO TO END-MAST.
    0183            CHECK-UP.    P R O G R A M   W S S A 4 0 		COBOL 3A(43)-1	 9-OCT-72  09:36		PAGE 1-7

    0184                IF F-STORE EQ 99 GO TO CHECK-COMP.
		                   ^

***					SYNTAX SCAN SUSPENDED AT THIS CHARACTER
***					FATAL - RELATIONAL OPERATOR EXPECTED

    0185                IF DEPT-A EQ ZEROS
		 1^    2^        3^

***					1) SYNTAX SCAN RESUMED AT THIS CHARACTER
***					2) FATAL - STATEMENT EXPECTED
***					3) SYNTAX SCAN SUSPENDED AT THIS CHARACTER
***					3) FATAL - RELATIONAL OPERATOR EXPECTED

    0186                    PERFORM PUT-PLAN THRU PUT-PLAN-EXIT.
    0187            CHECK-COMP.
		  ^ ^

***					SYNTAX SCAN RESUMED AT THIS CHARACTER
***					FATAL - STATEMENT EXPECTED

    0188                MOVE STORE-N TO E-STORE.
    0189                MOVE DEPT-N TO E-DEPT.
    0190                MOVE MER-GRP-N TO E-MERCH-GRP.
    0191                IF T-COMP GT E-COMP
		                  ^

***					SYNTAX SCAN SUSPENDED AT THIS CHARACTER
***					FATAL - RELATIONAL OPERATOR EXPECTED

    0192                MOVE LOW-VALUES TO OUT-REC
    0193                 MOVE E-COMP TO E-COMP-STORE
    0194                    PERFORM PSEUDO-REC
    0195                    PERFORM PUT-TRANSACTION THRU PUT-TRANSACTION-EXIT
    0196                    GO TO CHECK-UP.
    0197                IF T-COMP LT E-COMP
	yh ç o`}ƒp]0    Œ	`^]Œ    Å             
x    Ç            (       IN\%`@                                   o`}ƒ                 /‰   É -m3ı                                                                                                                                                                                                                                                                                                                                                                                                                                                                                                       ˇ  Ã MOVE LOW-VALUES TO OUT-REC.
    0204                PERFORM PUT-TRANS THRU PUT-TRANS-EXIT.
    0205                GO TO CHECK-UP.    P R O G R A M   W S S A 4 0 		COBOL 3A(43)-1	 9-OCT-72  09:36		PAGE 1-8

    0206            READ-MAS.
    0207                READ DSMMASTER AT END GO TO END-MAST.
    0208            PUT-PLAN.
    0209                 SET TPLX TO 1.
    0210                PERFORM TP-ID-FIX 366 TIMES.
    0211            PUT-PLAN-1.
    0212                IF P-STORE LT STORE-A
		                   ^

***					SYNTAX SCAN SUSPENDED AT THIS CHARACTER
***					FATAL - RELATIONAL OPERATOR EXPECTED

    0213                    PERFORM PLAN-ERROR THRU PLAN-ERROR-EXIT
    0214                    GO TO PUT-PLAN-2.
    0215                IF P-STORE GT STORE-A AND SWITCH-P EQ 1
		 1^    2^         3^

***					1) SYNTAX SCAN RESUMED AT THIS CHARACTER
***					2) FATAL - STATEMENT EXPECTED
***					3) SYNTAX SCAN SUSPENDED AT THIS CHARACTER
***					3) FATAL - RELATIONAL OPERATOR EXPECTED

    0216                    GO TO RESET-P.
    0217           IF P-STORE GT STORE-A
		 1^    2^         3^

***					1) SYNTAX SCAN RESUMED AT THIS CHARACTER
***					2) FATAL - STATEMENT EXPECTED
***					3) SYNTAX SCAN SUSPENDED AT THIS CHARACTER
***					3) FATAL - RELATIONAL OPERATOR EXPECTED

    0218                    GO TO PUT-PLAN-EXIT.
    0219                SET PIN TO 1.
		 1^    2^

***					1) SYNTAX SCAN RESUMED AT THIS CHARACTER
***					2) FATAL - STATEMENT EXPECTED

    0220            RE-CYCLE.
    0221                IF P-FIELD (PIN) EQ SPACES
		                         ^

***					SYNTAX SCAN SUSPENDED AT THIS CHARACTER
***					FATAL - RELATIONAL OPERATOR EXPECTED

    0222                    GO TO PUT-PLAN-2.
    0223                SET TPLX TO P-FIELD (PIN).
		 1^    2^

***					1) SYNTAX SCAN RESUMED AT THIS CHARACTER
***					2) FATAL - STATEMENT EXPECTED

    0224                MOVE P-AMOUNT (PIN) TO TP-ID (TPLX).
    0225                MOVE 1 TO SWITCH-P.
    0226                SET PIN UP BY 1.
    0227                GO TO RE-CYCLE.    P R O G R A M   W S S A 4 0 		COBOL 3A(43)-1	 9-OCT-72  09:36		PAGE 1-9

    0228            PUT-PLAN-2.
    0229                READ PLANFILE AT END GO TO EOF-CARDS.
    0230                GO TO PUT-PLAN-1.
    0231            RESET-P.
    0232                WRITE P-OUT FROM TPLAN-REC.
    0233                READ DSMMASTER AT END GO TO END-MAST.
    0234                MOVE ZERO TO SWITCH-P.
    0235            PUT-PLAN-EXIT. EXIT.
    0236            TP-ID-FIX.
    0237                IF TP-X (TPLX) EQ LOW-VALUES
		                       ^

***					SYNTAX SCAN SUSPENDED AT THIS CHARACTER
***					FATAL - RELATIONAL OPERATOR EXPECTED

    0238                    MOVE ZEROS TO TP-ID (TPLX).
    0239                SET TPLX UP BY 1.
		 1^    2^

***					1) SYNTAX SCAN RESUMED AT THIS CHARACTER
***					2) FATAL - STATEMENT EXPECTED

    0240            PUT-MASTER.
    0241                PERFORM CHECK-UPDATE.
    0242                WRITE OUT-REC FROM TRANS-REC.
    0243                MOVE ZEROS TO SWITCHX.
    0244            PUT-MASTER-EXIT.
    0245            PUT-LY-MONTH.
		  ^ ^

***					PERIOD ASSUMED
***					FATAL - STATEMENT EXPECTED

    0246                SET LYOX, ROX TO MO-RUN.
    0247                MOVE XO-TRANS (ROX) TO LYXO-TRANS (LYOX).
    0248                MOVE XO-AMOUNT (ROX) TO LYXO-AMOUNT (LYOX).
    0249                MOVE ZEROS TO XO-TRANS (ROX).
    0250                MOVE ZEROS TO XO-AMOUNT (ROX).
    0251                MOVE ZEROS TO D-TRANS, D-AMOUNT.
    0252                MOVE DAY-MO TO STORED-DA-MO.
    0253                SUBTRACT 1 FROM STORED-DA-MO.
    0254                SET TX TO STORED-DATE.
    0255            RE-DO.
    0256                IF STORED-DA-MO EQ ZERO
		                        ^

***					SYNTAX SCAN SUSPENDED AT THIS CHARACTER
***					FATAL - RELATIONAL OPERATOR EXPECTED

    0257                    GO TO SET-LY.
    0258                ADD TY-ID (TX) TO D-TRANS.
		 1^    2^

***					1) SYNTAX SCAN RESUMED AT THIS CHARACTER
***					2) FATAL - STATEMENT EXPECTED
    P R O G R A M   W S S A 4 0 		COBOL 3A(43)-1	 9-OCT-72  09:36		PAGE 1-10

    0259                ADD TY-AMT (TX) TO D-AMOUNT.
    0260                MOVE ZEROS TO TY-ID (TX).
    0261                MOVE ZEROS TO TY-AMT (TX).
    0262                SUBTRACT 1 FROM STORED-DA-MO.
    0263                SET TX UP BY 1.
    0264                GO TO RE-DO.
    0265            SET-LY.
    0266                MOVE STORE TO D-STORE.
    0267                MOVE MERCH-GRP TO D-MG.
    0268                MOVE DEPT TO D-DEPT.
    0269                WRITE DISC-REC.
    0270                ADD D-TRANS TO XT-YTD.
    0271                ADD D-AMOUNT TO X-YTD.
    0272                MOVE 1 TO SWITCHX.
    0273                MOVE DAY-MO TO STORED-DA-MO.
    0274                MOVE E-COMP TO E-COMP-STORE.
    0275            SET-LY-EXIT. EXIT.
    0276            PUT-TRANS.
    0277                PERFORM CHECK-UPDATE.
    0278                SET TX TO STORED-DATE.
    0279            PUT-TRANS-A.
    0280                ADD 1 TO IN-COUNT.
    0281                IF IN-COUNT GT STORED-DA-MO
		                    ^

***					SYNTAX SCAN SUSPENDED AT THIS CHARACTER
***					FATAL - RELATIONAL OPERATOR EXPECTED

    0282                    GO TO PUT-TRANS-1.
    0283                MOVE ZEROS TO TY-ID (TX), TY-AMT (TX).
		 1^    2^

***					1) SYNTAX SCAN RESUMED AT THIS CHARACTER
***					2) FATAL - STATEMENT EXPECTED

    0284                SET TX UP BY 1.
    0285                GO TO PUT-TRANS-A.
    0286            PUT-TRANS-1.
    0287                IF E-COMP NOT EQUAL E-COMP-STORE GO TO PUT-REC.
    0288                IF JUL-DATE-N EQ 61 OR JUL-DATE-N GT 61
		                      ^

***					SYNTAX SCAN SUSPENDED AT THIS CHARACTER
***					FATAL - RELATIONAL OPERATOR EXPECTED

    0289                    SET TX TO JUL-DATE-N
    0290                    SET TX DOWN BY 1
    0291                GO TO SET-IT-UP.
    0292                SET TX TO JUL-DATE-N.
		 1^    2^

***					1) SYNTAX SCAN RESUMED AT THIS CHARACTER
***					2) FATAL - STATEMENT EXPECTED

    0293            SET-IT-UP.
    0294                IF TRAN-CD-N EQ 02
		                     ^    P R O G R A M   W S S A 4 0 		COBOL 3A(43)-1	 9-OCT-72  09:36		PAGE 1-11


***					SYNTAX SCAN SUSPENDED AT THIS CHARACTER
***					FATAL - RELATIONAL OPERATOR EXPECTED

    0295                SET ROX TO MO-RUN
    0296                ADD TRANS-C-N TO XO-TRANS (ROX)
    0297                ADD TRANS-AMT-N TO XO-AMOUNT (ROX)
    0298                GO TO READ-TRANS-2.
    0299                IF TRAN-CD-N EQ 01
		 1^    2^           3^

***					1) SYNTAX SCAN RESUMED AT THIS CHARACTER
***					2) FATAL - STATEMENT EXPECTED
***					3) SYNTAX SCAN SUSPENDED AT THIS CHARACTER
***					3) FATAL - RELATIONAL OPERATOR EXPECTED

    0300                ADD TRANS-C-N   TO TY-ID (TX)
    0301                ADD TRANS-AMT-N TO TY-AMT (TX).
    0302            READ-TRANS-2.
		  ^ ^

***					SYNTAX SCAN RESUMED AT THIS CHARACTER
***					FATAL - STATEMENT EXPECTED

    0303                READ MASTERIN AT END GO TO END-PUT.
    0304                IF TRAN-CD-N EQ 99
		                     ^

***					SYNTAX SCAN SUSPENDED AT THIS CHARACTER
***					FATAL - RELATIONAL OPERATOR EXPECTED

    0305                    GO TO READ-TRANS-2.
    0306                IF MER-GRP-N EQ 90 OR 35 OR 30
		 1^    2^           3^

***					1) SYNTAX SCAN RESUMED AT THIS CHARACTER
***					2) FATAL - STATEMENT EXPECTED
***					3) SYNTAX SCAN SUSPENDED AT THIS CHARACTER
***					3) FATAL - RELATIONAL OPERATOR EXPECTED

    0307                    GO TO READ-TRANS-2.
    0308                MOVE STORE-N TO E-STORE.
		 1^    2^

***					1) SYNTAX SCAN RESUMED AT THIS CHARACTER
***					2) FATAL - STATEMENT EXPECTED

    0309                MOVE DEPT-N TO E-DEPT.
    0310                MOVE MER-GRP-N TO E-MERCH-GRP.
    0311                GO TO PUT-TRANS-1.
    0312            PUT-REC.
    0313                WRITE OUT-REC FROM TRANS-REC.
    0314                READ DSMMASTER AT END GO TO END-MAST.
    0315                MOVE E-COMP TO E-COMP-STORE.
    0316                MOVE ZEROS TO SWITCHX.
    0317                MOVE ZEROS TO IN-COUNT.    P R O G R A M   W S S A 4 0 		COBOL 3A(43)-1	 9-OCT-72  09:36		PAGE 1-12

    0318            PUT-TRANS-EXIT. EXIT.
    0319            PSEUDO-REC.
    0320                MOVE E-STORE TO D-STORE.
    0321                MOVE E-MERCH-GRP TO D-MG.
    0322                MOVE E-DEPT TO D-DEPT.
    0323                MOVE ZEROS TO D-TRANS, D-AMOUNT.
    0324                WRITE DISC-REC.
    0325            TRANS-ERROR.
    0326                MOVE NEW-REC TO P-TRANS-AREA.
    0327                MOVE :THIS TRANSACTION HAS NO MATCHING RECORDS ON MASTER:
		             ^^

***					FATAL - INVALID CHARACTER
***					SYNTAX SCAN SUSPENDED AT THIS CHARACTER
***					FATAL - NOT DEFINED

    0328                    TO ERROR-AREA.
    0329                WRITE PRINT-REC AFTER 1.
		  ^ 

***					SYNTAX SCAN RESUMED AT THIS CHARACTER

    0330                MOVE SPACES TO PRINT-REC.
    0331            TRANS-ERROR-EXIT. EXIT.
    0332            CHECK-UPDATE.
    0333                IF C-COMP NOT EQ E-COMP
		                      ^

***					SYNTAX SCAN SUSPENDED AT THIS CHARACTER
***					FATAL - RELATIONAL OPERATOR EXPECTED

    0334                    GO TO CHECK-UPDATE-EXIT.
    0335                IF C-TRANS EQ 55
		 1^    2^         3^

***					1) SYNTAX SCAN RESUMED AT THIS CHARACTER
***					2) FATAL - STATEMENT EXPECTED
***					3) SYNTAX SCAN SUSPENDED AT THIS CHARACTER
***					3) FATAL - RELATIONAL OPERATOR EXPECTED

    0336                    MOVE C-NO TO TX-YTD
    0337                MOVE C-AMOUNT TO XYTD.
    0338                IF C-TRANS EQ 56
		 1^    2^         3^

***					1) SYNTAX SCAN RESUMED AT THIS CHARACTER
***					2) FATAL - STATEMENT EXPECTED
***					3) SYNTAX SCAN SUSPENDED AT THIS CHARACTER
***					3) FATAL - RELATIONAL OPERATOR EXPECTED

    0339                    MOVE C-NO TO XTYTD
    0340                    MOVE C-AMOUNT TO T-YTD.
    0341                IF C-TRANS EQ 57
		 1^    2^         3^

***					1) SYNTAX SCAN RESUMED AT THIS CHARACTER    P R O G R A M   W S S A 4 0 		COBOL 3A(43)-1	 9-OCT-72  09:36		PAGE 1-13

***					2) FATAL - STATEMENT EXPECTED
***					3) SYNTAX SCAN SUSPENDED AT THIS CHARACTER
***					3) FATAL - RELATIONAL OPERATOR EXPECTED

    0342                    SET ROX TO C-MO
    0343                    MOVE C-NO TO XO-TRANS (ROX)
    0344                    MOVE C-AMOUNT TO XO-AMOUNT (ROX).
    0345                IF C-TRANS EQ 58
		 1^    2^         3^

***					1) SYNTAX SCAN RESUMED AT THIS CHARACTER
***					2) FATAL - STATEMENT EXPECTED
***					3) SYNTAX SCAN SUSPENDED AT THIS CHARACTER
***					3) FATAL - RELATIONAL OPERATOR EXPECTED

    0346                    SET LYOX TO C-MO
    0347                    MOVE C-NO TO LYXO-TRANS (LYOX)
    0348                    MOVE C-AMOUNT TO LYXO-AMOUNT (LYOX).
    0349                READ PLANFILE AT END
		 1^    2^

***					1) SYNTAX SCAN RESUMED AT THIS CHARACTER
***					2) FATAL - STATEMENT EXPECTED

    0350                    MOVE :99: TO F-STORE
		                1^ 2^

***					1) FATAL - INVALID CHARACTER
***					2) FATAL - INVALID CHARACTER

    0351                    GO TO CHECK-UPDATE-EXIT.
    0352            CHECK-UPDATE-EXIT. EXIT.
    0353            PUT-TRANSACTION.
    0354                IF C-COMP NOT EQ E-COMP
		                      ^

***					SYNTAX SCAN SUSPENDED AT THIS CHARACTER
***					FATAL - RELATIONAL OPERATOR EXPECTED

    0355                    GO TO PUT-TRANSACTION1.
    0356                IF C-TRANS EQ 55
		 1^    2^         3^

***					1) SYNTAX SCAN RESUMED AT THIS CHARACTER
***					2) FATAL - STATEMENT EXPECTED
***					3) SYNTAX SCAN SUSPENDED AT THIS CHARACTER
***					3) FATAL - RELATIONAL OPERATOR EXPECTED

    0357                    MOVE C-NO TO PXT-YTD
    0358                    MOVE C-AMOUNT TO PX-YTD.
    0359                IF C-TRANS EQ 56
		 1^    2^         3^

***					1) SYNTAX SCAN RESUMED AT THIS CHARACTER
***					2) FATAL - STATEMENT EXPECTED
***					3) SYNTAX SCAN SUSPENDED AT THIS CHARACTER    P R O G R A M   W S S A 4 0 		COBOL 3A(43)-1	 9-OCT-72  09:36		PAGE 1-14

***					3) FATAL - RELATIONAL OPERATOR EXPECTED

    0360                    MOVE C-NO TO XT-YTD
    0361                    MOVE C-AMOUNT TO X-YTD.
    0362                IF C-TRANS EQ 57
		 1^    2^         3^

***					1) SYNTAX SCAN RESUMED AT THIS CHARACTER
***					2) FATAL - STATEMENT EXPECTED
***					3) SYNTAX SCAN SUSPENDED AT THIS CHARACTER
***					3) FATAL - RELATIONAL OPERATOR EXPECTED

    0363                    SET RETX TO C-MO
    0364                    MOVE C-NO TO XR-TRANS (RETX)
    0365                    MOVE C-AMOUNT TO XR-AMOUNT (RETX).
    0366                 IF C-TRANS EQ 58
		 1^     2^         3^

***					1) SYNTAX SCAN RESUMED AT THIS CHARACTER
***					2) FATAL - STATEMENT EXPECTED
***					3) SYNTAX SCAN SUSPENDED AT THIS CHARACTER
***					3) FATAL - RELATIONAL OPERATOR EXPECTED

    0367                    SET LYRX TO C-MO
    0368                    MOVE C-NO TO LYX-TRANS (LYRX)
    0369                    MOVE C-AMOUNT TO LYX-AMOUNT (LYRX).
    0370                READ PLANFILE AT END
		 1^    2^

***					1) SYNTAX SCAN RESUMED AT THIS CHARACTER
***					2) FATAL - STATEMENT EXPECTED

    0371                    MOVE :99: TO F-STORE
		                1^ 2^

***					1) FATAL - INVALID CHARACTER
***					2) FATAL - INVALID CHARACTER

    0372                    GO TO PUT-TRANSACTION1.
    0373            PUT-TRANSACTION1.
    0374                IF E-COMP NOT EQ E-COMP-STORE
		                      ^

***					SYNTAX SCAN SUSPENDED AT THIS CHARACTER
***					FATAL - RELATIONAL OPERATOR EXPECTED

    0375                    GO TO PUT-EREC.
    0376                IF JUL-DATE-N EQ 61 OR JUL-DATE-N GT 61
		 1^    2^            3^

***					1) SYNTAX SCAN RESUMED AT THIS CHARACTER
***					2) FATAL - STATEMENT EXPECTED
***					3) SYNTAX SCAN SUSPENDED AT THIS CHARACTER
***					3) FATAL - RELATIONAL OPERATOR EXPECTED

    0377                    SET INX TO JUL-DATE-N    P R O G R A M   W S S A 4 0 		COBOL 3A(43)-1	 9-OCT-72  09:36		PAGE 1-15

    0378                    SET INX DOWN BY 1
    0379                    GO TO SET-COUNT.
    0380                 SET INX TO JUL-DATE-N.
		 1^     2^

***					1) SYNTAX SCAN RESUMED AT THIS CHARACTER
***					2) FATAL - STATEMENT EXPECTED

    0381            SET-COUNT.
    0382                IF TRAN-CD-N EQ TO 02
		                     ^

***					SYNTAX SCAN SUSPENDED AT THIS CHARACTER
***					FATAL - RELATIONAL OPERATOR EXPECTED

    0383                SET RETX TO MO-RUN
    0384                ADD TRANS-C-N TO XR-TRANS (RETX)
    0385                 ADD TRANS-AMT-N TO XR-AMOUNT (RETX)
    0386                GO TO READ-T.
    0387                IF TRAN-CD-N EQ 01
		 1^    2^           3^

***					1) SYNTAX SCAN RESUMED AT THIS CHARACTER
***					2) FATAL - STATEMENT EXPECTED
***					3) SYNTAX SCAN SUSPENDED AT THIS CHARACTER
***					3) FATAL - RELATIONAL OPERATOR EXPECTED

    0388                ADD TRANS-AMT-N TO XT-AMOUNT (INX)
    0389                ADD TRANS-C-N TO XT-TOT (INX).
    0390            READ-T.
		  ^ ^

***					SYNTAX SCAN RESUMED AT THIS CHARACTER
***					FATAL - STATEMENT EXPECTED

    0391                READ MASTERIN AT END GO TO PUT-TRAN-END.
    0392                 IF TRAN-CD-N EQ 99
		                      ^

***					SYNTAX SCAN SUSPENDED AT THIS CHARACTER
***					FATAL - RELATIONAL OPERATOR EXPECTED

    0393                    GO TO READ-T.
    0394                 IF MER-GRP-N EQ 90 OR 35 OR 30
		 1^     2^           3^

***					1) SYNTAX SCAN RESUMED AT THIS CHARACTER
***					2) FATAL - STATEMENT EXPECTED
***					3) SYNTAX SCAN SUSPENDED AT THIS CHARACTER
***					3) FATAL - RELATIONAL OPERATOR EXPECTED

    0395                    GO TO READ-T.
    0396                MOVE MER-GRP-N TO E-MERCH-GRP.
		 1^    2^

***					1) SYNTAX SCAN RESUMED AT THIS CHARACTER    P R O G R A M   W S S A 4 0 		COBOL 3A(43)-1	 9-OCT-72  09:36		PAGE 1-16

***					2) FATAL - STATEMENT EXPECTED

    0397                MOVE DEPT-N TO E-DEPT.
    0398                MOVE STORE-N TO E-STORE.
    0399                GO TO PUT-TRANSACTION1.
    0400            PUT-EREC.
    0401                MOVE EC-STORE TO X-STORE.
    0402                MOVE EC-DEPT TO X-DEPT.
    0403                MOVE EC-MER TO X-MER.
    0404                WRITE OUT-REC.
    0405            PUT-TRANSACTION-EXIT. EXIT.
    0406            PLAN-ERROR.
    0407                MOVE PLAN-REC TO P-TRANS-AREA.
    0408                MOVE :PLAN TRANSACTION HAS NO MATCHING RECORDS ON MASTER:
		             ^^

***					FATAL - INVALID CHARACTER
***					SYNTAX SCAN SUSPENDED AT THIS CHARACTER
***					FATAL - NOT DEFINED

    0409                    TO ERROR-AREA.
    0410                WRITE PRINT-REC AFTER 1.
		  ^ 

***					SYNTAX SCAN RESUMED AT THIS CHARACTER

    0411                MOVE SPACES TO PRINT-REC.
    0412            PLAN-ERROR-EXIT.
    0413            EOF-CARDS.
		  ^ ^

***					PERIOD ASSUMED
***					FATAL - STATEMENT EXPECTED

    0414                WRITE P-OUT FROM TPLAN-REC.
    0415            FIRST-EOF.
    0416                MOVE 99 TO F-STORE.
    0417                 READ DSMMASTER AT END GO TO END-MAST.
    0418                 IF T-COMP EQ ZEROS
		                   ^

***					SYNTAX SCAN SUSPENDED AT THIS CHARACTER
***					FATAL - RELATIONAL OPERATOR EXPECTED

    0419                    GO TO FIRST-EOF.
    0420                    GO TO CHECK-COMP.
		 1^        2^

***					1) SYNTAX SCAN RESUMED AT THIS CHARACTER
***					2) FATAL - STATEMENT EXPECTED

    0421            END-TRANS.
    0422                IF Z-COMP EQ 9999999
		                  ^

***					SYNTAX SCAN SUSPENDED AT THIS CHARACTER    P R O G R A M   W S S A 4 0 		COBOL 3A(43)-1	 9-OCT-72  09:36		PAGE 1-17

***					FATAL - RELATIONAL OPERATOR EXPECTED

    0423                    CLOSE PLANFILE, MASTERIN, DSMMASTER,
    0424                          SAMASTER, DISCTEMP, PRINTFILE
    0425                STOP RUN.
    0426                MOVE 9999999 TO Y-COMP.
		 1^    2^

***					1) SYNTAX SCAN RESUMED AT THIS CHARACTER
***					2) FATAL - STATEMENT EXPECTED

    0427            READ-END-MAST.
    0428                READ DSMMASTER AT END GO TO END-MAST.
    0429                PERFORM PUT-MASTER THRU PUT-MASTER-EXIT.
    0430                PERFORM PUT-LY-MONTH THRU SET-LY-EXIT.
    0431                GO TO READ-END-MAST.
    0432            END-MAST.
    0433                IF Y-COMP EQ 9999999
		                  ^

***					SYNTAX SCAN SUSPENDED AT THIS CHARACTER
***					FATAL - RELATIONAL OPERATOR EXPECTED

    0434                    CLOSE PLANFILE, MASTERIN, DSMMASTER
    0435                          SAMASTER, DISCTEMP, PRINTFILE
    0436                STOP RUN.
    0437                MOVE 9999999 TO Z-COMP.
		 1^    2^

***					1) SYNTAX SCAN RESUMED AT THIS CHARACTER
***					2) FATAL - STATEMENT EXPECTED

    0438            READ-END-TRANS.
    0439                READ MASTERIN AT END GO TO END-TRANS.
    0440                IF TRAN-CD-N EQ 99
		                     ^

***					SYNTAX SCAN SUSPENDED AT THIS CHARACTER
***					FATAL - RELATIONAL OPERATOR EXPECTED

    0441                    GO TO READ-END-TRANS.
    0442                MOVE E-COMP TO E-COMP-STORE.
		 1^    2^

***					1) SYNTAX SCAN RESUMED AT THIS CHARACTER
***					2) FATAL - STATEMENT EXPECTED

    0443                MOVE LOW-VALUES TO OUT-REC.
    0444                PERFORM PUT-TRANSACTION THRU PUT-TRANSACTION-EXIT.
    0445                GO TO READ-END-TRANS.
    0446            PUT-TRAN-END.
    0447                MOVE EC-STORE TO X-STORE.
    0448                MOVE EC-DEPT TO X-DEPT.
    0449                MOVE EC-MER TO X-MER.
    0450                WRITE OUT-REC.
    0451                GO TO END-TRANS.    P R O G R A M   W S S A 4 0 		COBOL 3A(43)-1	 9-OCT-72  09:36		PAGE 1-18

    0452            END-PUT.
    0453                WRITE OUT-REC FROM TRANS-REC.
    0454                GO TO END-TRANS.    P R O G R A M   W S S A 4 0 		COBOL 3A(43)-1	 9-OCT-72  09:36		PAGE W-1

WARNINGS:

    0270  LEAST SIGNIFICANT DIGITS TRUNCATED ON XT-YTD


139 FATAL ERRORS, 87 WARNINGS
  )YUb