    P R O G R A M   T Y M I O . 		COBOL 3A(43)-1	30-MAR-72  17:32		PAGE 1

    0001   00010  
    0002   00020    IDENTIFICATION DIVISION.
    0003   00030    PROGRAM-ID. TYMIO-CBL-VERSION.
    0004   00040    ENVIRONMENT DIVISION.
    0005   00050    CONFIGURATION SECTION.
    0006   00060    INPUT-OUTPUT SECTION.
    0007   00070    FILE-CONTROL.
    0008   00080    SELECT FOOBAR ASSIGN TO DSK.
    0009   00090    DATA DIVISION.
    0010   00100    FILE SECTION.
    0011   00110    FD FOOBAR   
    0012   00120    VALUE OF IDENTIFICATION IS EXTERNAL-FILE-NAME
    0013   00130    DATA RECORD IS ZOT.
    0014   00140    01 ZOT USAGE IS DISPLAY-7.
    0015   00150     02 ZOT1 PICTURE 99999999 OCCURS 30 TIMES.
    0016   00160    WORKING-STORAGE SECTION.
    0017   00170    77 L1 USAGE INDEX.
    0018   00180    77 L2 USAGE INDEX.
    0019   00190    77 EXTERNAL-FILE-NAME PICTURE X(9).
    0020   00200    PROCEDURE DIVISION.
    0021   00210    BEGIN-AT-THE-BEGINNING.
    0022   00220    DISPLAY "START WRITE".
    0023   00230           MOVE "GOSTOHELL" TO EXTERNAL-FILE-NAME.
    0024   00240           OPEN OUTPUT FOOBAR.
    0025   00250           SET L2 TO 1.
    0026   00260    LOOP0.
    0027   00270           SET L1 TO 1.
    0028   00280    LOOP1.
    0029   00290           COMPUTE ZOT1(L1) = L1 + 30 * L2.
    0030   00300           SET L1 UP BY 1.
    0031   00310           IF L1 EQUALS 31 NEXT SENTENCE; ELSE GO TO LOOP1.
    0032   00320           WRITE ZOT.
    0033   00330           SET L2 UP BY 1.
    0034   00340           IF L2 EQUALS 1001 NEXT SENTENCE; ELSE GO TO LOOP0.
    0035   00350    READ-IT-BACK-AND-CHECK-IT.
    0036   00360    CLOSE FOOBAR.
    0037   00370    DISPLAY "FINISH WRITE".
    0038   00380    OPEN INPUT FOOBAR.
    0039   00390    DISPLAY "START READ".
    0040   00400    PERFORM FORNICATION VARYING L2 FROM 1 BY 1 UNTIL L2 EQUALS 1001.
    0041   00410    FORNICATION.
    0042   00420           READ FOOBAR;AT END GO TO DONE-AT-LAST.
    0043   00430           PERFORM LEWD-ACTS VARYING L1 FROM 1 BY 1 UNTIL L1 EQUALS 31.
    0044   00440    LEWD-ACTS.
    0045   00450           IF ZOT1(L1) EQUALS (L1 + 30 * L2) NEXT SENTENCE; ELSE DISPLAY "TILT".
    0046   00470    DONE-AT-LAST.
    0047   00480    DISPLAY "SHIP IT!".
    0048   00490    STOP RUN.
    0049   00500      P R O G R A M   T Y M I O . 		COBOL 3A(43)-1	30-MAR-72  17:32		PAGE A-1


    INTERNAL FILES.,USES.,COMMA.,POINT.,MONEY.
    INTERNAL SEGWD.,ALTER.,OVRFN.,MEMRY.
    INTERNAL %NM.,%DT.,%PR.,TRAC1.,TRAC2.,TRAC3.

000140	000000  000031'	FILES.:     XWD     0,31
000141	000000  000000 	USES.:      XWD     0,0
000142	000000' 000346'	SEGWD.:     XWD     0,346
000143	000000' 000144'	ALTER.:     XWD     0,144
000144	000000  000000 	OVRFN.:     OCT     0
000145	000000  000016 	POINT.:     "."
000146	000000  000014 	COMMA.:     ","
000147	000000  000004 	MONEY.:     "$"
000150	000000  777777 	MEMRY.:     OCT     777777
000151	254020  000164 	GOTO..:     JRST    GOTO.
000152	000000  000000 	TRAC1.:     EXP     BTRAC.
000153	000000  000000 	TRAC2.:     EXP     TRPOP.
000154	000000  000000 	TRAC3.:     EXP     TRPD.
000155	000000  000346'	%NM.:     EXP     346
000156	000000  000427'	%DT.:     EXP     427
000157	000000  000512'	%PR.:     EXP     512



000031'			    SIXBIT  "FOOBAR                        "


			%PARAM:

000142'	000000  000000 		OCT	0
000143'	000000  000000 		OCT	0
    P R O G R A M   T Y M I O . 		COBOL 3A(43)-1	30-MAR-72  17:32		PAGE A-2


    INTERNAL START.

000144'	201040  000151'	START.:     MOVEI   1,.+5
000145'	047040  000040 		CALLI	1,40
000146'	254200  000146'	    JRST    4,.
000147'	265600  400010 	    JSP     14,400010       ;RESET.
000150'	254000  000160'		JRST	BEGIN-AT-THE-BEGINNING
000151'	637163  000000 	        SIXBIT  "SYS"
000152'	545142  575400 	        SIXBIT  "LIBOL"
000153'	635062  000000 	        SIXBIT  "SHR"
000154'	000000  000000 	        Z
000155'	000000  000000 	        Z
000156'	000000  000000 	        Z

000157'			%0:    SIXBIT  "DSK   "

			BEGIN-AT-THE-BEGINNING:

000160'	260740  000000 		PUSHJ	17,TRACE.
000161'	000000  000011 		XWD	0,11
000162'	002000  000315'		DSPLY.	%LIT00+3
000163'	200240  000316'		MOVE	5,%LIT00+4
000164'	202240  000002'		MOVEM	5,EXTERNAL-FILE-NAME
000165'	135240  000320'		LDB	5,%LIT00+6
000166'	137240  000321'		DPB	5,%LIT00+7
000167'	001400  000031'		OPEN.	FOOBAR
000170'	201000  000001 		MOVEI	0,1
000171'	202000  000001'		MOVEM	0,L2

			LOOP0:

000172'	260740  000160'		PUSHJ	17,TRACE.
000173'	000000  000015 		XWD	0,15
000174'	201000  000001 		MOVEI	0,1
000175'	202000  000000'		MOVEM	0,L1

			LOOP1:

000176'	260740  000172'		PUSHJ	17,TRACE.
000177'	000000  000021 		XWD	0,21
000200'	402020  000201 		SETZM	@201    ;OVFLO.
000201'	200000  000001'		MOVE	0,L2
000202'	221000  000036 		IMULI	0,^D30
000203'	270000  000000'		ADD	0,L1
000204'	005140  000322'		SUBSC.	%LIT00+10
000205'	016000  000012 		PD7.	0,12
000206'	350000  000000'		AOS	L1
000207'	200000  000000'		MOVE	0,L1
000210'	302000  000037 		CAIE	0,^D31
000211'	254000  000213'		JRST	%1
000212'	254000  000214'		JRST	%2

000213'	254000  000176'	%1:	JRST	LOOP1

000214'	002200  000031'	%2:	WADV.	FOOBAR    P R O G R A M   T Y M I O . 		COBOL 3A(43)-1	30-MAR-72  17:32		PAGE A-3

000215'	036030  000001 		XWD	36030,1
000216'	350000  000001'		AOS	L2
000217'	200000  000001'		MOVE	0,L2
000220'	302000  001751 		CAIE	0,^D1001
000221'	254000  000223'		JRST	%3
000222'	254000  000224'		JRST	%4

000223'	254000  000172'	%3:	JRST	LOOP0

			READ-IT-BACK-AND-CHECK-IT:

000224'	260740  000176'	%4:	PUSHJ	17,TRACE.
000225'	000000  000025 		XWD	0,25
000226'	001040  000031'		CLOSE.	FOOBAR
000227'	002000  000331'		DSPLY.	%LIT00+17
000230'	001200  000031'		OPEN.	FOOBAR
000231'	002000  000334'		DSPLY.	%LIT00+22
000232'	254000  000244'		JRST	%5

000233'	200000  000001'	%6:	MOVE	0,L2
000234'	302000  001751 		CAIE	0,^D1001
000235'	254000  000237'		JRST	%7
000236'	254000  000247'		JRST	%8

000237'	012000  000142'	%7:	PERF.	0,%PARAM
000240'	254000  000247'		JRST	FORNICATION
000241'	201000  000001 		MOVEI	0,1
000242'	272000  000001'		ADDM	0,L2
000243'	254000  000233'		JRST	%6

000244'	201000  000001 	%5:	MOVEI	0,1
000245'	202000  000001'		MOVEM	0,L2
000246'	254000  000233'		JRST	%6

			FORNICATION:

000247'	260740  000224'	%8:	PUSHJ	17,TRACE.
000250'	000000  000031 		XWD	0,31
000251'	002100  000031'		READ.	FOOBAR
000252'	254000  000254'		JRST	%9
000253'	254000  000306'		JRST	DONE-AT-LAST

000254'	254000  000266'	%9:	JRST	%10

000255'	200000  000000'	%11:	MOVE	0,L1
000256'	302000  000037 		CAIE	0,^D31
000257'	254000  000261'		JRST	%12
000260'	254000  000271'		JRST	%13

000261'	012000  000143'	%12:	PERF.	0,%PARAM+1
000262'	254000  000272'		JRST	LEWD-ACTS
000263'	201000  000001 		MOVEI	0,1
000264'	272000  000000'		ADDM	0,L1
000265'	254000  000255'		JRST	%11

000266'	201000  000001 	%10:	MOVEI	0,1    P R O G R A M   T Y M I O . 		COBOL 3A(43)-1	30-MAR-72  17:32		PAGE A-4

000267'	202000  000000'		MOVEM	0,L1
000270'	254000  000255'		JRST	%11

000271'	005500  000142'	%13:	EXIT.	%PARAM

			LEWD-ACTS:

000272'	260740  000247'		PUSHJ	17,TRACE.
000273'	000000  000035 		XWD	0,35
000274'	200000  000001'		MOVE	0,L2
000275'	221000  000036 		IMULI	0,^D30
000276'	270000  000000'		ADD	0,L1
000277'	005140  000335'		SUBSC.	%LIT00+23
000300'	020100  000012 		GD7.	2,12
000301'	312100  000000 		CAME	2,0
000302'	254000  000304'		JRST	%14
000303'	254000  000305'		JRST	%15

000304'	002000  000342'	%14:	DSPLY.	%LIT00+30

000305'	005500  000143'	%15:	EXIT.	%PARAM+1

			DONE-AT-LAST:

000306'	260740  000272'		PUSHJ	17,TRACE.
000307'	000000  000041 		XWD	0,41
000310'	002000  000345'		DSPLY.	%LIT00+33
000311'	260760  000161 		PUSHJ	17,@161    ;STOPR.

    P R O G R A M   T Y M I O . 		COBOL 3A(43)-1	30-MAR-72  17:32		PAGE A-5

			%LIT00:

000312'			    ASCII   "START WRITE"
000315'	442013  000312'		XWD	442013,%LIT00
000316'			    SIXBIT  "GOSTOHELL   "
000320'	222200  000317'		POINT	18,%LIT00+5,17
000321'	222200  000003'		POINT	18,EXTERNAL-FILE-NAME+1,17
000322'	440700  000062'		POINT	7,ZOT1
000323'	000001  000010 		XWD	1,10
000324'	000000  000000'		XWD	0,L1
000325'	000010  400036 		XWD	10,400036
000326'			    ASCII   "FINISH WRITE"
000331'	442014  000326'		XWD	442014,%LIT00+14
000332'			    ASCII   "START READ"
000334'	442012  000332'		XWD	442012,%LIT00+20
000335'	440700  000062'		POINT	7,ZOT1
000336'	000001  000010 		XWD	1,10
000337'	000000  000000'		XWD	0,L1
000340'	000010  400036 		XWD	10,400036
000341'			    ASCII   "TILT"
000342'	442004  000341'		XWD	442004,%LIT00+27
000343'			    ASCII   "SHIP IT!"
000345'	442010  000343'		XWD	442010,%LIT00+31

        END     START.


PROGRAM BREAK IS 000346


NO ERRORS DETECTED
   